                              1 ;--------------------------------------------------------
                              2 ; File Created by SDCC : free open source ANSI-C Compiler
                              3 ; Version 4.0.0 #11528 (MINGW32)
                              4 ;--------------------------------------------------------
                              5 	.module C__Users_Thief3_AppData_Local_Temp_lcc4721
                              6 	.optsdcc -mgbz80
                              7 	
                              8 ;--------------------------------------------------------
                              9 ; Public variables in this module
                             10 ;--------------------------------------------------------
                             11 	.globl _main
                             12 	.globl _collision_check_2
                             13 	.globl _get_world_to_map
                             14 	.globl _jump
                             15 	.globl _player_movement
                             16 	.globl _update_position
                             17 	.globl _gravity
                             18 	.globl _next_animation
                             19 	.globl _draw
                             20 	.globl _performantdelay
                             21 	.globl _BGB_profiler_message
                             22 	.globl _sprintf
                             23 	.globl _move_sprite
                             24 	.globl _set_sprite_tile
                             25 	.globl _set_sprite_data
                             26 	.globl _set_bkg_tiles
                             27 	.globl _set_bkg_data
                             28 	.globl _wait_vbl_done
                             29 	.globl _joypad
                             30 	.globl _gravity_time
                             31 	.globl _TestMap
                             32 	.globl _backgroundtiles
                             33 	.globl _MainChar
                             34 ;--------------------------------------------------------
                             35 ; special function registers
                             36 ;--------------------------------------------------------
                             37 ;--------------------------------------------------------
                             38 ; ram data
                             39 ;--------------------------------------------------------
                             40 	.area _DATA
   0000                      41 _MainChar::
   0000                      42 	.ds 48
   0030                      43 _joypad_prev_state:
   0030                      44 	.ds 1
   0031                      45 _joypad_curr_state:
   0031                      46 	.ds 1
   0032                      47 _input_timer:
   0032                      48 	.ds 1
   0033                      49 _backgroundtiles::
   0033                      50 	.ds 64
   0073                      51 _TestMap::
   0073                      52 	.ds 360
   01DB                      53 ___BGB_PROFILER_INIT:
   01DB                      54 	.ds 2
   01DD                      55 _debug_buffer:
   01DD                      56 	.ds 512
   03DD                      57 _GRAVITY:
   03DD                      58 	.ds 1
   03DE                      59 _gravity_time::
   03DE                      60 	.ds 1
                             61 ;--------------------------------------------------------
                             62 ; absolute external ram data
                             63 ;--------------------------------------------------------
                             64 	.area _DABS (ABS)
                             65 ;--------------------------------------------------------
                             66 ; global & static initialisations
                             67 ;--------------------------------------------------------
                             68 	.area _HOME
                             69 	.area _GSINIT
                             70 	.area _GSFINAL
                             71 	.area _GSINIT
                             72 ;./src/../sprites/char.c:26: unsigned char MainChar[] =
   0000 21r00r00             73 	ld	hl, #_MainChar
   0003 36 00                74 	ld	(hl), #0x00
   0005 21r01r00             75 	ld	hl, #(_MainChar + 0x0001)
   0008 36 00                76 	ld	(hl), #0x00
   000A 21r02r00             77 	ld	hl, #(_MainChar + 0x0002)
   000D 36 7E                78 	ld	(hl), #0x7e
   000F 21r03r00             79 	ld	hl, #(_MainChar + 0x0003)
   0012 36 7E                80 	ld	(hl), #0x7e
   0014 21r04r00             81 	ld	hl, #(_MainChar + 0x0004)
   0017 36 42                82 	ld	(hl), #0x42
   0019 21r05r00             83 	ld	hl, #(_MainChar + 0x0005)
   001C 36 76                84 	ld	(hl), #0x76
   001E 21r06r00             85 	ld	hl, #(_MainChar + 0x0006)
   0021 36 42                86 	ld	(hl), #0x42
   0023 21r07r00             87 	ld	hl, #(_MainChar + 0x0007)
   0026 36 76                88 	ld	(hl), #0x76
   0028 21r08r00             89 	ld	hl, #(_MainChar + 0x0008)
   002B 36 4A                90 	ld	(hl), #0x4a
   002D 21r09r00             91 	ld	hl, #(_MainChar + 0x0009)
   0030 36 4A                92 	ld	(hl), #0x4a
   0032 21r0Ar00             93 	ld	hl, #(_MainChar + 0x000a)
   0035 36 7E                94 	ld	(hl), #0x7e
   0037 21r0Br00             95 	ld	hl, #(_MainChar + 0x000b)
   003A 36 7E                96 	ld	(hl), #0x7e
   003C 21r0Cr00             97 	ld	hl, #(_MainChar + 0x000c)
   003F 36 36                98 	ld	(hl), #0x36
   0041 21r0Dr00             99 	ld	hl, #(_MainChar + 0x000d)
   0044 36 36               100 	ld	(hl), #0x36
   0046 21r0Er00            101 	ld	hl, #(_MainChar + 0x000e)
   0049 36 36               102 	ld	(hl), #0x36
   004B 21r0Fr00            103 	ld	hl, #(_MainChar + 0x000f)
   004E 36 36               104 	ld	(hl), #0x36
   0050 21r10r00            105 	ld	hl, #(_MainChar + 0x0010)
   0053 36 00               106 	ld	(hl), #0x00
   0055 21r11r00            107 	ld	hl, #(_MainChar + 0x0011)
   0058 36 00               108 	ld	(hl), #0x00
   005A 21r12r00            109 	ld	hl, #(_MainChar + 0x0012)
   005D 36 7E               110 	ld	(hl), #0x7e
   005F 21r13r00            111 	ld	hl, #(_MainChar + 0x0013)
   0062 36 7E               112 	ld	(hl), #0x7e
   0064 21r14r00            113 	ld	hl, #(_MainChar + 0x0014)
   0067 36 42               114 	ld	(hl), #0x42
   0069 21r15r00            115 	ld	hl, #(_MainChar + 0x0015)
   006C 36 76               116 	ld	(hl), #0x76
   006E 21r16r00            117 	ld	hl, #(_MainChar + 0x0016)
   0071 36 42               118 	ld	(hl), #0x42
   0073 21r17r00            119 	ld	hl, #(_MainChar + 0x0017)
   0076 36 76               120 	ld	(hl), #0x76
   0078 21r18r00            121 	ld	hl, #(_MainChar + 0x0018)
   007B 36 4A               122 	ld	(hl), #0x4a
   007D 21r19r00            123 	ld	hl, #(_MainChar + 0x0019)
   0080 36 4A               124 	ld	(hl), #0x4a
   0082 21r1Ar00            125 	ld	hl, #(_MainChar + 0x001a)
   0085 36 7E               126 	ld	(hl), #0x7e
   0087 21r1Br00            127 	ld	hl, #(_MainChar + 0x001b)
   008A 36 7E               128 	ld	(hl), #0x7e
   008C 21r1Cr00            129 	ld	hl, #(_MainChar + 0x001c)
   008F 36 36               130 	ld	(hl), #0x36
   0091 21r1Dr00            131 	ld	hl, #(_MainChar + 0x001d)
   0094 36 36               132 	ld	(hl), #0x36
   0096 21r1Er00            133 	ld	hl, #(_MainChar + 0x001e)
   0099 36 30               134 	ld	(hl), #0x30
   009B 21r1Fr00            135 	ld	hl, #(_MainChar + 0x001f)
   009E 36 30               136 	ld	(hl), #0x30
   00A0 21r20r00            137 	ld	hl, #(_MainChar + 0x0020)
   00A3 36 00               138 	ld	(hl), #0x00
   00A5 21r21r00            139 	ld	hl, #(_MainChar + 0x0021)
   00A8 36 00               140 	ld	(hl), #0x00
   00AA 21r22r00            141 	ld	hl, #(_MainChar + 0x0022)
   00AD 36 7E               142 	ld	(hl), #0x7e
   00AF 21r23r00            143 	ld	hl, #(_MainChar + 0x0023)
   00B2 36 7E               144 	ld	(hl), #0x7e
   00B4 21r24r00            145 	ld	hl, #(_MainChar + 0x0024)
   00B7 36 42               146 	ld	(hl), #0x42
   00B9 21r25r00            147 	ld	hl, #(_MainChar + 0x0025)
   00BC 36 76               148 	ld	(hl), #0x76
   00BE 21r26r00            149 	ld	hl, #(_MainChar + 0x0026)
   00C1 36 42               150 	ld	(hl), #0x42
   00C3 21r27r00            151 	ld	hl, #(_MainChar + 0x0027)
   00C6 36 76               152 	ld	(hl), #0x76
   00C8 21r28r00            153 	ld	hl, #(_MainChar + 0x0028)
   00CB 36 4A               154 	ld	(hl), #0x4a
   00CD 21r29r00            155 	ld	hl, #(_MainChar + 0x0029)
   00D0 36 4A               156 	ld	(hl), #0x4a
   00D2 21r2Ar00            157 	ld	hl, #(_MainChar + 0x002a)
   00D5 36 7E               158 	ld	(hl), #0x7e
   00D7 21r2Br00            159 	ld	hl, #(_MainChar + 0x002b)
   00DA 36 7E               160 	ld	(hl), #0x7e
   00DC 21r2Cr00            161 	ld	hl, #(_MainChar + 0x002c)
   00DF 36 36               162 	ld	(hl), #0x36
   00E1 21r2Dr00            163 	ld	hl, #(_MainChar + 0x002d)
   00E4 36 36               164 	ld	(hl), #0x36
   00E6 21r2Er00            165 	ld	hl, #(_MainChar + 0x002e)
   00E9 36 06               166 	ld	(hl), #0x06
   00EB 21r2Fr00            167 	ld	hl, #(_MainChar + 0x002f)
   00EE 36 06               168 	ld	(hl), #0x06
                            169 ;./src/../sprites/backgroundtiles.c:26: unsigned char backgroundtiles[] =
   00F0 21r33r00            170 	ld	hl, #_backgroundtiles
   00F3 36 00               171 	ld	(hl), #0x00
   00F5 21r34r00            172 	ld	hl, #(_backgroundtiles + 0x0001)
   00F8 36 00               173 	ld	(hl), #0x00
   00FA 21r35r00            174 	ld	hl, #(_backgroundtiles + 0x0002)
   00FD 36 00               175 	ld	(hl), #0x00
   00FF 21r36r00            176 	ld	hl, #(_backgroundtiles + 0x0003)
   0102 36 00               177 	ld	(hl), #0x00
   0104 21r37r00            178 	ld	hl, #(_backgroundtiles + 0x0004)
   0107 36 00               179 	ld	(hl), #0x00
   0109 21r38r00            180 	ld	hl, #(_backgroundtiles + 0x0005)
   010C 36 00               181 	ld	(hl), #0x00
   010E 21r39r00            182 	ld	hl, #(_backgroundtiles + 0x0006)
   0111 36 00               183 	ld	(hl), #0x00
   0113 21r3Ar00            184 	ld	hl, #(_backgroundtiles + 0x0007)
   0116 36 00               185 	ld	(hl), #0x00
   0118 21r3Br00            186 	ld	hl, #(_backgroundtiles + 0x0008)
   011B 36 00               187 	ld	(hl), #0x00
   011D 21r3Cr00            188 	ld	hl, #(_backgroundtiles + 0x0009)
   0120 36 00               189 	ld	(hl), #0x00
   0122 21r3Dr00            190 	ld	hl, #(_backgroundtiles + 0x000a)
   0125 36 00               191 	ld	(hl), #0x00
   0127 21r3Er00            192 	ld	hl, #(_backgroundtiles + 0x000b)
   012A 36 00               193 	ld	(hl), #0x00
   012C 21r3Fr00            194 	ld	hl, #(_backgroundtiles + 0x000c)
   012F 36 00               195 	ld	(hl), #0x00
   0131 21r40r00            196 	ld	hl, #(_backgroundtiles + 0x000d)
   0134 36 00               197 	ld	(hl), #0x00
   0136 21r41r00            198 	ld	hl, #(_backgroundtiles + 0x000e)
   0139 36 00               199 	ld	(hl), #0x00
   013B 21r42r00            200 	ld	hl, #(_backgroundtiles + 0x000f)
   013E 36 00               201 	ld	(hl), #0x00
   0140 21r43r00            202 	ld	hl, #(_backgroundtiles + 0x0010)
   0143 36 00               203 	ld	(hl), #0x00
   0145 21r44r00            204 	ld	hl, #(_backgroundtiles + 0x0011)
   0148 36 FF               205 	ld	(hl), #0xff
   014A 21r45r00            206 	ld	hl, #(_backgroundtiles + 0x0012)
   014D 36 00               207 	ld	(hl), #0x00
   014F 21r46r00            208 	ld	hl, #(_backgroundtiles + 0x0013)
   0152 36 FF               209 	ld	(hl), #0xff
   0154 21r47r00            210 	ld	hl, #(_backgroundtiles + 0x0014)
   0157 36 00               211 	ld	(hl), #0x00
   0159 21r48r00            212 	ld	hl, #(_backgroundtiles + 0x0015)
   015C 36 FF               213 	ld	(hl), #0xff
   015E 21r49r00            214 	ld	hl, #(_backgroundtiles + 0x0016)
   0161 36 00               215 	ld	(hl), #0x00
   0163 21r4Ar00            216 	ld	hl, #(_backgroundtiles + 0x0017)
   0166 36 FF               217 	ld	(hl), #0xff
   0168 21r4Br00            218 	ld	hl, #(_backgroundtiles + 0x0018)
   016B 36 00               219 	ld	(hl), #0x00
   016D 21r4Cr00            220 	ld	hl, #(_backgroundtiles + 0x0019)
   0170 36 FF               221 	ld	(hl), #0xff
   0172 21r4Dr00            222 	ld	hl, #(_backgroundtiles + 0x001a)
   0175 36 00               223 	ld	(hl), #0x00
   0177 21r4Er00            224 	ld	hl, #(_backgroundtiles + 0x001b)
   017A 36 FF               225 	ld	(hl), #0xff
   017C 21r4Fr00            226 	ld	hl, #(_backgroundtiles + 0x001c)
   017F 36 00               227 	ld	(hl), #0x00
   0181 21r50r00            228 	ld	hl, #(_backgroundtiles + 0x001d)
   0184 36 FF               229 	ld	(hl), #0xff
   0186 21r51r00            230 	ld	hl, #(_backgroundtiles + 0x001e)
   0189 36 00               231 	ld	(hl), #0x00
   018B 21r52r00            232 	ld	hl, #(_backgroundtiles + 0x001f)
   018E 36 FF               233 	ld	(hl), #0xff
   0190 21r53r00            234 	ld	hl, #(_backgroundtiles + 0x0020)
   0193 36 FF               235 	ld	(hl), #0xff
   0195 21r54r00            236 	ld	hl, #(_backgroundtiles + 0x0021)
   0198 36 FF               237 	ld	(hl), #0xff
   019A 21r55r00            238 	ld	hl, #(_backgroundtiles + 0x0022)
   019D 36 FF               239 	ld	(hl), #0xff
   019F 21r56r00            240 	ld	hl, #(_backgroundtiles + 0x0023)
   01A2 36 FF               241 	ld	(hl), #0xff
   01A4 21r57r00            242 	ld	hl, #(_backgroundtiles + 0x0024)
   01A7 36 FF               243 	ld	(hl), #0xff
   01A9 21r58r00            244 	ld	hl, #(_backgroundtiles + 0x0025)
   01AC 36 FF               245 	ld	(hl), #0xff
   01AE 21r59r00            246 	ld	hl, #(_backgroundtiles + 0x0026)
   01B1 36 FF               247 	ld	(hl), #0xff
   01B3 21r5Ar00            248 	ld	hl, #(_backgroundtiles + 0x0027)
   01B6 36 FF               249 	ld	(hl), #0xff
   01B8 21r5Br00            250 	ld	hl, #(_backgroundtiles + 0x0028)
   01BB 36 FF               251 	ld	(hl), #0xff
   01BD 21r5Cr00            252 	ld	hl, #(_backgroundtiles + 0x0029)
   01C0 36 FF               253 	ld	(hl), #0xff
   01C2 21r5Dr00            254 	ld	hl, #(_backgroundtiles + 0x002a)
   01C5 36 FF               255 	ld	(hl), #0xff
   01C7 21r5Er00            256 	ld	hl, #(_backgroundtiles + 0x002b)
   01CA 36 FF               257 	ld	(hl), #0xff
   01CC 21r5Fr00            258 	ld	hl, #(_backgroundtiles + 0x002c)
   01CF 36 FF               259 	ld	(hl), #0xff
   01D1 21r60r00            260 	ld	hl, #(_backgroundtiles + 0x002d)
   01D4 36 FF               261 	ld	(hl), #0xff
   01D6 21r61r00            262 	ld	hl, #(_backgroundtiles + 0x002e)
   01D9 36 FF               263 	ld	(hl), #0xff
   01DB 21r62r00            264 	ld	hl, #(_backgroundtiles + 0x002f)
   01DE 36 FF               265 	ld	(hl), #0xff
   01E0 21r63r00            266 	ld	hl, #(_backgroundtiles + 0x0030)
   01E3 36 18               267 	ld	(hl), #0x18
   01E5 21r64r00            268 	ld	hl, #(_backgroundtiles + 0x0031)
   01E8 36 18               269 	ld	(hl), #0x18
   01EA 21r65r00            270 	ld	hl, #(_backgroundtiles + 0x0032)
   01ED 36 1C               271 	ld	(hl), #0x1c
   01EF 21r66r00            272 	ld	hl, #(_backgroundtiles + 0x0033)
   01F2 36 1C               273 	ld	(hl), #0x1c
   01F4 21r67r00            274 	ld	hl, #(_backgroundtiles + 0x0034)
   01F7 36 3C               275 	ld	(hl), #0x3c
   01F9 21r68r00            276 	ld	hl, #(_backgroundtiles + 0x0035)
   01FC 36 3C               277 	ld	(hl), #0x3c
   01FE 21r69r00            278 	ld	hl, #(_backgroundtiles + 0x0036)
   0201 36 3C               279 	ld	(hl), #0x3c
   0203 21r6Ar00            280 	ld	hl, #(_backgroundtiles + 0x0037)
   0206 36 3C               281 	ld	(hl), #0x3c
   0208 21r6Br00            282 	ld	hl, #(_backgroundtiles + 0x0038)
   020B 36 7E               283 	ld	(hl), #0x7e
   020D 21r6Cr00            284 	ld	hl, #(_backgroundtiles + 0x0039)
   0210 36 7E               285 	ld	(hl), #0x7e
   0212 21r6Dr00            286 	ld	hl, #(_backgroundtiles + 0x003a)
   0215 36 7E               287 	ld	(hl), #0x7e
   0217 21r6Er00            288 	ld	hl, #(_backgroundtiles + 0x003b)
   021A 36 7E               289 	ld	(hl), #0x7e
   021C 21r6Fr00            290 	ld	hl, #(_backgroundtiles + 0x003c)
   021F 36 7F               291 	ld	(hl), #0x7f
   0221 21r70r00            292 	ld	hl, #(_backgroundtiles + 0x003d)
   0224 36 7F               293 	ld	(hl), #0x7f
   0226 21r71r00            294 	ld	hl, #(_backgroundtiles + 0x003e)
   0229 36 FF               295 	ld	(hl), #0xff
   022B 21r72r00            296 	ld	hl, #(_backgroundtiles + 0x003f)
   022E 36 FF               297 	ld	(hl), #0xff
                            298 ;./src/../sprites/test_map.c:25: unsigned char TestMap[] =
   0230 21r73r00            299 	ld	hl, #_TestMap
   0233 36 01               300 	ld	(hl), #0x01
   0235 21r74r00            301 	ld	hl, #(_TestMap + 0x0001)
   0238 36 01               302 	ld	(hl), #0x01
   023A 21r75r00            303 	ld	hl, #(_TestMap + 0x0002)
   023D 36 01               304 	ld	(hl), #0x01
   023F 21r76r00            305 	ld	hl, #(_TestMap + 0x0003)
   0242 36 01               306 	ld	(hl), #0x01
   0244 21r77r00            307 	ld	hl, #(_TestMap + 0x0004)
   0247 36 01               308 	ld	(hl), #0x01
   0249 21r78r00            309 	ld	hl, #(_TestMap + 0x0005)
   024C 36 01               310 	ld	(hl), #0x01
   024E 21r79r00            311 	ld	hl, #(_TestMap + 0x0006)
   0251 36 01               312 	ld	(hl), #0x01
   0253 21r7Ar00            313 	ld	hl, #(_TestMap + 0x0007)
   0256 36 01               314 	ld	(hl), #0x01
   0258 21r7Br00            315 	ld	hl, #(_TestMap + 0x0008)
   025B 36 01               316 	ld	(hl), #0x01
   025D 21r7Cr00            317 	ld	hl, #(_TestMap + 0x0009)
   0260 36 01               318 	ld	(hl), #0x01
   0262 21r7Dr00            319 	ld	hl, #(_TestMap + 0x000a)
   0265 36 01               320 	ld	(hl), #0x01
   0267 21r7Er00            321 	ld	hl, #(_TestMap + 0x000b)
   026A 36 01               322 	ld	(hl), #0x01
   026C 21r7Fr00            323 	ld	hl, #(_TestMap + 0x000c)
   026F 36 01               324 	ld	(hl), #0x01
   0271 21r80r00            325 	ld	hl, #(_TestMap + 0x000d)
   0274 36 01               326 	ld	(hl), #0x01
   0276 21r81r00            327 	ld	hl, #(_TestMap + 0x000e)
   0279 36 01               328 	ld	(hl), #0x01
   027B 21r82r00            329 	ld	hl, #(_TestMap + 0x000f)
   027E 36 01               330 	ld	(hl), #0x01
   0280 21r83r00            331 	ld	hl, #(_TestMap + 0x0010)
   0283 36 01               332 	ld	(hl), #0x01
   0285 21r84r00            333 	ld	hl, #(_TestMap + 0x0011)
   0288 36 01               334 	ld	(hl), #0x01
   028A 21r85r00            335 	ld	hl, #(_TestMap + 0x0012)
   028D 36 01               336 	ld	(hl), #0x01
   028F 21r86r00            337 	ld	hl, #(_TestMap + 0x0013)
   0292 36 01               338 	ld	(hl), #0x01
   0294 21r87r00            339 	ld	hl, #(_TestMap + 0x0014)
   0297 36 01               340 	ld	(hl), #0x01
   0299 21r88r00            341 	ld	hl, #(_TestMap + 0x0015)
   029C 36 00               342 	ld	(hl), #0x00
   029E 21r89r00            343 	ld	hl, #(_TestMap + 0x0016)
   02A1 36 00               344 	ld	(hl), #0x00
   02A3 21r8Ar00            345 	ld	hl, #(_TestMap + 0x0017)
   02A6 36 00               346 	ld	(hl), #0x00
   02A8 21r8Br00            347 	ld	hl, #(_TestMap + 0x0018)
   02AB 36 00               348 	ld	(hl), #0x00
   02AD 21r8Cr00            349 	ld	hl, #(_TestMap + 0x0019)
   02B0 36 00               350 	ld	(hl), #0x00
   02B2 21r8Dr00            351 	ld	hl, #(_TestMap + 0x001a)
   02B5 36 00               352 	ld	(hl), #0x00
   02B7 21r8Er00            353 	ld	hl, #(_TestMap + 0x001b)
   02BA 36 00               354 	ld	(hl), #0x00
   02BC 21r8Fr00            355 	ld	hl, #(_TestMap + 0x001c)
   02BF 36 00               356 	ld	(hl), #0x00
   02C1 21r90r00            357 	ld	hl, #(_TestMap + 0x001d)
   02C4 36 00               358 	ld	(hl), #0x00
   02C6 21r91r00            359 	ld	hl, #(_TestMap + 0x001e)
   02C9 36 00               360 	ld	(hl), #0x00
   02CB 21r92r00            361 	ld	hl, #(_TestMap + 0x001f)
   02CE 36 00               362 	ld	(hl), #0x00
   02D0 21r93r00            363 	ld	hl, #(_TestMap + 0x0020)
   02D3 36 00               364 	ld	(hl), #0x00
   02D5 21r94r00            365 	ld	hl, #(_TestMap + 0x0021)
   02D8 36 00               366 	ld	(hl), #0x00
   02DA 21r95r00            367 	ld	hl, #(_TestMap + 0x0022)
   02DD 36 00               368 	ld	(hl), #0x00
   02DF 21r96r00            369 	ld	hl, #(_TestMap + 0x0023)
   02E2 36 00               370 	ld	(hl), #0x00
   02E4 21r97r00            371 	ld	hl, #(_TestMap + 0x0024)
   02E7 36 00               372 	ld	(hl), #0x00
   02E9 21r98r00            373 	ld	hl, #(_TestMap + 0x0025)
   02EC 36 00               374 	ld	(hl), #0x00
   02EE 21r99r00            375 	ld	hl, #(_TestMap + 0x0026)
   02F1 36 00               376 	ld	(hl), #0x00
   02F3 21r9Ar00            377 	ld	hl, #(_TestMap + 0x0027)
   02F6 36 01               378 	ld	(hl), #0x01
   02F8 21r9Br00            379 	ld	hl, #(_TestMap + 0x0028)
   02FB 36 01               380 	ld	(hl), #0x01
   02FD 21r9Cr00            381 	ld	hl, #(_TestMap + 0x0029)
   0300 36 00               382 	ld	(hl), #0x00
   0302 21r9Dr00            383 	ld	hl, #(_TestMap + 0x002a)
   0305 36 00               384 	ld	(hl), #0x00
   0307 21r9Er00            385 	ld	hl, #(_TestMap + 0x002b)
   030A 36 00               386 	ld	(hl), #0x00
   030C 21r9Fr00            387 	ld	hl, #(_TestMap + 0x002c)
   030F 36 00               388 	ld	(hl), #0x00
   0311 21rA0r00            389 	ld	hl, #(_TestMap + 0x002d)
   0314 36 00               390 	ld	(hl), #0x00
   0316 21rA1r00            391 	ld	hl, #(_TestMap + 0x002e)
   0319 36 00               392 	ld	(hl), #0x00
   031B 21rA2r00            393 	ld	hl, #(_TestMap + 0x002f)
   031E 36 00               394 	ld	(hl), #0x00
   0320 21rA3r00            395 	ld	hl, #(_TestMap + 0x0030)
   0323 36 00               396 	ld	(hl), #0x00
   0325 21rA4r00            397 	ld	hl, #(_TestMap + 0x0031)
   0328 36 00               398 	ld	(hl), #0x00
   032A 21rA5r00            399 	ld	hl, #(_TestMap + 0x0032)
   032D 36 00               400 	ld	(hl), #0x00
   032F 21rA6r00            401 	ld	hl, #(_TestMap + 0x0033)
   0332 36 00               402 	ld	(hl), #0x00
   0334 21rA7r00            403 	ld	hl, #(_TestMap + 0x0034)
   0337 36 00               404 	ld	(hl), #0x00
   0339 21rA8r00            405 	ld	hl, #(_TestMap + 0x0035)
   033C 36 00               406 	ld	(hl), #0x00
   033E 21rA9r00            407 	ld	hl, #(_TestMap + 0x0036)
   0341 36 00               408 	ld	(hl), #0x00
   0343 21rAAr00            409 	ld	hl, #(_TestMap + 0x0037)
   0346 36 00               410 	ld	(hl), #0x00
   0348 21rABr00            411 	ld	hl, #(_TestMap + 0x0038)
   034B 36 00               412 	ld	(hl), #0x00
   034D 21rACr00            413 	ld	hl, #(_TestMap + 0x0039)
   0350 36 00               414 	ld	(hl), #0x00
   0352 21rADr00            415 	ld	hl, #(_TestMap + 0x003a)
   0355 36 00               416 	ld	(hl), #0x00
   0357 21rAEr00            417 	ld	hl, #(_TestMap + 0x003b)
   035A 36 01               418 	ld	(hl), #0x01
   035C 21rAFr00            419 	ld	hl, #(_TestMap + 0x003c)
   035F 36 01               420 	ld	(hl), #0x01
   0361 21rB0r00            421 	ld	hl, #(_TestMap + 0x003d)
   0364 36 00               422 	ld	(hl), #0x00
   0366 21rB1r00            423 	ld	hl, #(_TestMap + 0x003e)
   0369 36 00               424 	ld	(hl), #0x00
   036B 21rB2r00            425 	ld	hl, #(_TestMap + 0x003f)
   036E 36 00               426 	ld	(hl), #0x00
   0370 21rB3r00            427 	ld	hl, #(_TestMap + 0x0040)
   0373 36 00               428 	ld	(hl), #0x00
   0375 21rB4r00            429 	ld	hl, #(_TestMap + 0x0041)
   0378 36 00               430 	ld	(hl), #0x00
   037A 21rB5r00            431 	ld	hl, #(_TestMap + 0x0042)
   037D 36 00               432 	ld	(hl), #0x00
   037F 21rB6r00            433 	ld	hl, #(_TestMap + 0x0043)
   0382 36 00               434 	ld	(hl), #0x00
   0384 21rB7r00            435 	ld	hl, #(_TestMap + 0x0044)
   0387 36 00               436 	ld	(hl), #0x00
   0389 21rB8r00            437 	ld	hl, #(_TestMap + 0x0045)
   038C 36 00               438 	ld	(hl), #0x00
   038E 21rB9r00            439 	ld	hl, #(_TestMap + 0x0046)
   0391 36 00               440 	ld	(hl), #0x00
   0393 21rBAr00            441 	ld	hl, #(_TestMap + 0x0047)
   0396 36 00               442 	ld	(hl), #0x00
   0398 21rBBr00            443 	ld	hl, #(_TestMap + 0x0048)
   039B 36 00               444 	ld	(hl), #0x00
   039D 21rBCr00            445 	ld	hl, #(_TestMap + 0x0049)
   03A0 36 00               446 	ld	(hl), #0x00
   03A2 21rBDr00            447 	ld	hl, #(_TestMap + 0x004a)
   03A5 36 00               448 	ld	(hl), #0x00
   03A7 21rBEr00            449 	ld	hl, #(_TestMap + 0x004b)
   03AA 36 00               450 	ld	(hl), #0x00
   03AC 21rBFr00            451 	ld	hl, #(_TestMap + 0x004c)
   03AF 36 00               452 	ld	(hl), #0x00
   03B1 21rC0r00            453 	ld	hl, #(_TestMap + 0x004d)
   03B4 36 00               454 	ld	(hl), #0x00
   03B6 21rC1r00            455 	ld	hl, #(_TestMap + 0x004e)
   03B9 36 00               456 	ld	(hl), #0x00
   03BB 21rC2r00            457 	ld	hl, #(_TestMap + 0x004f)
   03BE 36 01               458 	ld	(hl), #0x01
   03C0 21rC3r00            459 	ld	hl, #(_TestMap + 0x0050)
   03C3 36 01               460 	ld	(hl), #0x01
   03C5 21rC4r00            461 	ld	hl, #(_TestMap + 0x0051)
   03C8 36 00               462 	ld	(hl), #0x00
   03CA 21rC5r00            463 	ld	hl, #(_TestMap + 0x0052)
   03CD 36 00               464 	ld	(hl), #0x00
   03CF 21rC6r00            465 	ld	hl, #(_TestMap + 0x0053)
   03D2 36 00               466 	ld	(hl), #0x00
   03D4 21rC7r00            467 	ld	hl, #(_TestMap + 0x0054)
   03D7 36 00               468 	ld	(hl), #0x00
   03D9 21rC8r00            469 	ld	hl, #(_TestMap + 0x0055)
   03DC 36 00               470 	ld	(hl), #0x00
   03DE 21rC9r00            471 	ld	hl, #(_TestMap + 0x0056)
   03E1 36 00               472 	ld	(hl), #0x00
   03E3 21rCAr00            473 	ld	hl, #(_TestMap + 0x0057)
   03E6 36 00               474 	ld	(hl), #0x00
   03E8 21rCBr00            475 	ld	hl, #(_TestMap + 0x0058)
   03EB 36 00               476 	ld	(hl), #0x00
   03ED 21rCCr00            477 	ld	hl, #(_TestMap + 0x0059)
   03F0 36 00               478 	ld	(hl), #0x00
   03F2 21rCDr00            479 	ld	hl, #(_TestMap + 0x005a)
   03F5 36 00               480 	ld	(hl), #0x00
   03F7 21rCEr00            481 	ld	hl, #(_TestMap + 0x005b)
   03FA 36 00               482 	ld	(hl), #0x00
   03FC 21rCFr00            483 	ld	hl, #(_TestMap + 0x005c)
   03FF 36 00               484 	ld	(hl), #0x00
   0401 21rD0r00            485 	ld	hl, #(_TestMap + 0x005d)
   0404 36 00               486 	ld	(hl), #0x00
   0406 21rD1r00            487 	ld	hl, #(_TestMap + 0x005e)
   0409 36 00               488 	ld	(hl), #0x00
   040B 21rD2r00            489 	ld	hl, #(_TestMap + 0x005f)
   040E 36 00               490 	ld	(hl), #0x00
   0410 21rD3r00            491 	ld	hl, #(_TestMap + 0x0060)
   0413 36 00               492 	ld	(hl), #0x00
   0415 21rD4r00            493 	ld	hl, #(_TestMap + 0x0061)
   0418 36 00               494 	ld	(hl), #0x00
   041A 21rD5r00            495 	ld	hl, #(_TestMap + 0x0062)
   041D 36 00               496 	ld	(hl), #0x00
   041F 21rD6r00            497 	ld	hl, #(_TestMap + 0x0063)
   0422 36 01               498 	ld	(hl), #0x01
   0424 21rD7r00            499 	ld	hl, #(_TestMap + 0x0064)
   0427 36 01               500 	ld	(hl), #0x01
   0429 21rD8r00            501 	ld	hl, #(_TestMap + 0x0065)
   042C 36 00               502 	ld	(hl), #0x00
   042E 21rD9r00            503 	ld	hl, #(_TestMap + 0x0066)
   0431 36 00               504 	ld	(hl), #0x00
   0433 21rDAr00            505 	ld	hl, #(_TestMap + 0x0067)
   0436 36 00               506 	ld	(hl), #0x00
   0438 21rDBr00            507 	ld	hl, #(_TestMap + 0x0068)
   043B 36 00               508 	ld	(hl), #0x00
   043D 21rDCr00            509 	ld	hl, #(_TestMap + 0x0069)
   0440 36 00               510 	ld	(hl), #0x00
   0442 21rDDr00            511 	ld	hl, #(_TestMap + 0x006a)
   0445 36 00               512 	ld	(hl), #0x00
   0447 21rDEr00            513 	ld	hl, #(_TestMap + 0x006b)
   044A 36 00               514 	ld	(hl), #0x00
   044C 21rDFr00            515 	ld	hl, #(_TestMap + 0x006c)
   044F 36 00               516 	ld	(hl), #0x00
   0451 21rE0r00            517 	ld	hl, #(_TestMap + 0x006d)
   0454 36 00               518 	ld	(hl), #0x00
   0456 21rE1r00            519 	ld	hl, #(_TestMap + 0x006e)
   0459 36 00               520 	ld	(hl), #0x00
   045B 21rE2r00            521 	ld	hl, #(_TestMap + 0x006f)
   045E 36 00               522 	ld	(hl), #0x00
   0460 21rE3r00            523 	ld	hl, #(_TestMap + 0x0070)
   0463 36 00               524 	ld	(hl), #0x00
   0465 21rE4r00            525 	ld	hl, #(_TestMap + 0x0071)
   0468 36 00               526 	ld	(hl), #0x00
   046A 21rE5r00            527 	ld	hl, #(_TestMap + 0x0072)
   046D 36 00               528 	ld	(hl), #0x00
   046F 21rE6r00            529 	ld	hl, #(_TestMap + 0x0073)
   0472 36 00               530 	ld	(hl), #0x00
   0474 21rE7r00            531 	ld	hl, #(_TestMap + 0x0074)
   0477 36 00               532 	ld	(hl), #0x00
   0479 21rE8r00            533 	ld	hl, #(_TestMap + 0x0075)
   047C 36 00               534 	ld	(hl), #0x00
   047E 21rE9r00            535 	ld	hl, #(_TestMap + 0x0076)
   0481 36 00               536 	ld	(hl), #0x00
   0483 21rEAr00            537 	ld	hl, #(_TestMap + 0x0077)
   0486 36 01               538 	ld	(hl), #0x01
   0488 21rEBr00            539 	ld	hl, #(_TestMap + 0x0078)
   048B 36 01               540 	ld	(hl), #0x01
   048D 21rECr00            541 	ld	hl, #(_TestMap + 0x0079)
   0490 36 00               542 	ld	(hl), #0x00
   0492 21rEDr00            543 	ld	hl, #(_TestMap + 0x007a)
   0495 36 00               544 	ld	(hl), #0x00
   0497 21rEEr00            545 	ld	hl, #(_TestMap + 0x007b)
   049A 36 00               546 	ld	(hl), #0x00
   049C 21rEFr00            547 	ld	hl, #(_TestMap + 0x007c)
   049F 36 00               548 	ld	(hl), #0x00
   04A1 21rF0r00            549 	ld	hl, #(_TestMap + 0x007d)
   04A4 36 00               550 	ld	(hl), #0x00
   04A6 21rF1r00            551 	ld	hl, #(_TestMap + 0x007e)
   04A9 36 00               552 	ld	(hl), #0x00
   04AB 21rF2r00            553 	ld	hl, #(_TestMap + 0x007f)
   04AE 36 00               554 	ld	(hl), #0x00
   04B0 21rF3r00            555 	ld	hl, #(_TestMap + 0x0080)
   04B3 36 00               556 	ld	(hl), #0x00
   04B5 21rF4r00            557 	ld	hl, #(_TestMap + 0x0081)
   04B8 36 00               558 	ld	(hl), #0x00
   04BA 21rF5r00            559 	ld	hl, #(_TestMap + 0x0082)
   04BD 36 00               560 	ld	(hl), #0x00
   04BF 21rF6r00            561 	ld	hl, #(_TestMap + 0x0083)
   04C2 36 00               562 	ld	(hl), #0x00
   04C4 21rF7r00            563 	ld	hl, #(_TestMap + 0x0084)
   04C7 36 00               564 	ld	(hl), #0x00
   04C9 21rF8r00            565 	ld	hl, #(_TestMap + 0x0085)
   04CC 36 00               566 	ld	(hl), #0x00
   04CE 21rF9r00            567 	ld	hl, #(_TestMap + 0x0086)
   04D1 36 00               568 	ld	(hl), #0x00
   04D3 21rFAr00            569 	ld	hl, #(_TestMap + 0x0087)
   04D6 36 00               570 	ld	(hl), #0x00
   04D8 21rFBr00            571 	ld	hl, #(_TestMap + 0x0088)
   04DB 36 00               572 	ld	(hl), #0x00
   04DD 21rFCr00            573 	ld	hl, #(_TestMap + 0x0089)
   04E0 36 00               574 	ld	(hl), #0x00
   04E2 21rFDr00            575 	ld	hl, #(_TestMap + 0x008a)
   04E5 36 00               576 	ld	(hl), #0x00
   04E7 21rFEr00            577 	ld	hl, #(_TestMap + 0x008b)
   04EA 36 01               578 	ld	(hl), #0x01
   04EC 21rFFr00            579 	ld	hl, #(_TestMap + 0x008c)
   04EF 36 01               580 	ld	(hl), #0x01
   04F1 21r00r01            581 	ld	hl, #(_TestMap + 0x008d)
   04F4 36 00               582 	ld	(hl), #0x00
   04F6 21r01r01            583 	ld	hl, #(_TestMap + 0x008e)
   04F9 36 00               584 	ld	(hl), #0x00
   04FB 21r02r01            585 	ld	hl, #(_TestMap + 0x008f)
   04FE 36 00               586 	ld	(hl), #0x00
   0500 21r03r01            587 	ld	hl, #(_TestMap + 0x0090)
   0503 36 00               588 	ld	(hl), #0x00
   0505 21r04r01            589 	ld	hl, #(_TestMap + 0x0091)
   0508 36 00               590 	ld	(hl), #0x00
   050A 21r05r01            591 	ld	hl, #(_TestMap + 0x0092)
   050D 36 00               592 	ld	(hl), #0x00
   050F 21r06r01            593 	ld	hl, #(_TestMap + 0x0093)
   0512 36 00               594 	ld	(hl), #0x00
   0514 21r07r01            595 	ld	hl, #(_TestMap + 0x0094)
   0517 36 00               596 	ld	(hl), #0x00
   0519 21r08r01            597 	ld	hl, #(_TestMap + 0x0095)
   051C 36 00               598 	ld	(hl), #0x00
   051E 21r09r01            599 	ld	hl, #(_TestMap + 0x0096)
   0521 36 00               600 	ld	(hl), #0x00
   0523 21r0Ar01            601 	ld	hl, #(_TestMap + 0x0097)
   0526 36 00               602 	ld	(hl), #0x00
   0528 21r0Br01            603 	ld	hl, #(_TestMap + 0x0098)
   052B 36 00               604 	ld	(hl), #0x00
   052D 21r0Cr01            605 	ld	hl, #(_TestMap + 0x0099)
   0530 36 00               606 	ld	(hl), #0x00
   0532 21r0Dr01            607 	ld	hl, #(_TestMap + 0x009a)
   0535 36 00               608 	ld	(hl), #0x00
   0537 21r0Er01            609 	ld	hl, #(_TestMap + 0x009b)
   053A 36 00               610 	ld	(hl), #0x00
   053C 21r0Fr01            611 	ld	hl, #(_TestMap + 0x009c)
   053F 36 00               612 	ld	(hl), #0x00
   0541 21r10r01            613 	ld	hl, #(_TestMap + 0x009d)
   0544 36 00               614 	ld	(hl), #0x00
   0546 21r11r01            615 	ld	hl, #(_TestMap + 0x009e)
   0549 36 00               616 	ld	(hl), #0x00
   054B 21r12r01            617 	ld	hl, #(_TestMap + 0x009f)
   054E 36 01               618 	ld	(hl), #0x01
   0550 21r13r01            619 	ld	hl, #(_TestMap + 0x00a0)
   0553 36 01               620 	ld	(hl), #0x01
   0555 21r14r01            621 	ld	hl, #(_TestMap + 0x00a1)
   0558 36 00               622 	ld	(hl), #0x00
   055A 21r15r01            623 	ld	hl, #(_TestMap + 0x00a2)
   055D 36 00               624 	ld	(hl), #0x00
   055F 21r16r01            625 	ld	hl, #(_TestMap + 0x00a3)
   0562 36 00               626 	ld	(hl), #0x00
   0564 21r17r01            627 	ld	hl, #(_TestMap + 0x00a4)
   0567 36 00               628 	ld	(hl), #0x00
   0569 21r18r01            629 	ld	hl, #(_TestMap + 0x00a5)
   056C 36 00               630 	ld	(hl), #0x00
   056E 21r19r01            631 	ld	hl, #(_TestMap + 0x00a6)
   0571 36 00               632 	ld	(hl), #0x00
   0573 21r1Ar01            633 	ld	hl, #(_TestMap + 0x00a7)
   0576 36 00               634 	ld	(hl), #0x00
   0578 21r1Br01            635 	ld	hl, #(_TestMap + 0x00a8)
   057B 36 00               636 	ld	(hl), #0x00
   057D 21r1Cr01            637 	ld	hl, #(_TestMap + 0x00a9)
   0580 36 00               638 	ld	(hl), #0x00
   0582 21r1Dr01            639 	ld	hl, #(_TestMap + 0x00aa)
   0585 36 00               640 	ld	(hl), #0x00
   0587 21r1Er01            641 	ld	hl, #(_TestMap + 0x00ab)
   058A 36 00               642 	ld	(hl), #0x00
   058C 21r1Fr01            643 	ld	hl, #(_TestMap + 0x00ac)
   058F 36 00               644 	ld	(hl), #0x00
   0591 21r20r01            645 	ld	hl, #(_TestMap + 0x00ad)
   0594 36 00               646 	ld	(hl), #0x00
   0596 21r21r01            647 	ld	hl, #(_TestMap + 0x00ae)
   0599 36 00               648 	ld	(hl), #0x00
   059B 21r22r01            649 	ld	hl, #(_TestMap + 0x00af)
   059E 36 00               650 	ld	(hl), #0x00
   05A0 21r23r01            651 	ld	hl, #(_TestMap + 0x00b0)
   05A3 36 00               652 	ld	(hl), #0x00
   05A5 21r24r01            653 	ld	hl, #(_TestMap + 0x00b1)
   05A8 36 00               654 	ld	(hl), #0x00
   05AA 21r25r01            655 	ld	hl, #(_TestMap + 0x00b2)
   05AD 36 00               656 	ld	(hl), #0x00
   05AF 21r26r01            657 	ld	hl, #(_TestMap + 0x00b3)
   05B2 36 01               658 	ld	(hl), #0x01
   05B4 21r27r01            659 	ld	hl, #(_TestMap + 0x00b4)
   05B7 36 01               660 	ld	(hl), #0x01
   05B9 21r28r01            661 	ld	hl, #(_TestMap + 0x00b5)
   05BC 36 00               662 	ld	(hl), #0x00
   05BE 21r29r01            663 	ld	hl, #(_TestMap + 0x00b6)
   05C1 36 00               664 	ld	(hl), #0x00
   05C3 21r2Ar01            665 	ld	hl, #(_TestMap + 0x00b7)
   05C6 36 00               666 	ld	(hl), #0x00
   05C8 21r2Br01            667 	ld	hl, #(_TestMap + 0x00b8)
   05CB 36 00               668 	ld	(hl), #0x00
   05CD 21r2Cr01            669 	ld	hl, #(_TestMap + 0x00b9)
   05D0 36 00               670 	ld	(hl), #0x00
   05D2 21r2Dr01            671 	ld	hl, #(_TestMap + 0x00ba)
   05D5 36 00               672 	ld	(hl), #0x00
   05D7 21r2Er01            673 	ld	hl, #(_TestMap + 0x00bb)
   05DA 36 00               674 	ld	(hl), #0x00
   05DC 21r2Fr01            675 	ld	hl, #(_TestMap + 0x00bc)
   05DF 36 00               676 	ld	(hl), #0x00
   05E1 21r30r01            677 	ld	hl, #(_TestMap + 0x00bd)
   05E4 36 00               678 	ld	(hl), #0x00
   05E6 21r31r01            679 	ld	hl, #(_TestMap + 0x00be)
   05E9 36 00               680 	ld	(hl), #0x00
   05EB 21r32r01            681 	ld	hl, #(_TestMap + 0x00bf)
   05EE 36 00               682 	ld	(hl), #0x00
   05F0 21r33r01            683 	ld	hl, #(_TestMap + 0x00c0)
   05F3 36 00               684 	ld	(hl), #0x00
   05F5 21r34r01            685 	ld	hl, #(_TestMap + 0x00c1)
   05F8 36 00               686 	ld	(hl), #0x00
   05FA 21r35r01            687 	ld	hl, #(_TestMap + 0x00c2)
   05FD 36 00               688 	ld	(hl), #0x00
   05FF 21r36r01            689 	ld	hl, #(_TestMap + 0x00c3)
   0602 36 00               690 	ld	(hl), #0x00
   0604 21r37r01            691 	ld	hl, #(_TestMap + 0x00c4)
   0607 36 00               692 	ld	(hl), #0x00
   0609 21r38r01            693 	ld	hl, #(_TestMap + 0x00c5)
   060C 36 00               694 	ld	(hl), #0x00
   060E 21r39r01            695 	ld	hl, #(_TestMap + 0x00c6)
   0611 36 00               696 	ld	(hl), #0x00
   0613 21r3Ar01            697 	ld	hl, #(_TestMap + 0x00c7)
   0616 36 01               698 	ld	(hl), #0x01
   0618 21r3Br01            699 	ld	hl, #(_TestMap + 0x00c8)
   061B 36 01               700 	ld	(hl), #0x01
   061D 21r3Cr01            701 	ld	hl, #(_TestMap + 0x00c9)
   0620 36 00               702 	ld	(hl), #0x00
   0622 21r3Dr01            703 	ld	hl, #(_TestMap + 0x00ca)
   0625 36 00               704 	ld	(hl), #0x00
   0627 21r3Er01            705 	ld	hl, #(_TestMap + 0x00cb)
   062A 36 00               706 	ld	(hl), #0x00
   062C 21r3Fr01            707 	ld	hl, #(_TestMap + 0x00cc)
   062F 36 00               708 	ld	(hl), #0x00
   0631 21r40r01            709 	ld	hl, #(_TestMap + 0x00cd)
   0634 36 00               710 	ld	(hl), #0x00
   0636 21r41r01            711 	ld	hl, #(_TestMap + 0x00ce)
   0639 36 00               712 	ld	(hl), #0x00
   063B 21r42r01            713 	ld	hl, #(_TestMap + 0x00cf)
   063E 36 00               714 	ld	(hl), #0x00
   0640 21r43r01            715 	ld	hl, #(_TestMap + 0x00d0)
   0643 36 00               716 	ld	(hl), #0x00
   0645 21r44r01            717 	ld	hl, #(_TestMap + 0x00d1)
   0648 36 00               718 	ld	(hl), #0x00
   064A 21r45r01            719 	ld	hl, #(_TestMap + 0x00d2)
   064D 36 00               720 	ld	(hl), #0x00
   064F 21r46r01            721 	ld	hl, #(_TestMap + 0x00d3)
   0652 36 00               722 	ld	(hl), #0x00
   0654 21r47r01            723 	ld	hl, #(_TestMap + 0x00d4)
   0657 36 00               724 	ld	(hl), #0x00
   0659 21r48r01            725 	ld	hl, #(_TestMap + 0x00d5)
   065C 36 00               726 	ld	(hl), #0x00
   065E 21r49r01            727 	ld	hl, #(_TestMap + 0x00d6)
   0661 36 00               728 	ld	(hl), #0x00
   0663 21r4Ar01            729 	ld	hl, #(_TestMap + 0x00d7)
   0666 36 00               730 	ld	(hl), #0x00
   0668 21r4Br01            731 	ld	hl, #(_TestMap + 0x00d8)
   066B 36 00               732 	ld	(hl), #0x00
   066D 21r4Cr01            733 	ld	hl, #(_TestMap + 0x00d9)
   0670 36 00               734 	ld	(hl), #0x00
   0672 21r4Dr01            735 	ld	hl, #(_TestMap + 0x00da)
   0675 36 00               736 	ld	(hl), #0x00
   0677 21r4Er01            737 	ld	hl, #(_TestMap + 0x00db)
   067A 36 01               738 	ld	(hl), #0x01
   067C 21r4Fr01            739 	ld	hl, #(_TestMap + 0x00dc)
   067F 36 01               740 	ld	(hl), #0x01
   0681 21r50r01            741 	ld	hl, #(_TestMap + 0x00dd)
   0684 36 00               742 	ld	(hl), #0x00
   0686 21r51r01            743 	ld	hl, #(_TestMap + 0x00de)
   0689 36 00               744 	ld	(hl), #0x00
   068B 21r52r01            745 	ld	hl, #(_TestMap + 0x00df)
   068E 36 00               746 	ld	(hl), #0x00
   0690 21r53r01            747 	ld	hl, #(_TestMap + 0x00e0)
   0693 36 00               748 	ld	(hl), #0x00
   0695 21r54r01            749 	ld	hl, #(_TestMap + 0x00e1)
   0698 36 00               750 	ld	(hl), #0x00
   069A 21r55r01            751 	ld	hl, #(_TestMap + 0x00e2)
   069D 36 00               752 	ld	(hl), #0x00
   069F 21r56r01            753 	ld	hl, #(_TestMap + 0x00e3)
   06A2 36 00               754 	ld	(hl), #0x00
   06A4 21r57r01            755 	ld	hl, #(_TestMap + 0x00e4)
   06A7 36 00               756 	ld	(hl), #0x00
   06A9 21r58r01            757 	ld	hl, #(_TestMap + 0x00e5)
   06AC 36 00               758 	ld	(hl), #0x00
   06AE 21r59r01            759 	ld	hl, #(_TestMap + 0x00e6)
   06B1 36 00               760 	ld	(hl), #0x00
   06B3 21r5Ar01            761 	ld	hl, #(_TestMap + 0x00e7)
   06B6 36 00               762 	ld	(hl), #0x00
   06B8 21r5Br01            763 	ld	hl, #(_TestMap + 0x00e8)
   06BB 36 00               764 	ld	(hl), #0x00
   06BD 21r5Cr01            765 	ld	hl, #(_TestMap + 0x00e9)
   06C0 36 00               766 	ld	(hl), #0x00
   06C2 21r5Dr01            767 	ld	hl, #(_TestMap + 0x00ea)
   06C5 36 00               768 	ld	(hl), #0x00
   06C7 21r5Er01            769 	ld	hl, #(_TestMap + 0x00eb)
   06CA 36 00               770 	ld	(hl), #0x00
   06CC 21r5Fr01            771 	ld	hl, #(_TestMap + 0x00ec)
   06CF 36 00               772 	ld	(hl), #0x00
   06D1 21r60r01            773 	ld	hl, #(_TestMap + 0x00ed)
   06D4 36 00               774 	ld	(hl), #0x00
   06D6 21r61r01            775 	ld	hl, #(_TestMap + 0x00ee)
   06D9 36 00               776 	ld	(hl), #0x00
   06DB 21r62r01            777 	ld	hl, #(_TestMap + 0x00ef)
   06DE 36 01               778 	ld	(hl), #0x01
   06E0 21r63r01            779 	ld	hl, #(_TestMap + 0x00f0)
   06E3 36 01               780 	ld	(hl), #0x01
   06E5 21r64r01            781 	ld	hl, #(_TestMap + 0x00f1)
   06E8 36 00               782 	ld	(hl), #0x00
   06EA 21r65r01            783 	ld	hl, #(_TestMap + 0x00f2)
   06ED 36 00               784 	ld	(hl), #0x00
   06EF 21r66r01            785 	ld	hl, #(_TestMap + 0x00f3)
   06F2 36 00               786 	ld	(hl), #0x00
   06F4 21r67r01            787 	ld	hl, #(_TestMap + 0x00f4)
   06F7 36 00               788 	ld	(hl), #0x00
   06F9 21r68r01            789 	ld	hl, #(_TestMap + 0x00f5)
   06FC 36 00               790 	ld	(hl), #0x00
   06FE 21r69r01            791 	ld	hl, #(_TestMap + 0x00f6)
   0701 36 00               792 	ld	(hl), #0x00
   0703 21r6Ar01            793 	ld	hl, #(_TestMap + 0x00f7)
   0706 36 00               794 	ld	(hl), #0x00
   0708 21r6Br01            795 	ld	hl, #(_TestMap + 0x00f8)
   070B 36 00               796 	ld	(hl), #0x00
   070D 21r6Cr01            797 	ld	hl, #(_TestMap + 0x00f9)
   0710 36 00               798 	ld	(hl), #0x00
   0712 21r6Dr01            799 	ld	hl, #(_TestMap + 0x00fa)
   0715 36 00               800 	ld	(hl), #0x00
   0717 21r6Er01            801 	ld	hl, #(_TestMap + 0x00fb)
   071A 36 00               802 	ld	(hl), #0x00
   071C 21r6Fr01            803 	ld	hl, #(_TestMap + 0x00fc)
   071F 36 00               804 	ld	(hl), #0x00
   0721 21r70r01            805 	ld	hl, #(_TestMap + 0x00fd)
   0724 36 00               806 	ld	(hl), #0x00
   0726 21r71r01            807 	ld	hl, #(_TestMap + 0x00fe)
   0729 36 00               808 	ld	(hl), #0x00
   072B 21r72r01            809 	ld	hl, #(_TestMap + 0x00ff)
   072E 36 00               810 	ld	(hl), #0x00
   0730 21r73r01            811 	ld	hl, #(_TestMap + 0x0100)
   0733 36 00               812 	ld	(hl), #0x00
   0735 21r74r01            813 	ld	hl, #(_TestMap + 0x0101)
   0738 36 00               814 	ld	(hl), #0x00
   073A 21r75r01            815 	ld	hl, #(_TestMap + 0x0102)
   073D 36 00               816 	ld	(hl), #0x00
   073F 21r76r01            817 	ld	hl, #(_TestMap + 0x0103)
   0742 36 01               818 	ld	(hl), #0x01
   0744 21r77r01            819 	ld	hl, #(_TestMap + 0x0104)
   0747 36 01               820 	ld	(hl), #0x01
   0749 21r78r01            821 	ld	hl, #(_TestMap + 0x0105)
   074C 36 00               822 	ld	(hl), #0x00
   074E 21r79r01            823 	ld	hl, #(_TestMap + 0x0106)
   0751 36 00               824 	ld	(hl), #0x00
   0753 21r7Ar01            825 	ld	hl, #(_TestMap + 0x0107)
   0756 36 00               826 	ld	(hl), #0x00
   0758 21r7Br01            827 	ld	hl, #(_TestMap + 0x0108)
   075B 36 00               828 	ld	(hl), #0x00
   075D 21r7Cr01            829 	ld	hl, #(_TestMap + 0x0109)
   0760 36 00               830 	ld	(hl), #0x00
   0762 21r7Dr01            831 	ld	hl, #(_TestMap + 0x010a)
   0765 36 00               832 	ld	(hl), #0x00
   0767 21r7Er01            833 	ld	hl, #(_TestMap + 0x010b)
   076A 36 00               834 	ld	(hl), #0x00
   076C 21r7Fr01            835 	ld	hl, #(_TestMap + 0x010c)
   076F 36 00               836 	ld	(hl), #0x00
   0771 21r80r01            837 	ld	hl, #(_TestMap + 0x010d)
   0774 36 00               838 	ld	(hl), #0x00
   0776 21r81r01            839 	ld	hl, #(_TestMap + 0x010e)
   0779 36 00               840 	ld	(hl), #0x00
   077B 21r82r01            841 	ld	hl, #(_TestMap + 0x010f)
   077E 36 00               842 	ld	(hl), #0x00
   0780 21r83r01            843 	ld	hl, #(_TestMap + 0x0110)
   0783 36 00               844 	ld	(hl), #0x00
   0785 21r84r01            845 	ld	hl, #(_TestMap + 0x0111)
   0788 36 00               846 	ld	(hl), #0x00
   078A 21r85r01            847 	ld	hl, #(_TestMap + 0x0112)
   078D 36 00               848 	ld	(hl), #0x00
   078F 21r86r01            849 	ld	hl, #(_TestMap + 0x0113)
   0792 36 00               850 	ld	(hl), #0x00
   0794 21r87r01            851 	ld	hl, #(_TestMap + 0x0114)
   0797 36 00               852 	ld	(hl), #0x00
   0799 21r88r01            853 	ld	hl, #(_TestMap + 0x0115)
   079C 36 00               854 	ld	(hl), #0x00
   079E 21r89r01            855 	ld	hl, #(_TestMap + 0x0116)
   07A1 36 00               856 	ld	(hl), #0x00
   07A3 21r8Ar01            857 	ld	hl, #(_TestMap + 0x0117)
   07A6 36 01               858 	ld	(hl), #0x01
   07A8 21r8Br01            859 	ld	hl, #(_TestMap + 0x0118)
   07AB 36 01               860 	ld	(hl), #0x01
   07AD 21r8Cr01            861 	ld	hl, #(_TestMap + 0x0119)
   07B0 36 00               862 	ld	(hl), #0x00
   07B2 21r8Dr01            863 	ld	hl, #(_TestMap + 0x011a)
   07B5 36 00               864 	ld	(hl), #0x00
   07B7 21r8Er01            865 	ld	hl, #(_TestMap + 0x011b)
   07BA 36 00               866 	ld	(hl), #0x00
   07BC 21r8Fr01            867 	ld	hl, #(_TestMap + 0x011c)
   07BF 36 00               868 	ld	(hl), #0x00
   07C1 21r90r01            869 	ld	hl, #(_TestMap + 0x011d)
   07C4 36 00               870 	ld	(hl), #0x00
   07C6 21r91r01            871 	ld	hl, #(_TestMap + 0x011e)
   07C9 36 00               872 	ld	(hl), #0x00
   07CB 21r92r01            873 	ld	hl, #(_TestMap + 0x011f)
   07CE 36 00               874 	ld	(hl), #0x00
   07D0 21r93r01            875 	ld	hl, #(_TestMap + 0x0120)
   07D3 36 00               876 	ld	(hl), #0x00
   07D5 21r94r01            877 	ld	hl, #(_TestMap + 0x0121)
   07D8 36 00               878 	ld	(hl), #0x00
   07DA 21r95r01            879 	ld	hl, #(_TestMap + 0x0122)
   07DD 36 00               880 	ld	(hl), #0x00
   07DF 21r96r01            881 	ld	hl, #(_TestMap + 0x0123)
   07E2 36 00               882 	ld	(hl), #0x00
   07E4 21r97r01            883 	ld	hl, #(_TestMap + 0x0124)
   07E7 36 00               884 	ld	(hl), #0x00
   07E9 21r98r01            885 	ld	hl, #(_TestMap + 0x0125)
   07EC 36 00               886 	ld	(hl), #0x00
   07EE 21r99r01            887 	ld	hl, #(_TestMap + 0x0126)
   07F1 36 00               888 	ld	(hl), #0x00
   07F3 21r9Ar01            889 	ld	hl, #(_TestMap + 0x0127)
   07F6 36 00               890 	ld	(hl), #0x00
   07F8 21r9Br01            891 	ld	hl, #(_TestMap + 0x0128)
   07FB 36 00               892 	ld	(hl), #0x00
   07FD 21r9Cr01            893 	ld	hl, #(_TestMap + 0x0129)
   0800 36 00               894 	ld	(hl), #0x00
   0802 21r9Dr01            895 	ld	hl, #(_TestMap + 0x012a)
   0805 36 00               896 	ld	(hl), #0x00
   0807 21r9Er01            897 	ld	hl, #(_TestMap + 0x012b)
   080A 36 01               898 	ld	(hl), #0x01
   080C 21r9Fr01            899 	ld	hl, #(_TestMap + 0x012c)
   080F 36 01               900 	ld	(hl), #0x01
   0811 21rA0r01            901 	ld	hl, #(_TestMap + 0x012d)
   0814 36 01               902 	ld	(hl), #0x01
   0816 21rA1r01            903 	ld	hl, #(_TestMap + 0x012e)
   0819 36 01               904 	ld	(hl), #0x01
   081B 21rA2r01            905 	ld	hl, #(_TestMap + 0x012f)
   081E 36 01               906 	ld	(hl), #0x01
   0820 21rA3r01            907 	ld	hl, #(_TestMap + 0x0130)
   0823 36 01               908 	ld	(hl), #0x01
   0825 21rA4r01            909 	ld	hl, #(_TestMap + 0x0131)
   0828 36 01               910 	ld	(hl), #0x01
   082A 21rA5r01            911 	ld	hl, #(_TestMap + 0x0132)
   082D 36 01               912 	ld	(hl), #0x01
   082F 21rA6r01            913 	ld	hl, #(_TestMap + 0x0133)
   0832 36 01               914 	ld	(hl), #0x01
   0834 21rA7r01            915 	ld	hl, #(_TestMap + 0x0134)
   0837 36 03               916 	ld	(hl), #0x03
   0839 21rA8r01            917 	ld	hl, #(_TestMap + 0x0135)
   083C 36 03               918 	ld	(hl), #0x03
   083E 21rA9r01            919 	ld	hl, #(_TestMap + 0x0136)
   0841 36 03               920 	ld	(hl), #0x03
   0843 21rAAr01            921 	ld	hl, #(_TestMap + 0x0137)
   0846 36 01               922 	ld	(hl), #0x01
   0848 21rABr01            923 	ld	hl, #(_TestMap + 0x0138)
   084B 36 01               924 	ld	(hl), #0x01
   084D 21rACr01            925 	ld	hl, #(_TestMap + 0x0139)
   0850 36 01               926 	ld	(hl), #0x01
   0852 21rADr01            927 	ld	hl, #(_TestMap + 0x013a)
   0855 36 01               928 	ld	(hl), #0x01
   0857 21rAEr01            929 	ld	hl, #(_TestMap + 0x013b)
   085A 36 01               930 	ld	(hl), #0x01
   085C 21rAFr01            931 	ld	hl, #(_TestMap + 0x013c)
   085F 36 01               932 	ld	(hl), #0x01
   0861 21rB0r01            933 	ld	hl, #(_TestMap + 0x013d)
   0864 36 01               934 	ld	(hl), #0x01
   0866 21rB1r01            935 	ld	hl, #(_TestMap + 0x013e)
   0869 36 01               936 	ld	(hl), #0x01
   086B 21rB2r01            937 	ld	hl, #(_TestMap + 0x013f)
   086E 36 01               938 	ld	(hl), #0x01
   0870 21rB3r01            939 	ld	hl, #(_TestMap + 0x0140)
   0873 36 02               940 	ld	(hl), #0x02
   0875 21rB4r01            941 	ld	hl, #(_TestMap + 0x0141)
   0878 36 02               942 	ld	(hl), #0x02
   087A 21rB5r01            943 	ld	hl, #(_TestMap + 0x0142)
   087D 36 02               944 	ld	(hl), #0x02
   087F 21rB6r01            945 	ld	hl, #(_TestMap + 0x0143)
   0882 36 02               946 	ld	(hl), #0x02
   0884 21rB7r01            947 	ld	hl, #(_TestMap + 0x0144)
   0887 36 02               948 	ld	(hl), #0x02
   0889 21rB8r01            949 	ld	hl, #(_TestMap + 0x0145)
   088C 36 02               950 	ld	(hl), #0x02
   088E 21rB9r01            951 	ld	hl, #(_TestMap + 0x0146)
   0891 36 02               952 	ld	(hl), #0x02
   0893 21rBAr01            953 	ld	hl, #(_TestMap + 0x0147)
   0896 36 02               954 	ld	(hl), #0x02
   0898 21rBBr01            955 	ld	hl, #(_TestMap + 0x0148)
   089B 36 02               956 	ld	(hl), #0x02
   089D 21rBCr01            957 	ld	hl, #(_TestMap + 0x0149)
   08A0 36 02               958 	ld	(hl), #0x02
   08A2 21rBDr01            959 	ld	hl, #(_TestMap + 0x014a)
   08A5 36 02               960 	ld	(hl), #0x02
   08A7 21rBEr01            961 	ld	hl, #(_TestMap + 0x014b)
   08AA 36 02               962 	ld	(hl), #0x02
   08AC 21rBFr01            963 	ld	hl, #(_TestMap + 0x014c)
   08AF 36 02               964 	ld	(hl), #0x02
   08B1 21rC0r01            965 	ld	hl, #(_TestMap + 0x014d)
   08B4 36 02               966 	ld	(hl), #0x02
   08B6 21rC1r01            967 	ld	hl, #(_TestMap + 0x014e)
   08B9 36 02               968 	ld	(hl), #0x02
   08BB 21rC2r01            969 	ld	hl, #(_TestMap + 0x014f)
   08BE 36 02               970 	ld	(hl), #0x02
   08C0 21rC3r01            971 	ld	hl, #(_TestMap + 0x0150)
   08C3 36 02               972 	ld	(hl), #0x02
   08C5 21rC4r01            973 	ld	hl, #(_TestMap + 0x0151)
   08C8 36 02               974 	ld	(hl), #0x02
   08CA 21rC5r01            975 	ld	hl, #(_TestMap + 0x0152)
   08CD 36 02               976 	ld	(hl), #0x02
   08CF 21rC6r01            977 	ld	hl, #(_TestMap + 0x0153)
   08D2 36 02               978 	ld	(hl), #0x02
   08D4 21rC7r01            979 	ld	hl, #(_TestMap + 0x0154)
   08D7 36 02               980 	ld	(hl), #0x02
   08D9 21rC8r01            981 	ld	hl, #(_TestMap + 0x0155)
   08DC 36 02               982 	ld	(hl), #0x02
   08DE 21rC9r01            983 	ld	hl, #(_TestMap + 0x0156)
   08E1 36 02               984 	ld	(hl), #0x02
   08E3 21rCAr01            985 	ld	hl, #(_TestMap + 0x0157)
   08E6 36 02               986 	ld	(hl), #0x02
   08E8 21rCBr01            987 	ld	hl, #(_TestMap + 0x0158)
   08EB 36 02               988 	ld	(hl), #0x02
   08ED 21rCCr01            989 	ld	hl, #(_TestMap + 0x0159)
   08F0 36 02               990 	ld	(hl), #0x02
   08F2 21rCDr01            991 	ld	hl, #(_TestMap + 0x015a)
   08F5 36 02               992 	ld	(hl), #0x02
   08F7 21rCEr01            993 	ld	hl, #(_TestMap + 0x015b)
   08FA 36 02               994 	ld	(hl), #0x02
   08FC 21rCFr01            995 	ld	hl, #(_TestMap + 0x015c)
   08FF 36 02               996 	ld	(hl), #0x02
   0901 21rD0r01            997 	ld	hl, #(_TestMap + 0x015d)
   0904 36 02               998 	ld	(hl), #0x02
   0906 21rD1r01            999 	ld	hl, #(_TestMap + 0x015e)
   0909 36 02              1000 	ld	(hl), #0x02
   090B 21rD2r01           1001 	ld	hl, #(_TestMap + 0x015f)
   090E 36 02              1002 	ld	(hl), #0x02
   0910 21rD3r01           1003 	ld	hl, #(_TestMap + 0x0160)
   0913 36 02              1004 	ld	(hl), #0x02
   0915 21rD4r01           1005 	ld	hl, #(_TestMap + 0x0161)
   0918 36 02              1006 	ld	(hl), #0x02
   091A 21rD5r01           1007 	ld	hl, #(_TestMap + 0x0162)
   091D 36 02              1008 	ld	(hl), #0x02
   091F 21rD6r01           1009 	ld	hl, #(_TestMap + 0x0163)
   0922 36 02              1010 	ld	(hl), #0x02
   0924 21rD7r01           1011 	ld	hl, #(_TestMap + 0x0164)
   0927 36 02              1012 	ld	(hl), #0x02
   0929 21rD8r01           1013 	ld	hl, #(_TestMap + 0x0165)
   092C 36 02              1014 	ld	(hl), #0x02
   092E 21rD9r01           1015 	ld	hl, #(_TestMap + 0x0166)
   0931 36 02              1016 	ld	(hl), #0x02
   0933 21rDAr01           1017 	ld	hl, #(_TestMap + 0x0167)
   0936 36 02              1018 	ld	(hl), #0x02
                           1019 ;d:/Programming/C++/GameBoyJam/gbdk/include/gb/bgb_emu.h:42: static void * __BGB_PROFILER_INIT = &BGB_profiler_message;
   0938 21rDBr01           1020 	ld	hl, #___BGB_PROFILER_INIT
   093B 36r00              1021 	ld	(hl), #<(_BGB_profiler_message)
   093D 23                 1022 	inc	hl
   093E 36s00              1023 	ld	(hl), #>(_BGB_profiler_message)
                           1024 ;./src/main.c:72: static UINT8 GRAVITY = 1;
   0940 21rDDr03           1025 	ld	hl, #_GRAVITY
   0943 36 01              1026 	ld	(hl), #0x01
                           1027 ;./src/main.c:73: UINT8 gravity_time = 0;
   0945 21rDEr03           1028 	ld	hl, #_gravity_time
   0948 36 00              1029 	ld	(hl), #0x00
                           1030 ;--------------------------------------------------------
                           1031 ; Home
                           1032 ;--------------------------------------------------------
                           1033 	.area _HOME
                           1034 	.area _HOME
                           1035 ;--------------------------------------------------------
                           1036 ; code
                           1037 ;--------------------------------------------------------
                           1038 	.area _CODE
                           1039 ;./src/../src/input.c:92: static void joypad_wait (UINT8 buttons)
                           1040 ;	---------------------------------
                           1041 ; Function joypad_wait
                           1042 ; ---------------------------------
   0000                    1043 _joypad_wait:
                           1044 ;./src/../src/input.c:94: while (TRUE) {
   0000                    1045 00108$:
                           1046 ;./src/../src/input.c:95: UPDATE_JOYPAD_STATE;
   0000 E5                 1047 	push	hl
   0001 21r31r00           1048 	ld	hl, #_joypad_curr_state
   0004 7E                 1049 	ld	a, (hl)
   0005 21r30r00           1050 	ld	hl, #_joypad_prev_state
   0008 77                 1051 	ld	(hl), a
   0009 E1                 1052 	pop	hl
   000A CDr00r00           1053 	call	_joypad
   000D 21r31r00           1054 	ld	hl, #_joypad_curr_state
   0010 73                 1055 	ld	(hl), e
                           1056 ;./src/../src/input.c:96: if (JOYPAD_PRESSED(buttons)) {
   0011 21r30r00           1057 	ld	hl, #_joypad_prev_state
   0014 7E                 1058 	ld	a, (hl)
   0015 F8 02              1059 	ldhl	sp,	#2
   0017 A6                 1060 	and	a,(hl)
   0018 20 08              1061 	jr	NZ,00105$
   001A 21r31r00           1062 	ld	hl, #_joypad_curr_state
   001D 7E                 1063 	ld	a, (hl)
   001E F8 02              1064 	ldhl	sp,	#2
   0020 A6                 1065 	and	a,(hl)
   0021 C0                 1066 	ret	NZ
                           1067 ;./src/../src/input.c:97: break;
   0022                    1068 00105$:
                           1069 ;./src/../src/input.c:99: wait_vbl_done();
   0022 CDr00r00           1070 	call	_wait_vbl_done
   0025 18 D9              1071 	jr	00108$
                           1072 ;./src/../src/input.c:101: }
   0027 C9                 1073 	ret
                           1074 ;./src/../src/input.c:104: static bool joypad_waittimeout (UINT8 buttons, UINT8 timeout)
                           1075 ;	---------------------------------
                           1076 ; Function joypad_waittimeout
                           1077 ; ---------------------------------
   0028                    1078 _joypad_waittimeout:
                           1079 ;./src/../src/input.c:106: for (input_timer=0; input_timer<timeout; ++input_timer) {
   0028 21r32r00           1080 	ld	hl, #_input_timer
   002B 36 00              1081 	ld	(hl), #0x00
   002D                    1082 00109$:
   002D 21r32r00           1083 	ld	hl, #_input_timer
   0030 7E                 1084 	ld	a, (hl)
   0031 F8 03              1085 	ldhl	sp,	#3
   0033 96                 1086 	sub	a, (hl)
   0034 30 2F              1087 	jr	NC,00107$
                           1088 ;./src/../src/input.c:107: UPDATE_JOYPAD_STATE;
   0036 E5                 1089 	push	hl
   0037 21r31r00           1090 	ld	hl, #_joypad_curr_state
   003A 7E                 1091 	ld	a, (hl)
   003B 21r30r00           1092 	ld	hl, #_joypad_prev_state
   003E 77                 1093 	ld	(hl), a
   003F E1                 1094 	pop	hl
   0040 CDr00r00           1095 	call	_joypad
   0043 21r31r00           1096 	ld	hl, #_joypad_curr_state
   0046 73                 1097 	ld	(hl), e
                           1098 ;./src/../src/input.c:108: if (JOYPAD_PRESSED(buttons)) {
   0047 21r30r00           1099 	ld	hl, #_joypad_prev_state
   004A 7E                 1100 	ld	a, (hl)
   004B F8 02              1101 	ldhl	sp,	#2
   004D A6                 1102 	and	a,(hl)
   004E 20 0C              1103 	jr	NZ,00105$
   0050 21r31r00           1104 	ld	hl, #_joypad_curr_state
   0053 7E                 1105 	ld	a, (hl)
   0054 F8 02              1106 	ldhl	sp,	#2
   0056 A6                 1107 	and	a,(hl)
   0057 28 03              1108 	jr	Z,00105$
                           1109 ;./src/../src/input.c:109: return TRUE;
   0059 1E 01              1110 	ld	e, #0x01
   005B C9                 1111 	ret
   005C                    1112 00105$:
                           1113 ;./src/../src/input.c:111: wait_vbl_done();
   005C CDr00r00           1114 	call	_wait_vbl_done
                           1115 ;./src/../src/input.c:106: for (input_timer=0; input_timer<timeout; ++input_timer) {
   005F 21r32r00           1116 	ld	hl, #_input_timer
   0062 34                 1117 	inc	(hl)
   0063 18 C8              1118 	jr	00109$
   0065                    1119 00107$:
                           1120 ;./src/../src/input.c:113: return FALSE;
   0065 1E 00              1121 	ld	e, #0x00
                           1122 ;./src/../src/input.c:114: }
   0067 C9                 1123 	ret
                           1124 ;./src/main.c:13: void performantdelay(UINT8 numloops){
                           1125 ;	---------------------------------
                           1126 ; Function performantdelay
                           1127 ; ---------------------------------
   0068                    1128 _performantdelay::
                           1129 ;./src/main.c:15: for(i = 0; i < numloops; i++){
   0068 0E 00              1130 	ld	c, #0x00
   006A                    1131 00103$:
   006A 79                 1132 	ld	a, c
   006B F8 02              1133 	ldhl	sp,	#2
   006D 96                 1134 	sub	a, (hl)
   006E D0                 1135 	ret	NC
                           1136 ;./src/main.c:16: wait_vbl_done();
   006F C5                 1137 	push	bc
   0070 CDr00r00           1138 	call	_wait_vbl_done
   0073 C1                 1139 	pop	bc
                           1140 ;./src/main.c:15: for(i = 0; i < numloops; i++){
   0074 0C                 1141 	inc	c
   0075 18 F3              1142 	jr	00103$
                           1143 ;./src/main.c:18: }
   0077 C9                 1144 	ret
                           1145 ;./src/main.c:54: void draw(MSprite* sprite){
                           1146 ;	---------------------------------
                           1147 ; Function draw
                           1148 ; ---------------------------------
   0078                    1149 _draw::
   0078 E8 FB              1150 	add	sp, #-5
                           1151 ;./src/main.c:55: move_sprite(sprite->sprite_number, sprite->position.x, sprite->position.y);
   007A F8 07              1152 	ldhl	sp,#(8 - 1)
   007C 4E                 1153 	ld	c, (hl)
   007D 23                 1154 	inc	hl
   007E 46                 1155 	ld	b, (hl)
   007F 21 01 00           1156 	ld	hl, #0x0001
   0082 09                 1157 	add	hl, bc
   0083 33                 1158 	inc	sp
   0084 33                 1159 	inc	sp
   0085 E5                 1160 	push	hl
   0086 D1                 1161 	pop	de
   0087 D5                 1162 	push	de
   0088 1A                 1163 	ld	a,(de)
   0089 F8 03              1164 	ldhl	sp,	#3
   008B 77                 1165 	ld	(hl), a
   008C 0A                 1166 	ld	a, (bc)
   008D 23                 1167 	inc	hl
   008E 77                 1168 	ld	(hl), a
   008F 03                 1169 	inc	bc
   0090 03                 1170 	inc	bc
   0091 03                 1171 	inc	bc
   0092 03                 1172 	inc	bc
   0093 0A                 1173 	ld	a, (bc)
   0094 47                 1174 	ld	b, a
   0095 2B                 1175 	dec	hl
   0096 7E                 1176 	ld	a, (hl)
   0097 F5                 1177 	push	af
   0098 33                 1178 	inc	sp
   0099 23                 1179 	inc	hl
   009A 7E                 1180 	ld	a, (hl)
   009B F5                 1181 	push	af
   009C 33                 1182 	inc	sp
   009D C5                 1183 	push	bc
   009E 33                 1184 	inc	sp
   009F CDr00r00           1185 	call	_move_sprite
   00A2 E8 03              1186 	add	sp, #3
                           1187 ;./src/main.c:56: }
   00A4 E8 05              1188 	add	sp, #5
   00A6 C9                 1189 	ret
                           1190 ;./src/main.c:64: void next_animation(MSprite* sprite){
                           1191 ;	---------------------------------
                           1192 ; Function next_animation
                           1193 ; ---------------------------------
   00A7                    1194 _next_animation::
   00A7 E8 FB              1195 	add	sp, #-5
                           1196 ;./src/main.c:65: ++(sprite->animation_index);
   00A9 F8 07              1197 	ldhl	sp,	#7
   00AB 2A                 1198 	ld	a, (hl+)
   00AC 5E                 1199 	ld	e, (hl)
   00AD F8 00              1200 	ldhl	sp,	#0
   00AF 22                 1201 	ld	(hl+), a
   00B0 73                 1202 	ld	(hl), e
   00B1 C1                 1203 	pop	bc
   00B2 C5                 1204 	push	bc
   00B3 03                 1205 	inc	bc
   00B4 03                 1206 	inc	bc
   00B5 0A                 1207 	ld	a, (bc)
   00B6 3C                 1208 	inc	a
   00B7 23                 1209 	inc	hl
   00B8 77                 1210 	ld	(hl),a
   00B9 02                 1211 	ld	(bc), a
                           1212 ;./src/main.c:66: if(sprite->animation_index == sprite->max_animations){
   00BA D1                 1213 	pop	de
   00BB D5                 1214 	push	de
   00BC 21 03 00           1215 	ld	hl, #0x0003
   00BF 19                 1216 	add	hl, de
   00C0 7D                 1217 	ld	a, l
   00C1 54                 1218 	ld	d, h
   00C2 F8 03              1219 	ldhl	sp,	#3
   00C4 22                 1220 	ld	(hl+), a
   00C5 72                 1221 	ld	(hl), d
   00C6 2B                 1222 	dec	hl
   00C7 5E                 1223 	ld	e, (hl)
   00C8 23                 1224 	inc	hl
   00C9 56                 1225 	ld	d, (hl)
   00CA 1A                 1226 	ld	a,(de)
   00CB 32                 1227 	ld	(hl-), a
   00CC 2B                 1228 	dec	hl
   00CD 2A                 1229 	ld	a, (hl+)
   00CE 23                 1230 	inc	hl
   00CF 96                 1231 	sub	a, (hl)
   00D0 20 02              1232 	jr	NZ,00102$
                           1233 ;./src/main.c:67: sprite->animation_index = 0;
   00D2 AF                 1234 	xor	a, a
   00D3 02                 1235 	ld	(bc), a
   00D4                    1236 00102$:
                           1237 ;./src/main.c:69: set_sprite_tile(sprite->sprite_number, sprite->animation_index);
   00D4 0A                 1238 	ld	a, (bc)
   00D5 47                 1239 	ld	b, a
   00D6 D1                 1240 	pop	de
   00D7 D5                 1241 	push	de
   00D8 21 04 00           1242 	ld	hl, #0x0004
   00DB 19                 1243 	add	hl, de
   00DC 4D                 1244 	ld	c,l
   00DD 7C                 1245 	ld	a,h
   00DE 7E                 1246 	ld	a, (hl)
   00DF C5                 1247 	push	bc
   00E0 33                 1248 	inc	sp
   00E1 F5                 1249 	push	af
   00E2 33                 1250 	inc	sp
   00E3 CDr00r00           1251 	call	_set_sprite_tile
   00E6 E8 02              1252 	add	sp, #2
                           1253 ;./src/main.c:70: }
   00E8 E8 05              1254 	add	sp, #5
   00EA C9                 1255 	ret
                           1256 ;./src/main.c:74: void gravity(MSprite* sprite){
                           1257 ;	---------------------------------
                           1258 ; Function gravity
                           1259 ; ---------------------------------
   00EB                    1260 _gravity::
   00EB E8 FE              1261 	add	sp, #-2
                           1262 ;./src/main.c:76: if(sprite->col.direction.y != 1){
   00ED F8 04              1263 	ldhl	sp,#(5 - 1)
   00EF 4E                 1264 	ld	c, (hl)
   00F0 23                 1265 	inc	hl
   00F1 46                 1266 	ld	b, (hl)
   00F2 21 09 00           1267 	ld	hl, #0x0009
   00F5 09                 1268 	add	hl, bc
   00F6 33                 1269 	inc	sp
   00F7 33                 1270 	inc	sp
   00F8 E5                 1271 	push	hl
   00F9 D1                 1272 	pop	de
   00FA D5                 1273 	push	de
   00FB 1A                 1274 	ld	a,(de)
   00FC 3D                 1275 	dec	a
   00FD 28 0D              1276 	jr	Z,00103$
                           1277 ;./src/main.c:77: sprite->speed.y += GRAVITY;
   00FF 21 06 00           1278 	ld	hl, #0x0006
   0102 09                 1279 	add	hl, bc
   0103 4D                 1280 	ld	c, l
   0104 44                 1281 	ld	b, h
   0105 0A                 1282 	ld	a, (bc)
   0106 21rDDr03           1283 	ld	hl, #_GRAVITY
   0109 5E                 1284 	ld	e, (hl)
   010A 83                 1285 	add	a, e
   010B 02                 1286 	ld	(bc), a
   010C                    1287 00103$:
                           1288 ;./src/main.c:79: }
   010C E8 02              1289 	add	sp, #2
   010E C9                 1290 	ret
                           1291 ;./src/main.c:82: void update_position(MSprite* sprite){
                           1292 ;	---------------------------------
                           1293 ; Function update_position
                           1294 ; ---------------------------------
   010F                    1295 _update_position::
   010F E8 FD              1296 	add	sp, #-3
                           1297 ;./src/main.c:83: if(!(sprite->col.direction.x == -1 && sprite->speed.x < 0) &&
   0111 F8 05              1298 	ldhl	sp,	#5
   0113 2A                 1299 	ld	a, (hl+)
   0114 5E                 1300 	ld	e, (hl)
   0115 F8 00              1301 	ldhl	sp,	#0
   0117 22                 1302 	ld	(hl+), a
   0118 73                 1303 	ld	(hl), e
   0119 D1                 1304 	pop	de
   011A D5                 1305 	push	de
   011B 21 08 00           1306 	ld	hl, #0x0008
   011E 19                 1307 	add	hl, de
   011F 4D                 1308 	ld	c,l
   0120 7C                 1309 	ld	a,h
   0121 4E                 1310 	ld	c, (hl)
   0122 D1                 1311 	pop	de
   0123 D5                 1312 	push	de
   0124 21 05 00           1313 	ld	hl, #0x0005
   0127 19                 1314 	add	hl, de
   0128 45                 1315 	ld	b,l
   0129 7C                 1316 	ld	a,h
   012A 46                 1317 	ld	b, (hl)
   012B 79                 1318 	ld	a, c
   012C 3C                 1319 	inc	a
   012D 20 04              1320 	jr	NZ,00105$
   012F CB 78              1321 	bit	7, b
   0131 20 24              1322 	jr	NZ,00102$
   0133                    1323 00105$:
                           1324 ;./src/main.c:84: !(sprite->col.direction.x ==  1 && sprite->speed.x > 0)){
   0133 0D                 1325 	dec	c
   0134 20 19              1326 	jr	NZ,00101$
   0136 78                 1327 	ld	a, b
   0137 5F                 1328 	ld	e, a
   0138 3E 00              1329 	ld	a, #0x00
   013A 57                 1330 	ld	d, a
   013B AF                 1331 	xor	a, a
   013C 90                 1332 	sub	a, b
   013D CB 7B              1333 	bit	7, e
   013F 28 07              1334 	jr	Z,00137$
   0141 CB 7A              1335 	bit	7, d
   0143 20 08              1336 	jr	NZ,00138$
   0145 BF                 1337 	cp	a, a
   0146 18 05              1338 	jr	00138$
   0148                    1339 00137$:
   0148 CB 7A              1340 	bit	7, d
   014A 28 01              1341 	jr	Z,00138$
   014C 37                 1342 	scf
   014D                    1343 00138$:
   014D 38 08              1344 	jr	C,00102$
   014F                    1345 00101$:
                           1346 ;./src/main.c:85: sprite->position.x += sprite->speed.x;
   014F D1                 1347 	pop	de
   0150 D5                 1348 	push	de
   0151 1A                 1349 	ld	a,(de)
   0152 80                 1350 	add	a, b
   0153 4F                 1351 	ld	c, a
   0154 E1                 1352 	pop	hl
   0155 E5                 1353 	push	hl
   0156 71                 1354 	ld	(hl), c
   0157                    1355 00102$:
                           1356 ;./src/main.c:87: if(!(sprite->col.direction.y == -1 && sprite->speed.y < 0) &&
   0157 D1                 1357 	pop	de
   0158 D5                 1358 	push	de
   0159 21 09 00           1359 	ld	hl, #0x0009
   015C 19                 1360 	add	hl, de
   015D 4D                 1361 	ld	c,l
   015E 7C                 1362 	ld	a,h
   015F 4E                 1363 	ld	c, (hl)
   0160 D1                 1364 	pop	de
   0161 D5                 1365 	push	de
   0162 21 06 00           1366 	ld	hl, #0x0006
   0165 19                 1367 	add	hl, de
   0166 45                 1368 	ld	b,l
   0167 7C                 1369 	ld	a,h
   0168 7E                 1370 	ld	a, (hl)
   0169 F8 02              1371 	ldhl	sp,	#2
   016B 77                 1372 	ld	(hl), a
   016C 79                 1373 	ld	a, c
   016D 3C                 1374 	inc	a
   016E 20 07              1375 	jr	NZ,00110$
   0170 F8 02              1376 	ldhl	sp,	#2
   0172 7E                 1377 	ld	a, (hl)
   0173 CB 7F              1378 	bit	7, a
   0175 20 26              1379 	jr	NZ,00111$
   0177                    1380 00110$:
                           1381 ;./src/main.c:88: !(sprite->col.direction.y ==  1 && sprite->speed.y > 0)){
   0177 0D                 1382 	dec	c
   0178 20 1B              1383 	jr	NZ,00106$
   017A F8 02              1384 	ldhl	sp,	#2
   017C 7E                 1385 	ld	a, (hl)
   017D 5F                 1386 	ld	e, a
   017E 3E 00              1387 	ld	a, #0x00
   0180 57                 1388 	ld	d, a
   0181 AF                 1389 	xor	a, a
   0182 96                 1390 	sub	a, (hl)
   0183 CB 7B              1391 	bit	7, e
   0185 28 07              1392 	jr	Z,00143$
   0187 CB 7A              1393 	bit	7, d
   0189 20 08              1394 	jr	NZ,00144$
   018B BF                 1395 	cp	a, a
   018C 18 05              1396 	jr	00144$
   018E                    1397 00143$:
   018E CB 7A              1398 	bit	7, d
   0190 28 01              1399 	jr	Z,00144$
   0192 37                 1400 	scf
   0193                    1401 00144$:
   0193 38 08              1402 	jr	C,00111$
   0195                    1403 00106$:
                           1404 ;./src/main.c:89: sprite->position.y += sprite->speed.y;
   0195 C1                 1405 	pop	bc
   0196 C5                 1406 	push	bc
   0197 03                 1407 	inc	bc
   0198 0A                 1408 	ld	a, (bc)
   0199 F8 02              1409 	ldhl	sp,	#2
   019B 86                 1410 	add	a, (hl)
   019C 02                 1411 	ld	(bc), a
   019D                    1412 00111$:
                           1413 ;./src/main.c:91: }
   019D E8 03              1414 	add	sp, #3
   019F C9                 1415 	ret
                           1416 ;./src/main.c:93: void player_movement(MPlayer* player)
                           1417 ;	---------------------------------
                           1418 ; Function player_movement
                           1419 ; ---------------------------------
   01A0                    1420 _player_movement::
   01A0 E8 F7              1421 	add	sp, #-9
                           1422 ;./src/main.c:95: MVector movement_speed = {4, 4};
   01A2 F8 00              1423 	ldhl	sp,	#0
   01A4 4D                 1424 	ld	c, l
   01A5 44                 1425 	ld	b, h
   01A6 3E 04              1426 	ld	a, #0x04
   01A8 02                 1427 	ld	(bc), a
   01A9 F8 00              1428 	ldhl	sp,	#0
   01AB 4D                 1429 	ld	c, l
   01AC 44                 1430 	ld	b, h
   01AD 21 01 00           1431 	ld	hl, #0x0001
   01B0 09                 1432 	add	hl, bc
   01B1 7D                 1433 	ld	a, l
   01B2 54                 1434 	ld	d, h
   01B3 F8 02              1435 	ldhl	sp,	#2
   01B5 22                 1436 	ld	(hl+), a
   01B6 72                 1437 	ld	(hl), d
   01B7 2B                 1438 	dec	hl
   01B8 2A                 1439 	ld	a, (hl+)
   01B9 66                 1440 	ld	h, (hl)
   01BA 6F                 1441 	ld	l, a
   01BB 36 04              1442 	ld	(hl), #0x04
                           1443 ;./src/main.c:96: UPDATE_JOYPAD_STATE;
   01BD E5                 1444 	push	hl
   01BE 21r31r00           1445 	ld	hl, #_joypad_curr_state
   01C1 7E                 1446 	ld	a, (hl)
   01C2 21r30r00           1447 	ld	hl, #_joypad_prev_state
   01C5 77                 1448 	ld	(hl), a
   01C6 E1                 1449 	pop	hl
   01C7 C5                 1450 	push	bc
   01C8 CDr00r00           1451 	call	_joypad
   01CB C1                 1452 	pop	bc
   01CC 21r31r00           1453 	ld	hl, #_joypad_curr_state
   01CF 73                 1454 	ld	(hl), e
                           1455 ;./src/main.c:97: if(JOYPAD_DOWN_PAD_L){
   01D0 C5                 1456 	push	bc
   01D1 CDr00r00           1457 	call	_joypad
   01D4 F8 06              1458 	ldhl	sp,	#6
   01D6 73                 1459 	ld	(hl), e
   01D7 C1                 1460 	pop	bc
                           1461 ;./src/main.c:101: player->sprite.speed.x = -movement_speed.x;
   01D8 F8 0B              1462 	ldhl	sp,	#11
   01DA 2A                 1463 	ld	a, (hl+)
   01DB 5E                 1464 	ld	e, (hl)
   01DC F8 05              1465 	ldhl	sp,	#5
   01DE 22                 1466 	ld	(hl+), a
   01DF 73                 1467 	ld	(hl), e
   01E0 2B                 1468 	dec	hl
   01E1 5E                 1469 	ld	e, (hl)
   01E2 23                 1470 	inc	hl
   01E3 56                 1471 	ld	d, (hl)
   01E4 21 05 00           1472 	ld	hl, #0x0005
   01E7 19                 1473 	add	hl, de
   01E8 7D                 1474 	ld	a, l
   01E9 54                 1475 	ld	d, h
   01EA F8 07              1476 	ldhl	sp,	#7
   01EC 22                 1477 	ld	(hl+), a
   01ED 72                 1478 	ld	(hl), d
                           1479 ;./src/main.c:97: if(JOYPAD_DOWN_PAD_L){
   01EE F8 04              1480 	ldhl	sp,	#4
   01F0 CB 4E              1481 	bit	1, (hl)
   01F2 28 19              1482 	jr	Z,00116$
                           1483 ;./src/main.c:101: player->sprite.speed.x = -movement_speed.x;
   01F4 0A                 1484 	ld	a, (bc)
   01F5 4F                 1485 	ld	c, a
   01F6 AF                 1486 	xor	a, a
   01F7 91                 1487 	sub	a, c
   01F8 4F                 1488 	ld	c, a
   01F9 F8 07              1489 	ldhl	sp,	#7
   01FB 2A                 1490 	ld	a, (hl+)
   01FC 66                 1491 	ld	h, (hl)
   01FD 6F                 1492 	ld	l, a
   01FE 71                 1493 	ld	(hl), c
                           1494 ;./src/main.c:102: next_animation(&(player->sprite));
   01FF F8 05              1495 	ldhl	sp,	#5
   0201 2A                 1496 	ld	a, (hl+)
   0202 66                 1497 	ld	h, (hl)
   0203 6F                 1498 	ld	l, a
   0204 E5                 1499 	push	hl
   0205 CDrA7r00           1500 	call	_next_animation
   0208 E8 02              1501 	add	sp, #2
   020A C3r6Fr02           1502 	jp	00117$
   020D                    1503 00116$:
                           1504 ;./src/main.c:104: else if(JOYPAD_DOWN_PAD_R){
   020D C5                 1505 	push	bc
   020E CDr00r00           1506 	call	_joypad
   0211 7B                 1507 	ld	a, e
   0212 C1                 1508 	pop	bc
   0213 0F                 1509 	rrca
   0214 30 16              1510 	jr	NC,00113$
                           1511 ;./src/main.c:108: player->sprite.speed.x = movement_speed.x;
   0216 0A                 1512 	ld	a, (bc)
   0217 4F                 1513 	ld	c, a
   0218 F8 07              1514 	ldhl	sp,	#7
   021A 2A                 1515 	ld	a, (hl+)
   021B 66                 1516 	ld	h, (hl)
   021C 6F                 1517 	ld	l, a
   021D 71                 1518 	ld	(hl), c
                           1519 ;./src/main.c:109: next_animation(&(player->sprite));
   021E F8 05              1520 	ldhl	sp,	#5
   0220 2A                 1521 	ld	a, (hl+)
   0221 66                 1522 	ld	h, (hl)
   0222 6F                 1523 	ld	l, a
   0223 E5                 1524 	push	hl
   0224 CDrA7r00           1525 	call	_next_animation
   0227 E8 02              1526 	add	sp, #2
   0229 C3r6Fr02           1527 	jp	00117$
   022C                    1528 00113$:
                           1529 ;./src/main.c:112: else if(JOYPAD_UP_PAD_L && JOYPAD_UP_PAD_R){
   022C CDr00r00           1530 	call	_joypad
   022F CB 4B              1531 	bit	1, e
   0231 C2r6Fr02           1532 	jp	NZ,00117$
   0234 CDr00r00           1533 	call	_joypad
   0237 7B                 1534 	ld	a, e
   0238 0F                 1535 	rrca
   0239 DAr6Fr02           1536 	jp	C,00117$
                           1537 ;./src/main.c:114: if(player->sprite.speed.x < 0){
   023C F8 07              1538 	ldhl	sp,#(8 - 1)
   023E 5E                 1539 	ld	e, (hl)
   023F 23                 1540 	inc	hl
   0240 56                 1541 	ld	d, (hl)
   0241 1A                 1542 	ld	a,(de)
   0242 4F                 1543 	ld	c, a
   0243 CB 79              1544 	bit	7, c
   0245 28 08              1545 	jr	Z,00107$
                           1546 ;./src/main.c:115: player->sprite.speed.x += 1;
   0247 0C                 1547 	inc	c
   0248 2B                 1548 	dec	hl
   0249 2A                 1549 	ld	a, (hl+)
   024A 66                 1550 	ld	h, (hl)
   024B 6F                 1551 	ld	l, a
   024C 71                 1552 	ld	(hl), c
   024D 18 20              1553 	jr	00117$
   024F                    1554 00107$:
                           1555 ;./src/main.c:117: else if(player->sprite.speed.x > 0){
   024F 79                 1556 	ld	a, c
   0250 5F                 1557 	ld	e, a
   0251 3E 00              1558 	ld	a, #0x00
   0253 57                 1559 	ld	d, a
   0254 AF                 1560 	xor	a, a
   0255 91                 1561 	sub	a, c
   0256 CB 7B              1562 	bit	7, e
   0258 28 07              1563 	jr	Z,00171$
   025A CB 7A              1564 	bit	7, d
   025C 20 08              1565 	jr	NZ,00172$
   025E BF                 1566 	cp	a, a
   025F 18 05              1567 	jr	00172$
   0261                    1568 00171$:
   0261 CB 7A              1569 	bit	7, d
   0263 28 01              1570 	jr	Z,00172$
   0265 37                 1571 	scf
   0266                    1572 00172$:
   0266 30 07              1573 	jr	NC,00117$
                           1574 ;./src/main.c:118: player->sprite.speed.x -= 1;
   0268 0D                 1575 	dec	c
   0269 F8 07              1576 	ldhl	sp,	#7
   026B 2A                 1577 	ld	a, (hl+)
   026C 66                 1578 	ld	h, (hl)
   026D 6F                 1579 	ld	l, a
   026E 71                 1580 	ld	(hl), c
   026F                    1581 00117$:
                           1582 ;./src/main.c:123: if(JOYPAD_DOWN_PAD_D){
   026F CDr00r00           1583 	call	_joypad
   0272 F8 08              1584 	ldhl	sp,	#8
   0274 73                 1585 	ld	(hl), e
                           1586 ;./src/main.c:124: player->sprite.speed.y = movement_speed.y;
   0275 F8 05              1587 	ldhl	sp,#(6 - 1)
   0277 5E                 1588 	ld	e, (hl)
   0278 23                 1589 	inc	hl
   0279 56                 1590 	ld	d, (hl)
   027A 21 06 00           1591 	ld	hl, #0x0006
   027D 19                 1592 	add	hl, de
   027E 4D                 1593 	ld	c, l
   027F 44                 1594 	ld	b, h
                           1595 ;./src/main.c:123: if(JOYPAD_DOWN_PAD_D){
   0280 F8 08              1596 	ldhl	sp,	#8
   0282 CB 5E              1597 	bit	3, (hl)
   0284 28 09              1598 	jr	Z,00121$
                           1599 ;./src/main.c:124: player->sprite.speed.y = movement_speed.y;
   0286 F8 02              1600 	ldhl	sp,#(3 - 1)
   0288 5E                 1601 	ld	e, (hl)
   0289 23                 1602 	inc	hl
   028A 56                 1603 	ld	d, (hl)
   028B 1A                 1604 	ld	a,(de)
   028C 02                 1605 	ld	(bc), a
   028D 18 0B              1606 	jr	00123$
   028F                    1607 00121$:
                           1608 ;./src/main.c:126: else if(JOYPAD_UP_PAD_D){
   028F C5                 1609 	push	bc
   0290 CDr00r00           1610 	call	_joypad
   0293 C1                 1611 	pop	bc
   0294 CB 5B              1612 	bit	3, e
   0296 20 02              1613 	jr	NZ,00123$
                           1614 ;./src/main.c:127: player->sprite.speed.y =0; //-= movement_speed.y;
   0298 AF                 1615 	xor	a, a
   0299 02                 1616 	ld	(bc), a
   029A                    1617 00123$:
                           1618 ;./src/main.c:129: }
   029A E8 09              1619 	add	sp, #9
   029C C9                 1620 	ret
                           1621 ;./src/main.c:131: void jump(MPlayer* player){
                           1622 ;	---------------------------------
                           1623 ; Function jump
                           1624 ; ---------------------------------
   029D                    1625 _jump::
   029D E8 FC              1626 	add	sp, #-4
                           1627 ;./src/main.c:137: if(JOYPAD_DOWN_A){
   029F CDr00r00           1628 	call	_joypad
   02A2 CB 63              1629 	bit	4, e
   02A4 CAr0Fr03           1630 	jp	Z,00111$
                           1631 ;./src/main.c:138: if((player->sprite.col.direction.y == 1 ||
   02A7 F8 06              1632 	ldhl	sp,#(7 - 1)
   02A9 4E                 1633 	ld	c, (hl)
   02AA 23                 1634 	inc	hl
   02AB 46                 1635 	ld	b, (hl)
   02AC 21 08 00           1636 	ld	hl, #0x0008
   02AF 09                 1637 	add	hl, bc
   02B0 7D                 1638 	ld	a, l
   02B1 54                 1639 	ld	d, h
   02B2 F8 02              1640 	ldhl	sp,	#2
   02B4 22                 1641 	ld	(hl+), a
   02B5 72                 1642 	ld	(hl), d
   02B6 21 09 00           1643 	ld	hl, #0x0009
   02B9 09                 1644 	add	hl, bc
   02BA 33                 1645 	inc	sp
   02BB 33                 1646 	inc	sp
   02BC E5                 1647 	push	hl
   02BD D1                 1648 	pop	de
   02BE D5                 1649 	push	de
   02BF 1A                 1650 	ld	a,(de)
   02C0 3D                 1651 	dec	a
   02C1 28 09              1652 	jr	Z,00101$
                           1653 ;./src/main.c:139: player->sprite.col.direction.x != 0)){
   02C3 F8 02              1654 	ldhl	sp,#(3 - 1)
   02C5 5E                 1655 	ld	e, (hl)
   02C6 23                 1656 	inc	hl
   02C7 56                 1657 	ld	d, (hl)
   02C8 1A                 1658 	ld	a,(de)
   02C9 B7                 1659 	or	a, a
   02CA 28 0B              1660 	jr	Z,00102$
   02CC                    1661 00101$:
                           1662 ;./src/main.c:140: player->sprite.speed.y = -15;
   02CC 21 06 00           1663 	ld	hl, #0x0006
   02CF 09                 1664 	add	hl, bc
   02D0 33                 1665 	inc	sp
   02D1 33                 1666 	inc	sp
   02D2 E5                 1667 	push	hl
   02D3 E1                 1668 	pop	hl
   02D4 E5                 1669 	push	hl
   02D5 36 F1              1670 	ld	(hl), #0xf1
   02D7                    1671 00102$:
                           1672 ;./src/main.c:143: if(player->sprite.col.direction.x == -1){
   02D7 F8 02              1673 	ldhl	sp,#(3 - 1)
   02D9 5E                 1674 	ld	e, (hl)
   02DA 23                 1675 	inc	hl
   02DB 56                 1676 	ld	d, (hl)
   02DC 1A                 1677 	ld	a,(de)
   02DD 77                 1678 	ld	(hl), a
                           1679 ;./src/main.c:145: player->sprite.speed.x = 10;
   02DE 03                 1680 	inc	bc
   02DF 03                 1681 	inc	bc
   02E0 03                 1682 	inc	bc
   02E1 03                 1683 	inc	bc
   02E2 03                 1684 	inc	bc
                           1685 ;./src/main.c:143: if(player->sprite.col.direction.x == -1){
   02E3 7E                 1686 	ld	a, (hl)
   02E4 3C                 1687 	inc	a
   02E5 20 1F              1688 	jr	NZ,00107$
                           1689 ;./src/main.c:144: DEBUG_LOG_MESSAGE("Left Side Collision!");
   02E7 C5                 1690 	push	bc
   02E8 21r12r03           1691 	ld	hl, #___str_0
   02EB E5                 1692 	push	hl
   02EC 21rDDr01           1693 	ld	hl, #_debug_buffer
   02EF E5                 1694 	push	hl
   02F0 CDr00r00           1695 	call	_sprintf
   02F3 E8 04              1696 	add	sp, #4
   02F5 C1                 1697 	pop	bc
   02F6 52                 1698 	ld d, d 
   02F7 18 08              1699 	jr 14400$ 
   02F9 64 64              1700 	.dw 0x6464 
   02FB 01 00              1701 	.dw 0x0001 
   02FDrDDr01              1702 	.dw #_debug_buffer 
   02FF 00 00              1703 	.dw 0 
   0301                    1704 	 14400$:
                           1705 ;./src/main.c:145: player->sprite.speed.x = 10;
   0301 3E 0A              1706 	ld	a, #0x0a
   0303 02                 1707 	ld	(bc), a
   0304 18 09              1708 	jr	00111$
   0306                    1709 00107$:
                           1710 ;./src/main.c:147: else if (player->sprite.col.direction.x == 1){
   0306 F8 03              1711 	ldhl	sp,	#3
   0308 7E                 1712 	ld	a, (hl)
   0309 3D                 1713 	dec	a
   030A 20 03              1714 	jr	NZ,00111$
                           1715 ;./src/main.c:148: player->sprite.speed.x = -10;
   030C 3E F6              1716 	ld	a, #0xf6
   030E 02                 1717 	ld	(bc), a
   030F                    1718 00111$:
                           1719 ;./src/main.c:151: }
   030F E8 04              1720 	add	sp, #4
   0311 C9                 1721 	ret
   0312                    1722 ___str_0:
   0312 4C 65 66 74 20 53  1723 	.ascii "Left Side Collision!"
        69 64 65 20 43 6F
        6C 6C 69 73 69 6F
        6E 21
   0326 00                 1724 	.db 0x00
                           1725 ;./src/main.c:153: UINT16 get_world_to_map(MVector* pos){
                           1726 ;	---------------------------------
                           1727 ; Function get_world_to_map
                           1728 ; ---------------------------------
   0327                    1729 _get_world_to_map::
   0327 E8 FA              1730 	add	sp, #-6
                           1731 ;./src/main.c:154: return (pos->x - 8 )/8 + ((pos->y - 16) /8 )* 20;
   0329 F8 08              1732 	ldhl	sp,	#8
   032B 2A                 1733 	ld	a, (hl+)
   032C 5E                 1734 	ld	e, (hl)
   032D F8 02              1735 	ldhl	sp,	#2
   032F 22                 1736 	ld	(hl+), a
   0330 73                 1737 	ld	(hl), e
   0331 2B                 1738 	dec	hl
   0332 5E                 1739 	ld	e, (hl)
   0333 23                 1740 	inc	hl
   0334 56                 1741 	ld	d, (hl)
   0335 1A                 1742 	ld	a,(de)
   0336 F8 00              1743 	ldhl	sp,	#0
   0338 77                 1744 	ld	(hl), a
   0339 AF                 1745 	xor	a, a
   033A 23                 1746 	inc	hl
   033B 77                 1747 	ld	(hl), a
   033C D1                 1748 	pop	de
   033D D5                 1749 	push	de
   033E 21 08 00           1750 	ld	hl, #0x0008
   0341 7B                 1751 	ld	a, e
   0342 95                 1752 	sub	a, l
   0343 5F                 1753 	ld	e, a
   0344 7A                 1754 	ld	a, d
   0345 9C                 1755 	sbc	a, h
   0346 47                 1756 	ld	b, a
   0347 4B                 1757 	ld	c, e
   0348 F8 04              1758 	ldhl	sp,	#4
   034A 71                 1759 	ld	(hl), c
   034B 23                 1760 	inc	hl
   034C 70                 1761 	ld	(hl), b
   034D CB 78              1762 	bit	7, b
   034F 28 0C              1763 	jr	Z,00103$
   0351 D1                 1764 	pop	de
   0352 D5                 1765 	push	de
   0353 21 FF FF           1766 	ld	hl, #0xffff
   0356 19                 1767 	add	hl, de
   0357 7D                 1768 	ld	a, l
   0358 54                 1769 	ld	d, h
   0359 F8 04              1770 	ldhl	sp,	#4
   035B 22                 1771 	ld	(hl+), a
   035C 72                 1772 	ld	(hl), d
   035D                    1773 00103$:
   035D F8 04              1774 	ldhl	sp,	#4
   035F 7E                 1775 	ld	a, (hl)
   0360 F8 00              1776 	ldhl	sp,	#0
   0362 77                 1777 	ld	(hl), a
   0363 F8 05              1778 	ldhl	sp,	#5
   0365 7E                 1779 	ld	a, (hl)
   0366 F8 01              1780 	ldhl	sp,	#1
   0368 77                 1781 	ld	(hl), a
   0369 CB 2E              1782 	sra	(hl)
   036B 2B                 1783 	dec	hl
   036C CB 1E              1784 	rr	(hl)
   036E 23                 1785 	inc	hl
   036F CB 2E              1786 	sra	(hl)
   0371 2B                 1787 	dec	hl
   0372 CB 1E              1788 	rr	(hl)
   0374 23                 1789 	inc	hl
   0375 CB 2E              1790 	sra	(hl)
   0377 2B                 1791 	dec	hl
   0378 CB 1E              1792 	rr	(hl)
   037A F8 02              1793 	ldhl	sp,#(3 - 1)
   037C 4E                 1794 	ld	c, (hl)
   037D 23                 1795 	inc	hl
   037E 46                 1796 	ld	b, (hl)
   037F 03                 1797 	inc	bc
   0380 0A                 1798 	ld	a, (bc)
   0381 2B                 1799 	dec	hl
   0382 77                 1800 	ld	(hl), a
   0383 AF                 1801 	xor	a, a
   0384 23                 1802 	inc	hl
   0385 32                 1803 	ld	(hl-), a
   0386 5E                 1804 	ld	e, (hl)
   0387 23                 1805 	inc	hl
   0388 56                 1806 	ld	d, (hl)
   0389 21 10 00           1807 	ld	hl, #0x0010
   038C 7B                 1808 	ld	a, e
   038D 95                 1809 	sub	a, l
   038E 5F                 1810 	ld	e, a
   038F 7A                 1811 	ld	a, d
   0390 9C                 1812 	sbc	a, h
   0391 47                 1813 	ld	b, a
   0392 4B                 1814 	ld	c, e
   0393 F8 04              1815 	ldhl	sp,	#4
   0395 71                 1816 	ld	(hl), c
   0396 23                 1817 	inc	hl
   0397 70                 1818 	ld	(hl), b
   0398 CB 78              1819 	bit	7, b
   039A 28 10              1820 	jr	Z,00104$
   039C 2B                 1821 	dec	hl
   039D 2B                 1822 	dec	hl
   039E 2B                 1823 	dec	hl
   039F 5E                 1824 	ld	e, (hl)
   03A0 23                 1825 	inc	hl
   03A1 56                 1826 	ld	d, (hl)
   03A2 21 F7 FF           1827 	ld	hl, #0xfff7
   03A5 19                 1828 	add	hl, de
   03A6 7D                 1829 	ld	a, l
   03A7 54                 1830 	ld	d, h
   03A8 F8 04              1831 	ldhl	sp,	#4
   03AA 22                 1832 	ld	(hl+), a
   03AB 72                 1833 	ld	(hl), d
   03AC                    1834 00104$:
   03AC F8 04              1835 	ldhl	sp,#(5 - 1)
   03AE 4E                 1836 	ld	c, (hl)
   03AF 23                 1837 	inc	hl
   03B0 46                 1838 	ld	b, (hl)
   03B1 CB 28              1839 	sra	b
   03B3 CB 19              1840 	rr	c
   03B5 CB 28              1841 	sra	b
   03B7 CB 19              1842 	rr	c
   03B9 CB 28              1843 	sra	b
   03BB CB 19              1844 	rr	c
   03BD 69                 1845 	ld	l, c
   03BE 60                 1846 	ld	h, b
   03BF 29                 1847 	add	hl, hl
   03C0 29                 1848 	add	hl, hl
   03C1 09                 1849 	add	hl, bc
   03C2 29                 1850 	add	hl, hl
   03C3 29                 1851 	add	hl, hl
   03C4 4D                 1852 	ld	c, l
   03C5 44                 1853 	ld	b, h
   03C6 E1                 1854 	pop	hl
   03C7 E5                 1855 	push	hl
   03C8 09                 1856 	add	hl, bc
   03C9 4D                 1857 	ld	c, l
   03CA 44                 1858 	ld	b, h
   03CB 59                 1859 	ld	e, c
   03CC 50                 1860 	ld	d, b
                           1861 ;./src/main.c:155: }
   03CD E8 06              1862 	add	sp, #6
   03CF C9                 1863 	ret
                           1864 ;./src/main.c:157: void collision_check_2(MSprite* sprite, unsigned char map[]){
                           1865 ;	---------------------------------
                           1866 ; Function collision_check_2
                           1867 ; ---------------------------------
   03D0                    1868 _collision_check_2::
   03D0 E8 F8              1869 	add	sp, #-8
                           1870 ;./src/main.c:158: UINT16 pos = get_world_to_map(&(sprite->position));
   03D2 F8 0A              1871 	ldhl	sp,#(11 - 1)
   03D4 4E                 1872 	ld	c, (hl)
   03D5 23                 1873 	inc	hl
   03D6 46                 1874 	ld	b, (hl)
   03D7 C5                 1875 	push	bc
   03D8 C5                 1876 	push	bc
   03D9 CDr27r03           1877 	call	_get_world_to_map
   03DC E8 02              1878 	add	sp, #2
   03DE C1                 1879 	pop	bc
   03DF 33                 1880 	inc	sp
   03E0 33                 1881 	inc	sp
   03E1 D5                 1882 	push	de
                           1883 ;./src/main.c:160: sprite->col.has_collided = false;
   03E2 21 07 00           1884 	ld	hl, #0x0007
   03E5 09                 1885 	add	hl, bc
   03E6 7D                 1886 	ld	a, l
   03E7 54                 1887 	ld	d, h
   03E8 F8 02              1888 	ldhl	sp,	#2
   03EA 22                 1889 	ld	(hl+), a
   03EB 72                 1890 	ld	(hl), d
   03EC 2B                 1891 	dec	hl
   03ED 2A                 1892 	ld	a, (hl+)
   03EE 66                 1893 	ld	h, (hl)
   03EF 6F                 1894 	ld	l, a
   03F0 36 00              1895 	ld	(hl), #0x00
                           1896 ;./src/main.c:161: sprite->col.direction.x = 0;
   03F2 21 08 00           1897 	ld	hl, #0x0008
   03F5 09                 1898 	add	hl, bc
   03F6 7D                 1899 	ld	a, l
   03F7 54                 1900 	ld	d, h
   03F8 F8 04              1901 	ldhl	sp,	#4
   03FA 22                 1902 	ld	(hl+), a
   03FB 72                 1903 	ld	(hl), d
   03FC 2B                 1904 	dec	hl
   03FD 2A                 1905 	ld	a, (hl+)
   03FE 66                 1906 	ld	h, (hl)
   03FF 6F                 1907 	ld	l, a
   0400 36 00              1908 	ld	(hl), #0x00
                           1909 ;./src/main.c:162: sprite->col.direction.y = 0;
   0402 21 09 00           1910 	ld	hl, #0x0009
   0405 09                 1911 	add	hl, bc
   0406 7D                 1912 	ld	a, l
   0407 54                 1913 	ld	d, h
   0408 F8 06              1914 	ldhl	sp,	#6
   040A 22                 1915 	ld	(hl+), a
   040B 72                 1916 	ld	(hl), d
   040C 2B                 1917 	dec	hl
   040D 2A                 1918 	ld	a, (hl+)
   040E 66                 1919 	ld	h, (hl)
   040F 6F                 1920 	ld	l, a
   0410 36 00              1921 	ld	(hl), #0x00
                           1922 ;./src/main.c:164: if(pos - 1 % 20 == 0 || map[pos - 1] != 0x00){
   0412 C1                 1923 	pop	bc
   0413 C5                 1924 	push	bc
   0414 0B                 1925 	dec	bc
   0415 78                 1926 	ld	a, b
   0416 B1                 1927 	or	a, c
   0417 28 0C              1928 	jr	Z,00101$
   0419 F8 0C              1929 	ldhl	sp,	#12
   041B 2A                 1930 	ld	a, (hl+)
   041C 66                 1931 	ld	h, (hl)
   041D 6F                 1932 	ld	l, a
   041E 09                 1933 	add	hl, bc
   041F 4D                 1934 	ld	c, l
   0420 44                 1935 	ld	b, h
   0421 0A                 1936 	ld	a, (bc)
   0422 B7                 1937 	or	a, a
   0423 28 0D              1938 	jr	Z,00102$
   0425                    1939 00101$:
                           1940 ;./src/main.c:165: sprite->col.direction.x = -1;
   0425 F8 04              1941 	ldhl	sp,	#4
   0427 2A                 1942 	ld	a, (hl+)
   0428 66                 1943 	ld	h, (hl)
   0429 6F                 1944 	ld	l, a
   042A 36 FF              1945 	ld	(hl), #0xff
                           1946 ;./src/main.c:166: sprite->col.has_collided = true;
   042C C1                 1947 	pop	bc
   042D E1                 1948 	pop	hl
   042E E5                 1949 	push	hl
   042F C5                 1950 	push	bc
   0430 36 01              1951 	ld	(hl), #0x01
   0432                    1952 00102$:
                           1953 ;./src/main.c:169: if(pos + 1 % 20 == 19 || map[pos + 1] != 0x00){
   0432 C1                 1954 	pop	bc
   0433 C5                 1955 	push	bc
   0434 03                 1956 	inc	bc
   0435 79                 1957 	ld	a, c
   0436 D6 13              1958 	sub	a, #0x13
   0438 B0                 1959 	or	a, b
   0439 28 0C              1960 	jr	Z,00104$
   043B F8 0C              1961 	ldhl	sp,	#12
   043D 2A                 1962 	ld	a, (hl+)
   043E 66                 1963 	ld	h, (hl)
   043F 6F                 1964 	ld	l, a
   0440 09                 1965 	add	hl, bc
   0441 4D                 1966 	ld	c, l
   0442 44                 1967 	ld	b, h
   0443 0A                 1968 	ld	a, (bc)
   0444 B7                 1969 	or	a, a
   0445 28 0D              1970 	jr	Z,00109$
   0447                    1971 00104$:
                           1972 ;./src/main.c:170: sprite->col.direction.x = 1;
   0447 F8 04              1973 	ldhl	sp,	#4
   0449 2A                 1974 	ld	a, (hl+)
   044A 66                 1975 	ld	h, (hl)
   044B 6F                 1976 	ld	l, a
   044C 36 01              1977 	ld	(hl), #0x01
                           1978 ;./src/main.c:171: sprite->col.has_collided = true;
   044E C1                 1979 	pop	bc
   044F E1                 1980 	pop	hl
   0450 E5                 1981 	push	hl
   0451 C5                 1982 	push	bc
   0452 36 01              1983 	ld	(hl), #0x01
                           1984 ;./src/main.c:174: if(pos - 20 < 0 || map[pos - 20] != 0x00){
   0454                    1985 00109$:
   0454 D1                 1986 	pop	de
   0455 D5                 1987 	push	de
   0456 21 14 00           1988 	ld	hl, #0x0014
   0459 7B                 1989 	ld	a, e
   045A 95                 1990 	sub	a, l
   045B 5F                 1991 	ld	e, a
   045C 7A                 1992 	ld	a, d
   045D 9C                 1993 	sbc	a, h
   045E 47                 1994 	ld	b, a
   045F 4B                 1995 	ld	c, e
   0460 F8 0C              1996 	ldhl	sp,	#12
   0462 2A                 1997 	ld	a, (hl+)
   0463 66                 1998 	ld	h, (hl)
   0464 6F                 1999 	ld	l, a
   0465 09                 2000 	add	hl, bc
   0466 4D                 2001 	ld	c, l
   0467 44                 2002 	ld	b, h
   0468 0A                 2003 	ld	a, (bc)
   0469 B7                 2004 	or	a, a
   046A 28 0D              2005 	jr	Z,00108$
                           2006 ;./src/main.c:175: sprite->col.direction.y = -1;
   046C F8 06              2007 	ldhl	sp,	#6
   046E 2A                 2008 	ld	a, (hl+)
   046F 66                 2009 	ld	h, (hl)
   0470 6F                 2010 	ld	l, a
   0471 36 FF              2011 	ld	(hl), #0xff
                           2012 ;./src/main.c:176: sprite->col.has_collided = true;
   0473 C1                 2013 	pop	bc
   0474 E1                 2014 	pop	hl
   0475 E5                 2015 	push	hl
   0476 C5                 2016 	push	bc
   0477 36 01              2017 	ld	(hl), #0x01
   0479                    2018 00108$:
                           2019 ;./src/main.c:179: if(pos + 20 > 20 * 18 || map[pos + 20] != 0x00){
   0479 D1                 2020 	pop	de
   047A D5                 2021 	push	de
   047B 21 14 00           2022 	ld	hl, #0x0014
   047E 19                 2023 	add	hl, de
   047F 4D                 2024 	ld	c, l
   0480 44                 2025 	ld	b, h
   0481 3E 68              2026 	ld	a, #0x68
   0483 B9                 2027 	cp	a, c
   0484 3E 01              2028 	ld	a, #0x01
   0486 98                 2029 	sbc	a, b
   0487 38 0C              2030 	jr	C,00110$
   0489 F8 0C              2031 	ldhl	sp,	#12
   048B 2A                 2032 	ld	a, (hl+)
   048C 66                 2033 	ld	h, (hl)
   048D 6F                 2034 	ld	l, a
   048E 09                 2035 	add	hl, bc
   048F 4D                 2036 	ld	c, l
   0490 44                 2037 	ld	b, h
   0491 0A                 2038 	ld	a, (bc)
   0492 B7                 2039 	or	a, a
   0493 28 0D              2040 	jr	Z,00113$
   0495                    2041 00110$:
                           2042 ;./src/main.c:180: sprite->col.direction.y = 1;
   0495 F8 06              2043 	ldhl	sp,	#6
   0497 2A                 2044 	ld	a, (hl+)
   0498 66                 2045 	ld	h, (hl)
   0499 6F                 2046 	ld	l, a
   049A 36 01              2047 	ld	(hl), #0x01
                           2048 ;./src/main.c:181: sprite->col.has_collided = true;
   049C C1                 2049 	pop	bc
   049D E1                 2050 	pop	hl
   049E E5                 2051 	push	hl
   049F C5                 2052 	push	bc
   04A0 36 01              2053 	ld	(hl), #0x01
   04A2                    2054 00113$:
                           2055 ;./src/main.c:183: }
   04A2 E8 08              2056 	add	sp, #8
   04A4 C9                 2057 	ret
                           2058 ;./src/main.c:185: void main()
                           2059 ;	---------------------------------
                           2060 ; Function main
                           2061 ; ---------------------------------
   04A5                    2062 _main::
   04A5 E8 F1              2063 	add	sp, #-15
                           2064 ;./src/main.c:187: set_bkg_data(0, 3, backgroundtiles);
   04A7 21r33r00           2065 	ld	hl, #_backgroundtiles
   04AA E5                 2066 	push	hl
   04AB 3E 03              2067 	ld	a, #0x03
   04AD F5                 2068 	push	af
   04AE 33                 2069 	inc	sp
   04AF AF                 2070 	xor	a, a
   04B0 F5                 2071 	push	af
   04B1 33                 2072 	inc	sp
   04B2 CDr00r00           2073 	call	_set_bkg_data
   04B5 E8 04              2074 	add	sp, #4
                           2075 ;./src/main.c:188: set_bkg_tiles(0,0,20,18, TestMap);
   04B7 21r73r00           2076 	ld	hl, #_TestMap
   04BA E5                 2077 	push	hl
   04BB 3E 12              2078 	ld	a, #0x12
   04BD F5                 2079 	push	af
   04BE 33                 2080 	inc	sp
   04BF 3E 14              2081 	ld	a, #0x14
   04C1 F5                 2082 	push	af
   04C2 33                 2083 	inc	sp
   04C3 AF                 2084 	xor	a, a
   04C4 F5                 2085 	push	af
   04C5 33                 2086 	inc	sp
   04C6 AF                 2087 	xor	a, a
   04C7 F5                 2088 	push	af
   04C8 33                 2089 	inc	sp
   04C9 CDr00r00           2090 	call	_set_bkg_tiles
   04CC E8 06              2091 	add	sp, #6
                           2092 ;./src/main.c:190: SHOW_BKG;
   04CE F0r00              2093 	ldh	a, (_LCDC_REG+0)
   04D0 F6 01              2094 	or	a, #0x01
   04D2 E0r00              2095 	ldh	(_LCDC_REG+0),a
                           2096 ;./src/main.c:192: MPlayer player = {{{70, 24}, 0, 3, 0, {0, 0}, {false, {0, 0}}}, false};
   04D4 F8 00              2097 	ldhl	sp,	#0
   04D6 7D                 2098 	ld	a, l
   04D7 54                 2099 	ld	d, h
   04D8 F8 0D              2100 	ldhl	sp,	#13
   04DA 22                 2101 	ld	(hl+), a
   04DB 72                 2102 	ld	(hl), d
   04DC 2B                 2103 	dec	hl
   04DD 2A                 2104 	ld	a, (hl+)
   04DE 66                 2105 	ld	h, (hl)
   04DF 6F                 2106 	ld	l, a
   04E0 36 46              2107 	ld	(hl), #0x46
   04E2 F8 0D              2108 	ldhl	sp,#(14 - 1)
   04E4 4E                 2109 	ld	c, (hl)
   04E5 23                 2110 	inc	hl
   04E6 46                 2111 	ld	b, (hl)
   04E7 03                 2112 	inc	bc
   04E8 3E 18              2113 	ld	a, #0x18
   04EA 02                 2114 	ld	(bc), a
   04EB 2B                 2115 	dec	hl
   04EC 4E                 2116 	ld	c, (hl)
   04ED 23                 2117 	inc	hl
   04EE 46                 2118 	ld	b, (hl)
   04EF 03                 2119 	inc	bc
   04F0 03                 2120 	inc	bc
   04F1 AF                 2121 	xor	a, a
   04F2 02                 2122 	ld	(bc), a
   04F3 2B                 2123 	dec	hl
   04F4 4E                 2124 	ld	c, (hl)
   04F5 23                 2125 	inc	hl
   04F6 46                 2126 	ld	b, (hl)
   04F7 03                 2127 	inc	bc
   04F8 03                 2128 	inc	bc
   04F9 03                 2129 	inc	bc
   04FA 3E 03              2130 	ld	a, #0x03
   04FC 02                 2131 	ld	(bc), a
   04FD 2B                 2132 	dec	hl
   04FE 5E                 2133 	ld	e, (hl)
   04FF 23                 2134 	inc	hl
   0500 56                 2135 	ld	d, (hl)
   0501 21 04 00           2136 	ld	hl, #0x0004
   0504 19                 2137 	add	hl, de
   0505 4D                 2138 	ld	c, l
   0506 44                 2139 	ld	b, h
   0507 AF                 2140 	xor	a, a
   0508 02                 2141 	ld	(bc), a
   0509 F8 0D              2142 	ldhl	sp,#(14 - 1)
   050B 5E                 2143 	ld	e, (hl)
   050C 23                 2144 	inc	hl
   050D 56                 2145 	ld	d, (hl)
   050E 21 05 00           2146 	ld	hl, #0x0005
   0511 19                 2147 	add	hl, de
   0512 4D                 2148 	ld	c, l
   0513 44                 2149 	ld	b, h
   0514 AF                 2150 	xor	a, a
   0515 02                 2151 	ld	(bc), a
   0516 F8 0D              2152 	ldhl	sp,#(14 - 1)
   0518 5E                 2153 	ld	e, (hl)
   0519 23                 2154 	inc	hl
   051A 56                 2155 	ld	d, (hl)
   051B 21 06 00           2156 	ld	hl, #0x0006
   051E 19                 2157 	add	hl, de
   051F 4D                 2158 	ld	c, l
   0520 44                 2159 	ld	b, h
   0521 AF                 2160 	xor	a, a
   0522 02                 2161 	ld	(bc), a
   0523 F8 0D              2162 	ldhl	sp,#(14 - 1)
   0525 5E                 2163 	ld	e, (hl)
   0526 23                 2164 	inc	hl
   0527 56                 2165 	ld	d, (hl)
   0528 21 07 00           2166 	ld	hl, #0x0007
   052B 19                 2167 	add	hl, de
   052C 4D                 2168 	ld	c, l
   052D 44                 2169 	ld	b, h
   052E AF                 2170 	xor	a, a
   052F 02                 2171 	ld	(bc), a
   0530 F8 0D              2172 	ldhl	sp,#(14 - 1)
   0532 5E                 2173 	ld	e, (hl)
   0533 23                 2174 	inc	hl
   0534 56                 2175 	ld	d, (hl)
   0535 21 08 00           2176 	ld	hl, #0x0008
   0538 19                 2177 	add	hl, de
   0539 4D                 2178 	ld	c, l
   053A 44                 2179 	ld	b, h
   053B AF                 2180 	xor	a, a
   053C 02                 2181 	ld	(bc), a
   053D F8 0D              2182 	ldhl	sp,#(14 - 1)
   053F 5E                 2183 	ld	e, (hl)
   0540 23                 2184 	inc	hl
   0541 56                 2185 	ld	d, (hl)
   0542 21 09 00           2186 	ld	hl, #0x0009
   0545 19                 2187 	add	hl, de
   0546 4D                 2188 	ld	c, l
   0547 44                 2189 	ld	b, h
   0548 AF                 2190 	xor	a, a
   0549 02                 2191 	ld	(bc), a
   054A F8 00              2192 	ldhl	sp,	#0
   054C 7D                 2193 	ld	a, l
   054D 54                 2194 	ld	d, h
   054E F8 0B              2195 	ldhl	sp,	#11
   0550 22                 2196 	ld	(hl+), a
   0551 72                 2197 	ld	(hl), d
   0552 2B                 2198 	dec	hl
   0553 5E                 2199 	ld	e, (hl)
   0554 23                 2200 	inc	hl
   0555 56                 2201 	ld	d, (hl)
   0556 21 0A 00           2202 	ld	hl, #0x000a
   0559 19                 2203 	add	hl, de
   055A 4D                 2204 	ld	c, l
   055B 44                 2205 	ld	b, h
   055C AF                 2206 	xor	a, a
   055D 02                 2207 	ld	(bc), a
                           2208 ;./src/main.c:194: set_sprite_data(player.sprite.sprite_number, player.sprite.max_animations, MainChar);
   055E F8 0B              2209 	ldhl	sp,#(12 - 1)
   0560 4E                 2210 	ld	c, (hl)
   0561 23                 2211 	inc	hl
   0562 46                 2212 	ld	b, (hl)
   0563 03                 2213 	inc	bc
   0564 03                 2214 	inc	bc
   0565 03                 2215 	inc	bc
   0566 0A                 2216 	ld	a, (bc)
   0567 47                 2217 	ld	b, a
   0568 2B                 2218 	dec	hl
   0569 5E                 2219 	ld	e, (hl)
   056A 23                 2220 	inc	hl
   056B 56                 2221 	ld	d, (hl)
   056C 21 04 00           2222 	ld	hl, #0x0004
   056F 19                 2223 	add	hl, de
   0570 7D                 2224 	ld	a, l
   0571 54                 2225 	ld	d, h
   0572 F8 0D              2226 	ldhl	sp,	#13
   0574 22                 2227 	ld	(hl+), a
   0575 72                 2228 	ld	(hl), d
   0576 2B                 2229 	dec	hl
   0577 5E                 2230 	ld	e, (hl)
   0578 23                 2231 	inc	hl
   0579 56                 2232 	ld	d, (hl)
   057A 1A                 2233 	ld	a,(de)
   057B 4F                 2234 	ld	c, a
   057C 21r00r00           2235 	ld	hl, #_MainChar
   057F E5                 2236 	push	hl
   0580 C5                 2237 	push	bc
   0581 33                 2238 	inc	sp
   0582 79                 2239 	ld	a, c
   0583 F5                 2240 	push	af
   0584 33                 2241 	inc	sp
   0585 CDr00r00           2242 	call	_set_sprite_data
   0588 E8 04              2243 	add	sp, #4
                           2244 ;./src/main.c:195: set_sprite_tile(player.sprite.sprite_number, player.sprite.animation_index);
   058A F8 0B              2245 	ldhl	sp,#(12 - 1)
   058C 4E                 2246 	ld	c, (hl)
   058D 23                 2247 	inc	hl
   058E 46                 2248 	ld	b, (hl)
   058F 03                 2249 	inc	bc
   0590 03                 2250 	inc	bc
   0591 0A                 2251 	ld	a, (bc)
   0592 47                 2252 	ld	b, a
   0593 23                 2253 	inc	hl
   0594 5E                 2254 	ld	e, (hl)
   0595 23                 2255 	inc	hl
   0596 56                 2256 	ld	d, (hl)
   0597 1A                 2257 	ld	a,(de)
   0598 C5                 2258 	push	bc
   0599 33                 2259 	inc	sp
   059A F5                 2260 	push	af
   059B 33                 2261 	inc	sp
   059C CDr00r00           2262 	call	_set_sprite_tile
   059F E8 02              2263 	add	sp, #2
                           2264 ;./src/main.c:196: move_sprite(player.sprite.sprite_number, player.sprite.position.x, player.sprite.position.y);
   05A1 F8 0B              2265 	ldhl	sp,#(12 - 1)
   05A3 4E                 2266 	ld	c, (hl)
   05A4 23                 2267 	inc	hl
   05A5 46                 2268 	ld	b, (hl)
   05A6 03                 2269 	inc	bc
   05A7 0A                 2270 	ld	a, (bc)
   05A8 47                 2271 	ld	b, a
   05A9 2B                 2272 	dec	hl
   05AA 5E                 2273 	ld	e, (hl)
   05AB 23                 2274 	inc	hl
   05AC 56                 2275 	ld	d, (hl)
   05AD 1A                 2276 	ld	a,(de)
   05AE 23                 2277 	inc	hl
   05AF 5E                 2278 	ld	e, (hl)
   05B0 23                 2279 	inc	hl
   05B1 56                 2280 	ld	d, (hl)
   05B2 F5                 2281 	push	af
   05B3 1A                 2282 	ld	a,(de)
   05B4 4F                 2283 	ld	c, a
   05B5 F1                 2284 	pop	af
   05B6 C5                 2285 	push	bc
   05B7 33                 2286 	inc	sp
   05B8 F5                 2287 	push	af
   05B9 33                 2288 	inc	sp
   05BA 79                 2289 	ld	a, c
   05BB F5                 2290 	push	af
   05BC 33                 2291 	inc	sp
   05BD CDr00r00           2292 	call	_move_sprite
   05C0 E8 03              2293 	add	sp, #3
                           2294 ;./src/main.c:197: SHOW_SPRITES;
   05C2 F0r00              2295 	ldh	a, (_LCDC_REG+0)
   05C4 F6 02              2296 	or	a, #0x02
   05C6 E0r00              2297 	ldh	(_LCDC_REG+0),a
                           2298 ;./src/main.c:199: while(1){
   05C8                    2299 00105$:
                           2300 ;./src/main.c:200: UPDATE_JOYPAD_STATE;
   05C8 E5                 2301 	push	hl
   05C9 21r31r00           2302 	ld	hl, #_joypad_curr_state
   05CC 7E                 2303 	ld	a, (hl)
   05CD 21r30r00           2304 	ld	hl, #_joypad_prev_state
   05D0 77                 2305 	ld	(hl), a
   05D1 E1                 2306 	pop	hl
   05D2 CDr00r00           2307 	call	_joypad
   05D5 21r31r00           2308 	ld	hl, #_joypad_curr_state
   05D8 73                 2309 	ld	(hl), e
                           2310 ;./src/main.c:204: player_movement(&player);
   05D9 F8 0B              2311 	ldhl	sp,#(12 - 1)
   05DB 4E                 2312 	ld	c, (hl)
   05DC 23                 2313 	inc	hl
   05DD 46                 2314 	ld	b, (hl)
   05DE C5                 2315 	push	bc
   05DF CDrA0r01           2316 	call	_player_movement
   05E2 E8 02              2317 	add	sp, #2
                           2318 ;./src/main.c:205: jump(&player);
   05E4 F8 0B              2319 	ldhl	sp,#(12 - 1)
   05E6 4E                 2320 	ld	c, (hl)
   05E7 23                 2321 	inc	hl
   05E8 46                 2322 	ld	b, (hl)
   05E9 C5                 2323 	push	bc
   05EA CDr9Dr02           2324 	call	_jump
   05ED E8 02              2325 	add	sp, #2
                           2326 ;./src/main.c:208: collision_check_2(&(player.sprite), TestMap);
   05EF 11r73r00           2327 	ld	de, #_TestMap
   05F2 F8 0B              2328 	ldhl	sp,#(12 - 1)
   05F4 4E                 2329 	ld	c, (hl)
   05F5 23                 2330 	inc	hl
   05F6 46                 2331 	ld	b, (hl)
   05F7 D5                 2332 	push	de
   05F8 C5                 2333 	push	bc
   05F9 CDrD0r03           2334 	call	_collision_check_2
   05FC E8 04              2335 	add	sp, #4
                           2336 ;./src/main.c:213: gravity(&(player.sprite));
   05FE F8 0B              2337 	ldhl	sp,#(12 - 1)
   0600 4E                 2338 	ld	c, (hl)
   0601 23                 2339 	inc	hl
   0602 46                 2340 	ld	b, (hl)
   0603 C5                 2341 	push	bc
   0604 CDrEBr00           2342 	call	_gravity
   0607 E8 02              2343 	add	sp, #2
                           2344 ;./src/main.c:218: update_position(&(player.sprite));
   0609 F8 0B              2345 	ldhl	sp,#(12 - 1)
   060B 4E                 2346 	ld	c, (hl)
   060C 23                 2347 	inc	hl
   060D 46                 2348 	ld	b, (hl)
   060E C5                 2349 	push	bc
   060F CDr0Fr01           2350 	call	_update_position
   0612 E8 02              2351 	add	sp, #2
                           2352 ;./src/main.c:219: draw(&(player.sprite));
   0614 F8 0B              2353 	ldhl	sp,#(12 - 1)
   0616 4E                 2354 	ld	c, (hl)
   0617 23                 2355 	inc	hl
   0618 46                 2356 	ld	b, (hl)
   0619 C5                 2357 	push	bc
   061A CDr78r00           2358 	call	_draw
   061D E8 02              2359 	add	sp, #2
                           2360 ;./src/main.c:222: wait_vbl_done();
   061F CDr00r00           2361 	call	_wait_vbl_done
   0622 C3rC8r05           2362 	jp	00105$
                           2363 ;./src/main.c:225: }
   0625 E8 0F              2364 	add	sp, #15
   0627 C9                 2365 	ret
                           2366 	.area _CODE
                           2367 	.area _CABS (ABS)
