                              1 ;--------------------------------------------------------
                              2 ; File Created by SDCC : free open source ANSI-C Compiler
                              3 ; Version 4.0.0 #11528 (MINGW32)
                              4 ;--------------------------------------------------------
                              5 	.module C__Users_Thief3_AppData_Local_Temp_lcc56721
                              6 	.optsdcc -mgbz80
                              7 	
                              8 ;--------------------------------------------------------
                              9 ; Public variables in this module
                             10 ;--------------------------------------------------------
                             11 	.globl _main
                             12 	.globl _performantdelay
                             13 	.globl _teleporter_check
                             14 	.globl _death_check
                             15 	.globl _collision_check
                             16 	.globl _round_down
                             17 	.globl _round_up
                             18 	.globl _gravity
                             19 	.globl _win_condition
                             20 	.globl _set_map
                             21 	.globl _get_world_to_map
                             22 	.globl _jump
                             23 	.globl _player_movement
                             24 	.globl _next_animation
                             25 	.globl _update_position_split
                             26 	.globl _update_position
                             27 	.globl _draw
                             28 	.globl _BGB_profiler_message
                             29 	.globl _sprintf
                             30 	.globl _move_sprite
                             31 	.globl _set_sprite_tile
                             32 	.globl _set_sprite_data
                             33 	.globl _set_bkg_tiles
                             34 	.globl _set_bkg_data
                             35 	.globl _wait_vbl_done
                             36 	.globl _waitpad
                             37 	.globl _joypad
                             38 	.globl _delay
                             39 	.globl _maps
                             40 	.globl _gravity_time
                             41 	.globl _current_level
                             42 	.globl _BackgroundTiles
                             43 	.globl _MainChar
                             44 	.globl _splash_map
                             45 	.globl _splash_data
                             46 	.globl _you_win_map
                             47 	.globl _you_win_data
                             48 ;--------------------------------------------------------
                             49 ; special function registers
                             50 ;--------------------------------------------------------
                             51 ;--------------------------------------------------------
                             52 ; ram data
                             53 ;--------------------------------------------------------
                             54 	.area _DATA
   0000                      55 _MainChar::
   0000                      56 	.ds 48
   0030                      57 _BackgroundTiles::
   0030                      58 	.ds 192
   00F0                      59 _joypad_prev_state:
   00F0                      60 	.ds 1
   00F1                      61 _joypad_curr_state:
   00F1                      62 	.ds 1
   00F2                      63 _input_timer:
   00F2                      64 	.ds 1
   00F3                      65 ___BGB_PROFILER_INIT:
   00F3                      66 	.ds 2
   00F5                      67 _debug_buffer:
   00F5                      68 	.ds 512
   02F5                      69 _teleporter_active:
   02F5                      70 	.ds 1
   02F6                      71 _current_level::
   02F6                      72 	.ds 1
   02F7                      73 _gravity_time::
   02F7                      74 	.ds 1
   02F8                      75 _maps::
   02F8                      76 	.ds 2160
                             77 ;--------------------------------------------------------
                             78 ; absolute external ram data
                             79 ;--------------------------------------------------------
                             80 	.area _DABS (ABS)
                             81 ;--------------------------------------------------------
                             82 ; global & static initialisations
                             83 ;--------------------------------------------------------
                             84 	.area _HOME
                             85 	.area _GSINIT
                             86 	.area _GSFINAL
                             87 	.area _GSINIT
                             88 ;./src/../sprites/char.c:26: unsigned char MainChar[] =
   0000 21r00r00             89 	ld	hl, #_MainChar
   0003 36 00                90 	ld	(hl), #0x00
   0005 21r01r00             91 	ld	hl, #(_MainChar + 0x0001)
   0008 36 00                92 	ld	(hl), #0x00
   000A 21r02r00             93 	ld	hl, #(_MainChar + 0x0002)
   000D 36 7E                94 	ld	(hl), #0x7e
   000F 21r03r00             95 	ld	hl, #(_MainChar + 0x0003)
   0012 36 7E                96 	ld	(hl), #0x7e
   0014 21r04r00             97 	ld	hl, #(_MainChar + 0x0004)
   0017 36 42                98 	ld	(hl), #0x42
   0019 21r05r00             99 	ld	hl, #(_MainChar + 0x0005)
   001C 36 76               100 	ld	(hl), #0x76
   001E 21r06r00            101 	ld	hl, #(_MainChar + 0x0006)
   0021 36 42               102 	ld	(hl), #0x42
   0023 21r07r00            103 	ld	hl, #(_MainChar + 0x0007)
   0026 36 76               104 	ld	(hl), #0x76
   0028 21r08r00            105 	ld	hl, #(_MainChar + 0x0008)
   002B 36 4A               106 	ld	(hl), #0x4a
   002D 21r09r00            107 	ld	hl, #(_MainChar + 0x0009)
   0030 36 4A               108 	ld	(hl), #0x4a
   0032 21r0Ar00            109 	ld	hl, #(_MainChar + 0x000a)
   0035 36 7E               110 	ld	(hl), #0x7e
   0037 21r0Br00            111 	ld	hl, #(_MainChar + 0x000b)
   003A 36 7E               112 	ld	(hl), #0x7e
   003C 21r0Cr00            113 	ld	hl, #(_MainChar + 0x000c)
   003F 36 36               114 	ld	(hl), #0x36
   0041 21r0Dr00            115 	ld	hl, #(_MainChar + 0x000d)
   0044 36 36               116 	ld	(hl), #0x36
   0046 21r0Er00            117 	ld	hl, #(_MainChar + 0x000e)
   0049 36 36               118 	ld	(hl), #0x36
   004B 21r0Fr00            119 	ld	hl, #(_MainChar + 0x000f)
   004E 36 36               120 	ld	(hl), #0x36
   0050 21r10r00            121 	ld	hl, #(_MainChar + 0x0010)
   0053 36 00               122 	ld	(hl), #0x00
   0055 21r11r00            123 	ld	hl, #(_MainChar + 0x0011)
   0058 36 00               124 	ld	(hl), #0x00
   005A 21r12r00            125 	ld	hl, #(_MainChar + 0x0012)
   005D 36 7E               126 	ld	(hl), #0x7e
   005F 21r13r00            127 	ld	hl, #(_MainChar + 0x0013)
   0062 36 7E               128 	ld	(hl), #0x7e
   0064 21r14r00            129 	ld	hl, #(_MainChar + 0x0014)
   0067 36 42               130 	ld	(hl), #0x42
   0069 21r15r00            131 	ld	hl, #(_MainChar + 0x0015)
   006C 36 76               132 	ld	(hl), #0x76
   006E 21r16r00            133 	ld	hl, #(_MainChar + 0x0016)
   0071 36 42               134 	ld	(hl), #0x42
   0073 21r17r00            135 	ld	hl, #(_MainChar + 0x0017)
   0076 36 76               136 	ld	(hl), #0x76
   0078 21r18r00            137 	ld	hl, #(_MainChar + 0x0018)
   007B 36 4A               138 	ld	(hl), #0x4a
   007D 21r19r00            139 	ld	hl, #(_MainChar + 0x0019)
   0080 36 4A               140 	ld	(hl), #0x4a
   0082 21r1Ar00            141 	ld	hl, #(_MainChar + 0x001a)
   0085 36 7E               142 	ld	(hl), #0x7e
   0087 21r1Br00            143 	ld	hl, #(_MainChar + 0x001b)
   008A 36 7E               144 	ld	(hl), #0x7e
   008C 21r1Cr00            145 	ld	hl, #(_MainChar + 0x001c)
   008F 36 36               146 	ld	(hl), #0x36
   0091 21r1Dr00            147 	ld	hl, #(_MainChar + 0x001d)
   0094 36 36               148 	ld	(hl), #0x36
   0096 21r1Er00            149 	ld	hl, #(_MainChar + 0x001e)
   0099 36 30               150 	ld	(hl), #0x30
   009B 21r1Fr00            151 	ld	hl, #(_MainChar + 0x001f)
   009E 36 30               152 	ld	(hl), #0x30
   00A0 21r20r00            153 	ld	hl, #(_MainChar + 0x0020)
   00A3 36 00               154 	ld	(hl), #0x00
   00A5 21r21r00            155 	ld	hl, #(_MainChar + 0x0021)
   00A8 36 00               156 	ld	(hl), #0x00
   00AA 21r22r00            157 	ld	hl, #(_MainChar + 0x0022)
   00AD 36 7E               158 	ld	(hl), #0x7e
   00AF 21r23r00            159 	ld	hl, #(_MainChar + 0x0023)
   00B2 36 7E               160 	ld	(hl), #0x7e
   00B4 21r24r00            161 	ld	hl, #(_MainChar + 0x0024)
   00B7 36 42               162 	ld	(hl), #0x42
   00B9 21r25r00            163 	ld	hl, #(_MainChar + 0x0025)
   00BC 36 76               164 	ld	(hl), #0x76
   00BE 21r26r00            165 	ld	hl, #(_MainChar + 0x0026)
   00C1 36 42               166 	ld	(hl), #0x42
   00C3 21r27r00            167 	ld	hl, #(_MainChar + 0x0027)
   00C6 36 76               168 	ld	(hl), #0x76
   00C8 21r28r00            169 	ld	hl, #(_MainChar + 0x0028)
   00CB 36 4A               170 	ld	(hl), #0x4a
   00CD 21r29r00            171 	ld	hl, #(_MainChar + 0x0029)
   00D0 36 4A               172 	ld	(hl), #0x4a
   00D2 21r2Ar00            173 	ld	hl, #(_MainChar + 0x002a)
   00D5 36 7E               174 	ld	(hl), #0x7e
   00D7 21r2Br00            175 	ld	hl, #(_MainChar + 0x002b)
   00DA 36 7E               176 	ld	(hl), #0x7e
   00DC 21r2Cr00            177 	ld	hl, #(_MainChar + 0x002c)
   00DF 36 36               178 	ld	(hl), #0x36
   00E1 21r2Dr00            179 	ld	hl, #(_MainChar + 0x002d)
   00E4 36 36               180 	ld	(hl), #0x36
   00E6 21r2Er00            181 	ld	hl, #(_MainChar + 0x002e)
   00E9 36 06               182 	ld	(hl), #0x06
   00EB 21r2Fr00            183 	ld	hl, #(_MainChar + 0x002f)
   00EE 36 06               184 	ld	(hl), #0x06
                            185 ;./src/../sprites/background.c:26: unsigned char BackgroundTiles[] =
   00F0 21r30r00            186 	ld	hl, #_BackgroundTiles
   00F3 36 00               187 	ld	(hl), #0x00
   00F5 21r31r00            188 	ld	hl, #(_BackgroundTiles + 0x0001)
   00F8 36 00               189 	ld	(hl), #0x00
   00FA 21r32r00            190 	ld	hl, #(_BackgroundTiles + 0x0002)
   00FD 36 00               191 	ld	(hl), #0x00
   00FF 21r33r00            192 	ld	hl, #(_BackgroundTiles + 0x0003)
   0102 36 00               193 	ld	(hl), #0x00
   0104 21r34r00            194 	ld	hl, #(_BackgroundTiles + 0x0004)
   0107 36 00               195 	ld	(hl), #0x00
   0109 21r35r00            196 	ld	hl, #(_BackgroundTiles + 0x0005)
   010C 36 00               197 	ld	(hl), #0x00
   010E 21r36r00            198 	ld	hl, #(_BackgroundTiles + 0x0006)
   0111 36 00               199 	ld	(hl), #0x00
   0113 21r37r00            200 	ld	hl, #(_BackgroundTiles + 0x0007)
   0116 36 00               201 	ld	(hl), #0x00
   0118 21r38r00            202 	ld	hl, #(_BackgroundTiles + 0x0008)
   011B 36 00               203 	ld	(hl), #0x00
   011D 21r39r00            204 	ld	hl, #(_BackgroundTiles + 0x0009)
   0120 36 00               205 	ld	(hl), #0x00
   0122 21r3Ar00            206 	ld	hl, #(_BackgroundTiles + 0x000a)
   0125 36 00               207 	ld	(hl), #0x00
   0127 21r3Br00            208 	ld	hl, #(_BackgroundTiles + 0x000b)
   012A 36 00               209 	ld	(hl), #0x00
   012C 21r3Cr00            210 	ld	hl, #(_BackgroundTiles + 0x000c)
   012F 36 00               211 	ld	(hl), #0x00
   0131 21r3Dr00            212 	ld	hl, #(_BackgroundTiles + 0x000d)
   0134 36 00               213 	ld	(hl), #0x00
   0136 21r3Er00            214 	ld	hl, #(_BackgroundTiles + 0x000e)
   0139 36 00               215 	ld	(hl), #0x00
   013B 21r3Fr00            216 	ld	hl, #(_BackgroundTiles + 0x000f)
   013E 36 00               217 	ld	(hl), #0x00
   0140 21r40r00            218 	ld	hl, #(_BackgroundTiles + 0x0010)
   0143 36 C0               219 	ld	(hl), #0xc0
   0145 21r41r00            220 	ld	hl, #(_BackgroundTiles + 0x0011)
   0148 36 C0               221 	ld	(hl), #0xc0
   014A 21r42r00            222 	ld	hl, #(_BackgroundTiles + 0x0012)
   014D 36 F0               223 	ld	(hl), #0xf0
   014F 21r43r00            224 	ld	hl, #(_BackgroundTiles + 0x0013)
   0152 36 F0               225 	ld	(hl), #0xf0
   0154 21r44r00            226 	ld	hl, #(_BackgroundTiles + 0x0014)
   0157 36 FC               227 	ld	(hl), #0xfc
   0159 21r45r00            228 	ld	hl, #(_BackgroundTiles + 0x0015)
   015C 36 FC               229 	ld	(hl), #0xfc
   015E 21r46r00            230 	ld	hl, #(_BackgroundTiles + 0x0016)
   0161 36 F8               231 	ld	(hl), #0xf8
   0163 21r47r00            232 	ld	hl, #(_BackgroundTiles + 0x0017)
   0166 36 F8               233 	ld	(hl), #0xf8
   0168 21r48r00            234 	ld	hl, #(_BackgroundTiles + 0x0018)
   016B 36 E0               235 	ld	(hl), #0xe0
   016D 21r49r00            236 	ld	hl, #(_BackgroundTiles + 0x0019)
   0170 36 E0               237 	ld	(hl), #0xe0
   0172 21r4Ar00            238 	ld	hl, #(_BackgroundTiles + 0x001a)
   0175 36 80               239 	ld	(hl), #0x80
   0177 21r4Br00            240 	ld	hl, #(_BackgroundTiles + 0x001b)
   017A 36 80               241 	ld	(hl), #0x80
   017C 21r4Cr00            242 	ld	hl, #(_BackgroundTiles + 0x001c)
   017F 36 80               243 	ld	(hl), #0x80
   0181 21r4Dr00            244 	ld	hl, #(_BackgroundTiles + 0x001d)
   0184 36 80               245 	ld	(hl), #0x80
   0186 21r4Er00            246 	ld	hl, #(_BackgroundTiles + 0x001e)
   0189 36 80               247 	ld	(hl), #0x80
   018B 21r4Fr00            248 	ld	hl, #(_BackgroundTiles + 0x001f)
   018E 36 80               249 	ld	(hl), #0x80
   0190 21r50r00            250 	ld	hl, #(_BackgroundTiles + 0x0020)
   0193 36 C0               251 	ld	(hl), #0xc0
   0195 21r51r00            252 	ld	hl, #(_BackgroundTiles + 0x0021)
   0198 36 C0               253 	ld	(hl), #0xc0
   019A 21r52r00            254 	ld	hl, #(_BackgroundTiles + 0x0022)
   019D 36 C0               255 	ld	(hl), #0xc0
   019F 21r53r00            256 	ld	hl, #(_BackgroundTiles + 0x0023)
   01A2 36 C0               257 	ld	(hl), #0xc0
   01A4 21r54r00            258 	ld	hl, #(_BackgroundTiles + 0x0024)
   01A7 36 C0               259 	ld	(hl), #0xc0
   01A9 21r55r00            260 	ld	hl, #(_BackgroundTiles + 0x0025)
   01AC 36 C0               261 	ld	(hl), #0xc0
   01AE 21r56r00            262 	ld	hl, #(_BackgroundTiles + 0x0026)
   01B1 36 C0               263 	ld	(hl), #0xc0
   01B3 21r57r00            264 	ld	hl, #(_BackgroundTiles + 0x0027)
   01B6 36 C0               265 	ld	(hl), #0xc0
   01B8 21r58r00            266 	ld	hl, #(_BackgroundTiles + 0x0028)
   01BB 36 C0               267 	ld	(hl), #0xc0
   01BD 21r59r00            268 	ld	hl, #(_BackgroundTiles + 0x0029)
   01C0 36 C0               269 	ld	(hl), #0xc0
   01C2 21r5Ar00            270 	ld	hl, #(_BackgroundTiles + 0x002a)
   01C5 36 C0               271 	ld	(hl), #0xc0
   01C7 21r5Br00            272 	ld	hl, #(_BackgroundTiles + 0x002b)
   01CA 36 C0               273 	ld	(hl), #0xc0
   01CC 21r5Cr00            274 	ld	hl, #(_BackgroundTiles + 0x002c)
   01CF 36 C0               275 	ld	(hl), #0xc0
   01D1 21r5Dr00            276 	ld	hl, #(_BackgroundTiles + 0x002d)
   01D4 36 C0               277 	ld	(hl), #0xc0
   01D6 21r5Er00            278 	ld	hl, #(_BackgroundTiles + 0x002e)
   01D9 36 C0               279 	ld	(hl), #0xc0
   01DB 21r5Fr00            280 	ld	hl, #(_BackgroundTiles + 0x002f)
   01DE 36 C0               281 	ld	(hl), #0xc0
   01E0 21r60r00            282 	ld	hl, #(_BackgroundTiles + 0x0030)
   01E3 36 FF               283 	ld	(hl), #0xff
   01E5 21r61r00            284 	ld	hl, #(_BackgroundTiles + 0x0031)
   01E8 36 FF               285 	ld	(hl), #0xff
   01EA 21r62r00            286 	ld	hl, #(_BackgroundTiles + 0x0032)
   01ED 36 FF               287 	ld	(hl), #0xff
   01EF 21r63r00            288 	ld	hl, #(_BackgroundTiles + 0x0033)
   01F2 36 FF               289 	ld	(hl), #0xff
   01F4 21r64r00            290 	ld	hl, #(_BackgroundTiles + 0x0034)
   01F7 36 FF               291 	ld	(hl), #0xff
   01F9 21r65r00            292 	ld	hl, #(_BackgroundTiles + 0x0035)
   01FC 36 FF               293 	ld	(hl), #0xff
   01FE 21r66r00            294 	ld	hl, #(_BackgroundTiles + 0x0036)
   0201 36 FF               295 	ld	(hl), #0xff
   0203 21r67r00            296 	ld	hl, #(_BackgroundTiles + 0x0037)
   0206 36 FF               297 	ld	(hl), #0xff
   0208 21r68r00            298 	ld	hl, #(_BackgroundTiles + 0x0038)
   020B 36 FF               299 	ld	(hl), #0xff
   020D 21r69r00            300 	ld	hl, #(_BackgroundTiles + 0x0039)
   0210 36 FF               301 	ld	(hl), #0xff
   0212 21r6Ar00            302 	ld	hl, #(_BackgroundTiles + 0x003a)
   0215 36 FF               303 	ld	(hl), #0xff
   0217 21r6Br00            304 	ld	hl, #(_BackgroundTiles + 0x003b)
   021A 36 FF               305 	ld	(hl), #0xff
   021C 21r6Cr00            306 	ld	hl, #(_BackgroundTiles + 0x003c)
   021F 36 FF               307 	ld	(hl), #0xff
   0221 21r6Dr00            308 	ld	hl, #(_BackgroundTiles + 0x003d)
   0224 36 FF               309 	ld	(hl), #0xff
   0226 21r6Er00            310 	ld	hl, #(_BackgroundTiles + 0x003e)
   0229 36 FF               311 	ld	(hl), #0xff
   022B 21r6Fr00            312 	ld	hl, #(_BackgroundTiles + 0x003f)
   022E 36 FF               313 	ld	(hl), #0xff
   0230 21r70r00            314 	ld	hl, #(_BackgroundTiles + 0x0040)
   0233 36 00               315 	ld	(hl), #0x00
   0235 21r71r00            316 	ld	hl, #(_BackgroundTiles + 0x0041)
   0238 36 FF               317 	ld	(hl), #0xff
   023A 21r72r00            318 	ld	hl, #(_BackgroundTiles + 0x0042)
   023D 36 00               319 	ld	(hl), #0x00
   023F 21r73r00            320 	ld	hl, #(_BackgroundTiles + 0x0043)
   0242 36 FF               321 	ld	(hl), #0xff
   0244 21r74r00            322 	ld	hl, #(_BackgroundTiles + 0x0044)
   0247 36 00               323 	ld	(hl), #0x00
   0249 21r75r00            324 	ld	hl, #(_BackgroundTiles + 0x0045)
   024C 36 FF               325 	ld	(hl), #0xff
   024E 21r76r00            326 	ld	hl, #(_BackgroundTiles + 0x0046)
   0251 36 00               327 	ld	(hl), #0x00
   0253 21r77r00            328 	ld	hl, #(_BackgroundTiles + 0x0047)
   0256 36 FF               329 	ld	(hl), #0xff
   0258 21r78r00            330 	ld	hl, #(_BackgroundTiles + 0x0048)
   025B 36 00               331 	ld	(hl), #0x00
   025D 21r79r00            332 	ld	hl, #(_BackgroundTiles + 0x0049)
   0260 36 FF               333 	ld	(hl), #0xff
   0262 21r7Ar00            334 	ld	hl, #(_BackgroundTiles + 0x004a)
   0265 36 00               335 	ld	(hl), #0x00
   0267 21r7Br00            336 	ld	hl, #(_BackgroundTiles + 0x004b)
   026A 36 FF               337 	ld	(hl), #0xff
   026C 21r7Cr00            338 	ld	hl, #(_BackgroundTiles + 0x004c)
   026F 36 00               339 	ld	(hl), #0x00
   0271 21r7Dr00            340 	ld	hl, #(_BackgroundTiles + 0x004d)
   0274 36 FF               341 	ld	(hl), #0xff
   0276 21r7Er00            342 	ld	hl, #(_BackgroundTiles + 0x004e)
   0279 36 00               343 	ld	(hl), #0x00
   027B 21r7Fr00            344 	ld	hl, #(_BackgroundTiles + 0x004f)
   027E 36 FF               345 	ld	(hl), #0xff
   0280 21r80r00            346 	ld	hl, #(_BackgroundTiles + 0x0050)
   0283 36 18               347 	ld	(hl), #0x18
   0285 21r81r00            348 	ld	hl, #(_BackgroundTiles + 0x0051)
   0288 36 18               349 	ld	(hl), #0x18
   028A 21r82r00            350 	ld	hl, #(_BackgroundTiles + 0x0052)
   028D 36 3C               351 	ld	(hl), #0x3c
   028F 21r83r00            352 	ld	hl, #(_BackgroundTiles + 0x0053)
   0292 36 3C               353 	ld	(hl), #0x3c
   0294 21r84r00            354 	ld	hl, #(_BackgroundTiles + 0x0054)
   0297 36 3C               355 	ld	(hl), #0x3c
   0299 21r85r00            356 	ld	hl, #(_BackgroundTiles + 0x0055)
   029C 36 3C               357 	ld	(hl), #0x3c
   029E 21r86r00            358 	ld	hl, #(_BackgroundTiles + 0x0056)
   02A1 36 7E               359 	ld	(hl), #0x7e
   02A3 21r87r00            360 	ld	hl, #(_BackgroundTiles + 0x0057)
   02A6 36 7E               361 	ld	(hl), #0x7e
   02A8 21r88r00            362 	ld	hl, #(_BackgroundTiles + 0x0058)
   02AB 36 7E               363 	ld	(hl), #0x7e
   02AD 21r89r00            364 	ld	hl, #(_BackgroundTiles + 0x0059)
   02B0 36 7E               365 	ld	(hl), #0x7e
   02B2 21r8Ar00            366 	ld	hl, #(_BackgroundTiles + 0x005a)
   02B5 36 FF               367 	ld	(hl), #0xff
   02B7 21r8Br00            368 	ld	hl, #(_BackgroundTiles + 0x005b)
   02BA 36 FF               369 	ld	(hl), #0xff
   02BC 21r8Cr00            370 	ld	hl, #(_BackgroundTiles + 0x005c)
   02BF 36 FF               371 	ld	(hl), #0xff
   02C1 21r8Dr00            372 	ld	hl, #(_BackgroundTiles + 0x005d)
   02C4 36 FF               373 	ld	(hl), #0xff
   02C6 21r8Er00            374 	ld	hl, #(_BackgroundTiles + 0x005e)
   02C9 36 FF               375 	ld	(hl), #0xff
   02CB 21r8Fr00            376 	ld	hl, #(_BackgroundTiles + 0x005f)
   02CE 36 FF               377 	ld	(hl), #0xff
   02D0 21r90r00            378 	ld	hl, #(_BackgroundTiles + 0x0060)
   02D3 36 E0               379 	ld	(hl), #0xe0
   02D5 21r91r00            380 	ld	hl, #(_BackgroundTiles + 0x0061)
   02D8 36 E0               381 	ld	(hl), #0xe0
   02DA 21r92r00            382 	ld	hl, #(_BackgroundTiles + 0x0062)
   02DD 36 F8               383 	ld	(hl), #0xf8
   02DF 21r93r00            384 	ld	hl, #(_BackgroundTiles + 0x0063)
   02E2 36 F8               385 	ld	(hl), #0xf8
   02E4 21r94r00            386 	ld	hl, #(_BackgroundTiles + 0x0064)
   02E7 36 FE               387 	ld	(hl), #0xfe
   02E9 21r95r00            388 	ld	hl, #(_BackgroundTiles + 0x0065)
   02EC 36 FE               389 	ld	(hl), #0xfe
   02EE 21r96r00            390 	ld	hl, #(_BackgroundTiles + 0x0066)
   02F1 36 FF               391 	ld	(hl), #0xff
   02F3 21r97r00            392 	ld	hl, #(_BackgroundTiles + 0x0067)
   02F6 36 FF               393 	ld	(hl), #0xff
   02F8 21r98r00            394 	ld	hl, #(_BackgroundTiles + 0x0068)
   02FB 36 FF               395 	ld	(hl), #0xff
   02FD 21r99r00            396 	ld	hl, #(_BackgroundTiles + 0x0069)
   0300 36 FF               397 	ld	(hl), #0xff
   0302 21r9Ar00            398 	ld	hl, #(_BackgroundTiles + 0x006a)
   0305 36 FE               399 	ld	(hl), #0xfe
   0307 21r9Br00            400 	ld	hl, #(_BackgroundTiles + 0x006b)
   030A 36 FE               401 	ld	(hl), #0xfe
   030C 21r9Cr00            402 	ld	hl, #(_BackgroundTiles + 0x006c)
   030F 36 F8               403 	ld	(hl), #0xf8
   0311 21r9Dr00            404 	ld	hl, #(_BackgroundTiles + 0x006d)
   0314 36 F8               405 	ld	(hl), #0xf8
   0316 21r9Er00            406 	ld	hl, #(_BackgroundTiles + 0x006e)
   0319 36 E0               407 	ld	(hl), #0xe0
   031B 21r9Fr00            408 	ld	hl, #(_BackgroundTiles + 0x006f)
   031E 36 E0               409 	ld	(hl), #0xe0
   0320 21rA0r00            410 	ld	hl, #(_BackgroundTiles + 0x0070)
   0323 36 FF               411 	ld	(hl), #0xff
   0325 21rA1r00            412 	ld	hl, #(_BackgroundTiles + 0x0071)
   0328 36 FF               413 	ld	(hl), #0xff
   032A 21rA2r00            414 	ld	hl, #(_BackgroundTiles + 0x0072)
   032D 36 FF               415 	ld	(hl), #0xff
   032F 21rA3r00            416 	ld	hl, #(_BackgroundTiles + 0x0073)
   0332 36 FF               417 	ld	(hl), #0xff
   0334 21rA4r00            418 	ld	hl, #(_BackgroundTiles + 0x0074)
   0337 36 FF               419 	ld	(hl), #0xff
   0339 21rA5r00            420 	ld	hl, #(_BackgroundTiles + 0x0075)
   033C 36 FF               421 	ld	(hl), #0xff
   033E 21rA6r00            422 	ld	hl, #(_BackgroundTiles + 0x0076)
   0341 36 7E               423 	ld	(hl), #0x7e
   0343 21rA7r00            424 	ld	hl, #(_BackgroundTiles + 0x0077)
   0346 36 7E               425 	ld	(hl), #0x7e
   0348 21rA8r00            426 	ld	hl, #(_BackgroundTiles + 0x0078)
   034B 36 7E               427 	ld	(hl), #0x7e
   034D 21rA9r00            428 	ld	hl, #(_BackgroundTiles + 0x0079)
   0350 36 7E               429 	ld	(hl), #0x7e
   0352 21rAAr00            430 	ld	hl, #(_BackgroundTiles + 0x007a)
   0355 36 3C               431 	ld	(hl), #0x3c
   0357 21rABr00            432 	ld	hl, #(_BackgroundTiles + 0x007b)
   035A 36 3C               433 	ld	(hl), #0x3c
   035C 21rACr00            434 	ld	hl, #(_BackgroundTiles + 0x007c)
   035F 36 3C               435 	ld	(hl), #0x3c
   0361 21rADr00            436 	ld	hl, #(_BackgroundTiles + 0x007d)
   0364 36 3C               437 	ld	(hl), #0x3c
   0366 21rAEr00            438 	ld	hl, #(_BackgroundTiles + 0x007e)
   0369 36 18               439 	ld	(hl), #0x18
   036B 21rAFr00            440 	ld	hl, #(_BackgroundTiles + 0x007f)
   036E 36 18               441 	ld	(hl), #0x18
   0370 21rB0r00            442 	ld	hl, #(_BackgroundTiles + 0x0080)
   0373 36 07               443 	ld	(hl), #0x07
   0375 21rB1r00            444 	ld	hl, #(_BackgroundTiles + 0x0081)
   0378 36 07               445 	ld	(hl), #0x07
   037A 21rB2r00            446 	ld	hl, #(_BackgroundTiles + 0x0082)
   037D 36 1F               447 	ld	(hl), #0x1f
   037F 21rB3r00            448 	ld	hl, #(_BackgroundTiles + 0x0083)
   0382 36 1F               449 	ld	(hl), #0x1f
   0384 21rB4r00            450 	ld	hl, #(_BackgroundTiles + 0x0084)
   0387 36 7F               451 	ld	(hl), #0x7f
   0389 21rB5r00            452 	ld	hl, #(_BackgroundTiles + 0x0085)
   038C 36 7F               453 	ld	(hl), #0x7f
   038E 21rB6r00            454 	ld	hl, #(_BackgroundTiles + 0x0086)
   0391 36 FF               455 	ld	(hl), #0xff
   0393 21rB7r00            456 	ld	hl, #(_BackgroundTiles + 0x0087)
   0396 36 FF               457 	ld	(hl), #0xff
   0398 21rB8r00            458 	ld	hl, #(_BackgroundTiles + 0x0088)
   039B 36 FF               459 	ld	(hl), #0xff
   039D 21rB9r00            460 	ld	hl, #(_BackgroundTiles + 0x0089)
   03A0 36 FF               461 	ld	(hl), #0xff
   03A2 21rBAr00            462 	ld	hl, #(_BackgroundTiles + 0x008a)
   03A5 36 7F               463 	ld	(hl), #0x7f
   03A7 21rBBr00            464 	ld	hl, #(_BackgroundTiles + 0x008b)
   03AA 36 7F               465 	ld	(hl), #0x7f
   03AC 21rBCr00            466 	ld	hl, #(_BackgroundTiles + 0x008c)
   03AF 36 1F               467 	ld	(hl), #0x1f
   03B1 21rBDr00            468 	ld	hl, #(_BackgroundTiles + 0x008d)
   03B4 36 1F               469 	ld	(hl), #0x1f
   03B6 21rBEr00            470 	ld	hl, #(_BackgroundTiles + 0x008e)
   03B9 36 07               471 	ld	(hl), #0x07
   03BB 21rBFr00            472 	ld	hl, #(_BackgroundTiles + 0x008f)
   03BE 36 07               473 	ld	(hl), #0x07
   03C0 21rC0r00            474 	ld	hl, #(_BackgroundTiles + 0x0090)
   03C3 36 3C               475 	ld	(hl), #0x3c
   03C5 21rC1r00            476 	ld	hl, #(_BackgroundTiles + 0x0091)
   03C8 36 00               477 	ld	(hl), #0x00
   03CA 21rC2r00            478 	ld	hl, #(_BackgroundTiles + 0x0092)
   03CD 36 3C               479 	ld	(hl), #0x3c
   03CF 21rC3r00            480 	ld	hl, #(_BackgroundTiles + 0x0093)
   03D2 36 00               481 	ld	(hl), #0x00
   03D4 21rC4r00            482 	ld	hl, #(_BackgroundTiles + 0x0094)
   03D7 36 3C               483 	ld	(hl), #0x3c
   03D9 21rC5r00            484 	ld	hl, #(_BackgroundTiles + 0x0095)
   03DC 36 00               485 	ld	(hl), #0x00
   03DE 21rC6r00            486 	ld	hl, #(_BackgroundTiles + 0x0096)
   03E1 36 3C               487 	ld	(hl), #0x3c
   03E3 21rC7r00            488 	ld	hl, #(_BackgroundTiles + 0x0097)
   03E6 36 00               489 	ld	(hl), #0x00
   03E8 21rC8r00            490 	ld	hl, #(_BackgroundTiles + 0x0098)
   03EB 36 7E               491 	ld	(hl), #0x7e
   03ED 21rC9r00            492 	ld	hl, #(_BackgroundTiles + 0x0099)
   03F0 36 42               493 	ld	(hl), #0x42
   03F2 21rCAr00            494 	ld	hl, #(_BackgroundTiles + 0x009a)
   03F5 36 7E               495 	ld	(hl), #0x7e
   03F7 21rCBr00            496 	ld	hl, #(_BackgroundTiles + 0x009b)
   03FA 36 42               497 	ld	(hl), #0x42
   03FC 21rCCr00            498 	ld	hl, #(_BackgroundTiles + 0x009c)
   03FF 36 42               499 	ld	(hl), #0x42
   0401 21rCDr00            500 	ld	hl, #(_BackgroundTiles + 0x009d)
   0404 36 7E               501 	ld	(hl), #0x7e
   0406 21rCEr00            502 	ld	hl, #(_BackgroundTiles + 0x009e)
   0409 36 81               503 	ld	(hl), #0x81
   040B 21rCFr00            504 	ld	hl, #(_BackgroundTiles + 0x009f)
   040E 36 FF               505 	ld	(hl), #0xff
   0410 21rD0r00            506 	ld	hl, #(_BackgroundTiles + 0x00a0)
   0413 36 3C               507 	ld	(hl), #0x3c
   0415 21rD1r00            508 	ld	hl, #(_BackgroundTiles + 0x00a1)
   0418 36 00               509 	ld	(hl), #0x00
   041A 21rD2r00            510 	ld	hl, #(_BackgroundTiles + 0x00a2)
   041D 36 3C               511 	ld	(hl), #0x3c
   041F 21rD3r00            512 	ld	hl, #(_BackgroundTiles + 0x00a3)
   0422 36 00               513 	ld	(hl), #0x00
   0424 21rD4r00            514 	ld	hl, #(_BackgroundTiles + 0x00a4)
   0427 36 3C               515 	ld	(hl), #0x3c
   0429 21rD5r00            516 	ld	hl, #(_BackgroundTiles + 0x00a5)
   042C 36 00               517 	ld	(hl), #0x00
   042E 21rD6r00            518 	ld	hl, #(_BackgroundTiles + 0x00a6)
   0431 36 3C               519 	ld	(hl), #0x3c
   0433 21rD7r00            520 	ld	hl, #(_BackgroundTiles + 0x00a7)
   0436 36 00               521 	ld	(hl), #0x00
   0438 21rD8r00            522 	ld	hl, #(_BackgroundTiles + 0x00a8)
   043B 36 7E               523 	ld	(hl), #0x7e
   043D 21rD9r00            524 	ld	hl, #(_BackgroundTiles + 0x00a9)
   0440 36 42               525 	ld	(hl), #0x42
   0442 21rDAr00            526 	ld	hl, #(_BackgroundTiles + 0x00aa)
   0445 36 7E               527 	ld	(hl), #0x7e
   0447 21rDBr00            528 	ld	hl, #(_BackgroundTiles + 0x00ab)
   044A 36 42               529 	ld	(hl), #0x42
   044C 21rDCr00            530 	ld	hl, #(_BackgroundTiles + 0x00ac)
   044F 36 42               531 	ld	(hl), #0x42
   0451 21rDDr00            532 	ld	hl, #(_BackgroundTiles + 0x00ad)
   0454 36 7E               533 	ld	(hl), #0x7e
   0456 21rDEr00            534 	ld	hl, #(_BackgroundTiles + 0x00ae)
   0459 36 81               535 	ld	(hl), #0x81
   045B 21rDFr00            536 	ld	hl, #(_BackgroundTiles + 0x00af)
   045E 36 FF               537 	ld	(hl), #0xff
   0460 21rE0r00            538 	ld	hl, #(_BackgroundTiles + 0x00b0)
   0463 36 3C               539 	ld	(hl), #0x3c
   0465 21rE1r00            540 	ld	hl, #(_BackgroundTiles + 0x00b1)
   0468 36 00               541 	ld	(hl), #0x00
   046A 21rE2r00            542 	ld	hl, #(_BackgroundTiles + 0x00b2)
   046D 36 3C               543 	ld	(hl), #0x3c
   046F 21rE3r00            544 	ld	hl, #(_BackgroundTiles + 0x00b3)
   0472 36 00               545 	ld	(hl), #0x00
   0474 21rE4r00            546 	ld	hl, #(_BackgroundTiles + 0x00b4)
   0477 36 3C               547 	ld	(hl), #0x3c
   0479 21rE5r00            548 	ld	hl, #(_BackgroundTiles + 0x00b5)
   047C 36 00               549 	ld	(hl), #0x00
   047E 21rE6r00            550 	ld	hl, #(_BackgroundTiles + 0x00b6)
   0481 36 3C               551 	ld	(hl), #0x3c
   0483 21rE7r00            552 	ld	hl, #(_BackgroundTiles + 0x00b7)
   0486 36 00               553 	ld	(hl), #0x00
   0488 21rE8r00            554 	ld	hl, #(_BackgroundTiles + 0x00b8)
   048B 36 7E               555 	ld	(hl), #0x7e
   048D 21rE9r00            556 	ld	hl, #(_BackgroundTiles + 0x00b9)
   0490 36 42               557 	ld	(hl), #0x42
   0492 21rEAr00            558 	ld	hl, #(_BackgroundTiles + 0x00ba)
   0495 36 7E               559 	ld	(hl), #0x7e
   0497 21rEBr00            560 	ld	hl, #(_BackgroundTiles + 0x00bb)
   049A 36 42               561 	ld	(hl), #0x42
   049C 21rECr00            562 	ld	hl, #(_BackgroundTiles + 0x00bc)
   049F 36 42               563 	ld	(hl), #0x42
   04A1 21rEDr00            564 	ld	hl, #(_BackgroundTiles + 0x00bd)
   04A4 36 7E               565 	ld	(hl), #0x7e
   04A6 21rEEr00            566 	ld	hl, #(_BackgroundTiles + 0x00be)
   04A9 36 81               567 	ld	(hl), #0x81
   04AB 21rEFr00            568 	ld	hl, #(_BackgroundTiles + 0x00bf)
   04AE 36 FF               569 	ld	(hl), #0xff
                            570 ;d:/Programming/C++/GameBoyJam/gbdk/include/gb/bgb_emu.h:42: static void * __BGB_PROFILER_INIT = &BGB_profiler_message;
   04B0 21rF3r00            571 	ld	hl, #___BGB_PROFILER_INIT
   04B3 36r00               572 	ld	(hl), #<(_BGB_profiler_message)
   04B5 23                  573 	inc	hl
   04B6 36s00               574 	ld	(hl), #>(_BGB_profiler_message)
                            575 ;./src/./player.c:2: static bool teleporter_active = true;
   04B8 21rF5r02            576 	ld	hl, #_teleporter_active
   04BB 36 01               577 	ld	(hl), #0x01
                            578 ;./src/./maps.c:20: UINT8 current_level = 0;
   04BD 21rF6r02            579 	ld	hl, #_current_level
   04C0 36 00               580 	ld	(hl), #0x00
                            581 ;./src/./physics.c:2: UINT8 gravity_time = 0;
   04C2 21rF7r02            582 	ld	hl, #_gravity_time
   04C5 36 00               583 	ld	(hl), #0x00
                            584 ;./src/./bank.c:32: unsigned char maps[TOTAL_MAP_NUM][TOTAL_TILES] =
   04C7 21rF8r02            585 	ld	hl, #_maps
   04CA 36 04               586 	ld	(hl), #0x04
   04CC 21rF9r02            587 	ld	hl, #(_maps + 0x0001)
   04CF 36 04               588 	ld	(hl), #0x04
   04D1 21rFAr02            589 	ld	hl, #(_maps + 0x0002)
   04D4 36 04               590 	ld	(hl), #0x04
   04D6 21rFBr02            591 	ld	hl, #(_maps + 0x0003)
   04D9 36 04               592 	ld	(hl), #0x04
   04DB 21rFCr02            593 	ld	hl, #(_maps + 0x0004)
   04DE 36 04               594 	ld	(hl), #0x04
   04E0 21rFDr02            595 	ld	hl, #(_maps + 0x0005)
   04E3 36 04               596 	ld	(hl), #0x04
   04E5 21rFEr02            597 	ld	hl, #(_maps + 0x0006)
   04E8 36 04               598 	ld	(hl), #0x04
   04EA 21rFFr02            599 	ld	hl, #(_maps + 0x0007)
   04ED 36 04               600 	ld	(hl), #0x04
   04EF 21r00r03            601 	ld	hl, #(_maps + 0x0008)
   04F2 36 04               602 	ld	(hl), #0x04
   04F4 21r01r03            603 	ld	hl, #(_maps + 0x0009)
   04F7 36 04               604 	ld	(hl), #0x04
   04F9 21r02r03            605 	ld	hl, #(_maps + 0x000a)
   04FC 36 04               606 	ld	(hl), #0x04
   04FE 21r03r03            607 	ld	hl, #(_maps + 0x000b)
   0501 36 04               608 	ld	(hl), #0x04
   0503 21r04r03            609 	ld	hl, #(_maps + 0x000c)
   0506 36 04               610 	ld	(hl), #0x04
   0508 21r05r03            611 	ld	hl, #(_maps + 0x000d)
   050B 36 04               612 	ld	(hl), #0x04
   050D 21r06r03            613 	ld	hl, #(_maps + 0x000e)
   0510 36 04               614 	ld	(hl), #0x04
   0512 21r07r03            615 	ld	hl, #(_maps + 0x000f)
   0515 36 04               616 	ld	(hl), #0x04
   0517 21r08r03            617 	ld	hl, #(_maps + 0x0010)
   051A 36 04               618 	ld	(hl), #0x04
   051C 21r09r03            619 	ld	hl, #(_maps + 0x0011)
   051F 36 04               620 	ld	(hl), #0x04
   0521 21r0Ar03            621 	ld	hl, #(_maps + 0x0012)
   0524 36 04               622 	ld	(hl), #0x04
   0526 21r0Br03            623 	ld	hl, #(_maps + 0x0013)
   0529 36 04               624 	ld	(hl), #0x04
   052B 21r0Cr03            625 	ld	hl, #(_maps + 0x0014)
   052E 36 04               626 	ld	(hl), #0x04
   0530 21r0Dr03            627 	ld	hl, #(_maps + 0x0015)
   0533 36 00               628 	ld	(hl), #0x00
   0535 21r0Er03            629 	ld	hl, #(_maps + 0x0016)
   0538 36 00               630 	ld	(hl), #0x00
   053A 21r0Fr03            631 	ld	hl, #(_maps + 0x0017)
   053D 36 00               632 	ld	(hl), #0x00
   053F 21r10r03            633 	ld	hl, #(_maps + 0x0018)
   0542 36 00               634 	ld	(hl), #0x00
   0544 21r11r03            635 	ld	hl, #(_maps + 0x0019)
   0547 36 00               636 	ld	(hl), #0x00
   0549 21r12r03            637 	ld	hl, #(_maps + 0x001a)
   054C 36 00               638 	ld	(hl), #0x00
   054E 21r13r03            639 	ld	hl, #(_maps + 0x001b)
   0551 36 00               640 	ld	(hl), #0x00
   0553 21r14r03            641 	ld	hl, #(_maps + 0x001c)
   0556 36 00               642 	ld	(hl), #0x00
   0558 21r15r03            643 	ld	hl, #(_maps + 0x001d)
   055B 36 00               644 	ld	(hl), #0x00
   055D 21r16r03            645 	ld	hl, #(_maps + 0x001e)
   0560 36 00               646 	ld	(hl), #0x00
   0562 21r17r03            647 	ld	hl, #(_maps + 0x001f)
   0565 36 00               648 	ld	(hl), #0x00
   0567 21r18r03            649 	ld	hl, #(_maps + 0x0020)
   056A 36 00               650 	ld	(hl), #0x00
   056C 21r19r03            651 	ld	hl, #(_maps + 0x0021)
   056F 36 00               652 	ld	(hl), #0x00
   0571 21r1Ar03            653 	ld	hl, #(_maps + 0x0022)
   0574 36 00               654 	ld	(hl), #0x00
   0576 21r1Br03            655 	ld	hl, #(_maps + 0x0023)
   0579 36 00               656 	ld	(hl), #0x00
   057B 21r1Cr03            657 	ld	hl, #(_maps + 0x0024)
   057E 36 00               658 	ld	(hl), #0x00
   0580 21r1Dr03            659 	ld	hl, #(_maps + 0x0025)
   0583 36 00               660 	ld	(hl), #0x00
   0585 21r1Er03            661 	ld	hl, #(_maps + 0x0026)
   0588 36 00               662 	ld	(hl), #0x00
   058A 21r1Fr03            663 	ld	hl, #(_maps + 0x0027)
   058D 36 04               664 	ld	(hl), #0x04
   058F 21r20r03            665 	ld	hl, #(_maps + 0x0028)
   0592 36 04               666 	ld	(hl), #0x04
   0594 21r21r03            667 	ld	hl, #(_maps + 0x0029)
   0597 36 00               668 	ld	(hl), #0x00
   0599 21r22r03            669 	ld	hl, #(_maps + 0x002a)
   059C 36 00               670 	ld	(hl), #0x00
   059E 21r23r03            671 	ld	hl, #(_maps + 0x002b)
   05A1 36 00               672 	ld	(hl), #0x00
   05A3 21r24r03            673 	ld	hl, #(_maps + 0x002c)
   05A6 36 00               674 	ld	(hl), #0x00
   05A8 21r25r03            675 	ld	hl, #(_maps + 0x002d)
   05AB 36 00               676 	ld	(hl), #0x00
   05AD 21r26r03            677 	ld	hl, #(_maps + 0x002e)
   05B0 36 00               678 	ld	(hl), #0x00
   05B2 21r27r03            679 	ld	hl, #(_maps + 0x002f)
   05B5 36 00               680 	ld	(hl), #0x00
   05B7 21r28r03            681 	ld	hl, #(_maps + 0x0030)
   05BA 36 00               682 	ld	(hl), #0x00
   05BC 21r29r03            683 	ld	hl, #(_maps + 0x0031)
   05BF 36 00               684 	ld	(hl), #0x00
   05C1 21r2Ar03            685 	ld	hl, #(_maps + 0x0032)
   05C4 36 00               686 	ld	(hl), #0x00
   05C6 21r2Br03            687 	ld	hl, #(_maps + 0x0033)
   05C9 36 00               688 	ld	(hl), #0x00
   05CB 21r2Cr03            689 	ld	hl, #(_maps + 0x0034)
   05CE 36 00               690 	ld	(hl), #0x00
   05D0 21r2Dr03            691 	ld	hl, #(_maps + 0x0035)
   05D3 36 00               692 	ld	(hl), #0x00
   05D5 21r2Er03            693 	ld	hl, #(_maps + 0x0036)
   05D8 36 00               694 	ld	(hl), #0x00
   05DA 21r2Fr03            695 	ld	hl, #(_maps + 0x0037)
   05DD 36 00               696 	ld	(hl), #0x00
   05DF 21r30r03            697 	ld	hl, #(_maps + 0x0038)
   05E2 36 00               698 	ld	(hl), #0x00
   05E4 21r31r03            699 	ld	hl, #(_maps + 0x0039)
   05E7 36 00               700 	ld	(hl), #0x00
   05E9 21r32r03            701 	ld	hl, #(_maps + 0x003a)
   05EC 36 00               702 	ld	(hl), #0x00
   05EE 21r33r03            703 	ld	hl, #(_maps + 0x003b)
   05F1 36 04               704 	ld	(hl), #0x04
   05F3 21r34r03            705 	ld	hl, #(_maps + 0x003c)
   05F6 36 04               706 	ld	(hl), #0x04
   05F8 21r35r03            707 	ld	hl, #(_maps + 0x003d)
   05FB 36 00               708 	ld	(hl), #0x00
   05FD 21r36r03            709 	ld	hl, #(_maps + 0x003e)
   0600 36 00               710 	ld	(hl), #0x00
   0602 21r37r03            711 	ld	hl, #(_maps + 0x003f)
   0605 36 00               712 	ld	(hl), #0x00
   0607 21r38r03            713 	ld	hl, #(_maps + 0x0040)
   060A 36 00               714 	ld	(hl), #0x00
   060C 21r39r03            715 	ld	hl, #(_maps + 0x0041)
   060F 36 00               716 	ld	(hl), #0x00
   0611 21r3Ar03            717 	ld	hl, #(_maps + 0x0042)
   0614 36 00               718 	ld	(hl), #0x00
   0616 21r3Br03            719 	ld	hl, #(_maps + 0x0043)
   0619 36 00               720 	ld	(hl), #0x00
   061B 21r3Cr03            721 	ld	hl, #(_maps + 0x0044)
   061E 36 00               722 	ld	(hl), #0x00
   0620 21r3Dr03            723 	ld	hl, #(_maps + 0x0045)
   0623 36 00               724 	ld	(hl), #0x00
   0625 21r3Er03            725 	ld	hl, #(_maps + 0x0046)
   0628 36 00               726 	ld	(hl), #0x00
   062A 21r3Fr03            727 	ld	hl, #(_maps + 0x0047)
   062D 36 00               728 	ld	(hl), #0x00
   062F 21r40r03            729 	ld	hl, #(_maps + 0x0048)
   0632 36 00               730 	ld	(hl), #0x00
   0634 21r41r03            731 	ld	hl, #(_maps + 0x0049)
   0637 36 00               732 	ld	(hl), #0x00
   0639 21r42r03            733 	ld	hl, #(_maps + 0x004a)
   063C 36 00               734 	ld	(hl), #0x00
   063E 21r43r03            735 	ld	hl, #(_maps + 0x004b)
   0641 36 00               736 	ld	(hl), #0x00
   0643 21r44r03            737 	ld	hl, #(_maps + 0x004c)
   0646 36 00               738 	ld	(hl), #0x00
   0648 21r45r03            739 	ld	hl, #(_maps + 0x004d)
   064B 36 00               740 	ld	(hl), #0x00
   064D 21r46r03            741 	ld	hl, #(_maps + 0x004e)
   0650 36 00               742 	ld	(hl), #0x00
   0652 21r47r03            743 	ld	hl, #(_maps + 0x004f)
   0655 36 04               744 	ld	(hl), #0x04
   0657 21r48r03            745 	ld	hl, #(_maps + 0x0050)
   065A 36 04               746 	ld	(hl), #0x04
   065C 21r49r03            747 	ld	hl, #(_maps + 0x0051)
   065F 36 00               748 	ld	(hl), #0x00
   0661 21r4Ar03            749 	ld	hl, #(_maps + 0x0052)
   0664 36 00               750 	ld	(hl), #0x00
   0666 21r4Br03            751 	ld	hl, #(_maps + 0x0053)
   0669 36 00               752 	ld	(hl), #0x00
   066B 21r4Cr03            753 	ld	hl, #(_maps + 0x0054)
   066E 36 00               754 	ld	(hl), #0x00
   0670 21r4Dr03            755 	ld	hl, #(_maps + 0x0055)
   0673 36 00               756 	ld	(hl), #0x00
   0675 21r4Er03            757 	ld	hl, #(_maps + 0x0056)
   0678 36 00               758 	ld	(hl), #0x00
   067A 21r4Fr03            759 	ld	hl, #(_maps + 0x0057)
   067D 36 00               760 	ld	(hl), #0x00
   067F 21r50r03            761 	ld	hl, #(_maps + 0x0058)
   0682 36 00               762 	ld	(hl), #0x00
   0684 21r51r03            763 	ld	hl, #(_maps + 0x0059)
   0687 36 00               764 	ld	(hl), #0x00
   0689 21r52r03            765 	ld	hl, #(_maps + 0x005a)
   068C 36 00               766 	ld	(hl), #0x00
   068E 21r53r03            767 	ld	hl, #(_maps + 0x005b)
   0691 36 00               768 	ld	(hl), #0x00
   0693 21r54r03            769 	ld	hl, #(_maps + 0x005c)
   0696 36 00               770 	ld	(hl), #0x00
   0698 21r55r03            771 	ld	hl, #(_maps + 0x005d)
   069B 36 00               772 	ld	(hl), #0x00
   069D 21r56r03            773 	ld	hl, #(_maps + 0x005e)
   06A0 36 00               774 	ld	(hl), #0x00
   06A2 21r57r03            775 	ld	hl, #(_maps + 0x005f)
   06A5 36 00               776 	ld	(hl), #0x00
   06A7 21r58r03            777 	ld	hl, #(_maps + 0x0060)
   06AA 36 00               778 	ld	(hl), #0x00
   06AC 21r59r03            779 	ld	hl, #(_maps + 0x0061)
   06AF 36 00               780 	ld	(hl), #0x00
   06B1 21r5Ar03            781 	ld	hl, #(_maps + 0x0062)
   06B4 36 00               782 	ld	(hl), #0x00
   06B6 21r5Br03            783 	ld	hl, #(_maps + 0x0063)
   06B9 36 04               784 	ld	(hl), #0x04
   06BB 21r5Cr03            785 	ld	hl, #(_maps + 0x0064)
   06BE 36 04               786 	ld	(hl), #0x04
   06C0 21r5Dr03            787 	ld	hl, #(_maps + 0x0065)
   06C3 36 00               788 	ld	(hl), #0x00
   06C5 21r5Er03            789 	ld	hl, #(_maps + 0x0066)
   06C8 36 00               790 	ld	(hl), #0x00
   06CA 21r5Fr03            791 	ld	hl, #(_maps + 0x0067)
   06CD 36 00               792 	ld	(hl), #0x00
   06CF 21r60r03            793 	ld	hl, #(_maps + 0x0068)
   06D2 36 00               794 	ld	(hl), #0x00
   06D4 21r61r03            795 	ld	hl, #(_maps + 0x0069)
   06D7 36 00               796 	ld	(hl), #0x00
   06D9 21r62r03            797 	ld	hl, #(_maps + 0x006a)
   06DC 36 00               798 	ld	(hl), #0x00
   06DE 21r63r03            799 	ld	hl, #(_maps + 0x006b)
   06E1 36 00               800 	ld	(hl), #0x00
   06E3 21r64r03            801 	ld	hl, #(_maps + 0x006c)
   06E6 36 00               802 	ld	(hl), #0x00
   06E8 21r65r03            803 	ld	hl, #(_maps + 0x006d)
   06EB 36 00               804 	ld	(hl), #0x00
   06ED 21r66r03            805 	ld	hl, #(_maps + 0x006e)
   06F0 36 00               806 	ld	(hl), #0x00
   06F2 21r67r03            807 	ld	hl, #(_maps + 0x006f)
   06F5 36 00               808 	ld	(hl), #0x00
   06F7 21r68r03            809 	ld	hl, #(_maps + 0x0070)
   06FA 36 00               810 	ld	(hl), #0x00
   06FC 21r69r03            811 	ld	hl, #(_maps + 0x0071)
   06FF 36 00               812 	ld	(hl), #0x00
   0701 21r6Ar03            813 	ld	hl, #(_maps + 0x0072)
   0704 36 00               814 	ld	(hl), #0x00
   0706 21r6Br03            815 	ld	hl, #(_maps + 0x0073)
   0709 36 00               816 	ld	(hl), #0x00
   070B 21r6Cr03            817 	ld	hl, #(_maps + 0x0074)
   070E 36 00               818 	ld	(hl), #0x00
   0710 21r6Dr03            819 	ld	hl, #(_maps + 0x0075)
   0713 36 00               820 	ld	(hl), #0x00
   0715 21r6Er03            821 	ld	hl, #(_maps + 0x0076)
   0718 36 00               822 	ld	(hl), #0x00
   071A 21r6Fr03            823 	ld	hl, #(_maps + 0x0077)
   071D 36 04               824 	ld	(hl), #0x04
   071F 21r70r03            825 	ld	hl, #(_maps + 0x0078)
   0722 36 04               826 	ld	(hl), #0x04
   0724 21r71r03            827 	ld	hl, #(_maps + 0x0079)
   0727 36 00               828 	ld	(hl), #0x00
   0729 21r72r03            829 	ld	hl, #(_maps + 0x007a)
   072C 36 00               830 	ld	(hl), #0x00
   072E 21r73r03            831 	ld	hl, #(_maps + 0x007b)
   0731 36 00               832 	ld	(hl), #0x00
   0733 21r74r03            833 	ld	hl, #(_maps + 0x007c)
   0736 36 00               834 	ld	(hl), #0x00
   0738 21r75r03            835 	ld	hl, #(_maps + 0x007d)
   073B 36 00               836 	ld	(hl), #0x00
   073D 21r76r03            837 	ld	hl, #(_maps + 0x007e)
   0740 36 00               838 	ld	(hl), #0x00
   0742 21r77r03            839 	ld	hl, #(_maps + 0x007f)
   0745 36 00               840 	ld	(hl), #0x00
   0747 21r78r03            841 	ld	hl, #(_maps + 0x0080)
   074A 36 00               842 	ld	(hl), #0x00
   074C 21r79r03            843 	ld	hl, #(_maps + 0x0081)
   074F 36 00               844 	ld	(hl), #0x00
   0751 21r7Ar03            845 	ld	hl, #(_maps + 0x0082)
   0754 36 00               846 	ld	(hl), #0x00
   0756 21r7Br03            847 	ld	hl, #(_maps + 0x0083)
   0759 36 00               848 	ld	(hl), #0x00
   075B 21r7Cr03            849 	ld	hl, #(_maps + 0x0084)
   075E 36 00               850 	ld	(hl), #0x00
   0760 21r7Dr03            851 	ld	hl, #(_maps + 0x0085)
   0763 36 00               852 	ld	(hl), #0x00
   0765 21r7Er03            853 	ld	hl, #(_maps + 0x0086)
   0768 36 00               854 	ld	(hl), #0x00
   076A 21r7Fr03            855 	ld	hl, #(_maps + 0x0087)
   076D 36 00               856 	ld	(hl), #0x00
   076F 21r80r03            857 	ld	hl, #(_maps + 0x0088)
   0772 36 00               858 	ld	(hl), #0x00
   0774 21r81r03            859 	ld	hl, #(_maps + 0x0089)
   0777 36 00               860 	ld	(hl), #0x00
   0779 21r82r03            861 	ld	hl, #(_maps + 0x008a)
   077C 36 00               862 	ld	(hl), #0x00
   077E 21r83r03            863 	ld	hl, #(_maps + 0x008b)
   0781 36 04               864 	ld	(hl), #0x04
   0783 21r84r03            865 	ld	hl, #(_maps + 0x008c)
   0786 36 04               866 	ld	(hl), #0x04
   0788 21r85r03            867 	ld	hl, #(_maps + 0x008d)
   078B 36 00               868 	ld	(hl), #0x00
   078D 21r86r03            869 	ld	hl, #(_maps + 0x008e)
   0790 36 00               870 	ld	(hl), #0x00
   0792 21r87r03            871 	ld	hl, #(_maps + 0x008f)
   0795 36 00               872 	ld	(hl), #0x00
   0797 21r88r03            873 	ld	hl, #(_maps + 0x0090)
   079A 36 00               874 	ld	(hl), #0x00
   079C 21r89r03            875 	ld	hl, #(_maps + 0x0091)
   079F 36 00               876 	ld	(hl), #0x00
   07A1 21r8Ar03            877 	ld	hl, #(_maps + 0x0092)
   07A4 36 00               878 	ld	(hl), #0x00
   07A6 21r8Br03            879 	ld	hl, #(_maps + 0x0093)
   07A9 36 00               880 	ld	(hl), #0x00
   07AB 21r8Cr03            881 	ld	hl, #(_maps + 0x0094)
   07AE 36 00               882 	ld	(hl), #0x00
   07B0 21r8Dr03            883 	ld	hl, #(_maps + 0x0095)
   07B3 36 00               884 	ld	(hl), #0x00
   07B5 21r8Er03            885 	ld	hl, #(_maps + 0x0096)
   07B8 36 00               886 	ld	(hl), #0x00
   07BA 21r8Fr03            887 	ld	hl, #(_maps + 0x0097)
   07BD 36 00               888 	ld	(hl), #0x00
   07BF 21r90r03            889 	ld	hl, #(_maps + 0x0098)
   07C2 36 00               890 	ld	(hl), #0x00
   07C4 21r91r03            891 	ld	hl, #(_maps + 0x0099)
   07C7 36 00               892 	ld	(hl), #0x00
   07C9 21r92r03            893 	ld	hl, #(_maps + 0x009a)
   07CC 36 00               894 	ld	(hl), #0x00
   07CE 21r93r03            895 	ld	hl, #(_maps + 0x009b)
   07D1 36 00               896 	ld	(hl), #0x00
   07D3 21r94r03            897 	ld	hl, #(_maps + 0x009c)
   07D6 36 00               898 	ld	(hl), #0x00
   07D8 21r95r03            899 	ld	hl, #(_maps + 0x009d)
   07DB 36 00               900 	ld	(hl), #0x00
   07DD 21r96r03            901 	ld	hl, #(_maps + 0x009e)
   07E0 36 00               902 	ld	(hl), #0x00
   07E2 21r97r03            903 	ld	hl, #(_maps + 0x009f)
   07E5 36 04               904 	ld	(hl), #0x04
   07E7 21r98r03            905 	ld	hl, #(_maps + 0x00a0)
   07EA 36 04               906 	ld	(hl), #0x04
   07EC 21r99r03            907 	ld	hl, #(_maps + 0x00a1)
   07EF 36 00               908 	ld	(hl), #0x00
   07F1 21r9Ar03            909 	ld	hl, #(_maps + 0x00a2)
   07F4 36 00               910 	ld	(hl), #0x00
   07F6 21r9Br03            911 	ld	hl, #(_maps + 0x00a3)
   07F9 36 00               912 	ld	(hl), #0x00
   07FB 21r9Cr03            913 	ld	hl, #(_maps + 0x00a4)
   07FE 36 00               914 	ld	(hl), #0x00
   0800 21r9Dr03            915 	ld	hl, #(_maps + 0x00a5)
   0803 36 00               916 	ld	(hl), #0x00
   0805 21r9Er03            917 	ld	hl, #(_maps + 0x00a6)
   0808 36 00               918 	ld	(hl), #0x00
   080A 21r9Fr03            919 	ld	hl, #(_maps + 0x00a7)
   080D 36 00               920 	ld	(hl), #0x00
   080F 21rA0r03            921 	ld	hl, #(_maps + 0x00a8)
   0812 36 00               922 	ld	(hl), #0x00
   0814 21rA1r03            923 	ld	hl, #(_maps + 0x00a9)
   0817 36 00               924 	ld	(hl), #0x00
   0819 21rA2r03            925 	ld	hl, #(_maps + 0x00aa)
   081C 36 00               926 	ld	(hl), #0x00
   081E 21rA3r03            927 	ld	hl, #(_maps + 0x00ab)
   0821 36 00               928 	ld	(hl), #0x00
   0823 21rA4r03            929 	ld	hl, #(_maps + 0x00ac)
   0826 36 00               930 	ld	(hl), #0x00
   0828 21rA5r03            931 	ld	hl, #(_maps + 0x00ad)
   082B 36 00               932 	ld	(hl), #0x00
   082D 21rA6r03            933 	ld	hl, #(_maps + 0x00ae)
   0830 36 00               934 	ld	(hl), #0x00
   0832 21rA7r03            935 	ld	hl, #(_maps + 0x00af)
   0835 36 00               936 	ld	(hl), #0x00
   0837 21rA8r03            937 	ld	hl, #(_maps + 0x00b0)
   083A 36 00               938 	ld	(hl), #0x00
   083C 21rA9r03            939 	ld	hl, #(_maps + 0x00b1)
   083F 36 00               940 	ld	(hl), #0x00
   0841 21rAAr03            941 	ld	hl, #(_maps + 0x00b2)
   0844 36 00               942 	ld	(hl), #0x00
   0846 21rABr03            943 	ld	hl, #(_maps + 0x00b3)
   0849 36 04               944 	ld	(hl), #0x04
   084B 21rACr03            945 	ld	hl, #(_maps + 0x00b4)
   084E 36 04               946 	ld	(hl), #0x04
   0850 21rADr03            947 	ld	hl, #(_maps + 0x00b5)
   0853 36 00               948 	ld	(hl), #0x00
   0855 21rAEr03            949 	ld	hl, #(_maps + 0x00b6)
   0858 36 00               950 	ld	(hl), #0x00
   085A 21rAFr03            951 	ld	hl, #(_maps + 0x00b7)
   085D 36 00               952 	ld	(hl), #0x00
   085F 21rB0r03            953 	ld	hl, #(_maps + 0x00b8)
   0862 36 00               954 	ld	(hl), #0x00
   0864 21rB1r03            955 	ld	hl, #(_maps + 0x00b9)
   0867 36 00               956 	ld	(hl), #0x00
   0869 21rB2r03            957 	ld	hl, #(_maps + 0x00ba)
   086C 36 00               958 	ld	(hl), #0x00
   086E 21rB3r03            959 	ld	hl, #(_maps + 0x00bb)
   0871 36 00               960 	ld	(hl), #0x00
   0873 21rB4r03            961 	ld	hl, #(_maps + 0x00bc)
   0876 36 00               962 	ld	(hl), #0x00
   0878 21rB5r03            963 	ld	hl, #(_maps + 0x00bd)
   087B 36 00               964 	ld	(hl), #0x00
   087D 21rB6r03            965 	ld	hl, #(_maps + 0x00be)
   0880 36 00               966 	ld	(hl), #0x00
   0882 21rB7r03            967 	ld	hl, #(_maps + 0x00bf)
   0885 36 00               968 	ld	(hl), #0x00
   0887 21rB8r03            969 	ld	hl, #(_maps + 0x00c0)
   088A 36 00               970 	ld	(hl), #0x00
   088C 21rB9r03            971 	ld	hl, #(_maps + 0x00c1)
   088F 36 00               972 	ld	(hl), #0x00
   0891 21rBAr03            973 	ld	hl, #(_maps + 0x00c2)
   0894 36 00               974 	ld	(hl), #0x00
   0896 21rBBr03            975 	ld	hl, #(_maps + 0x00c3)
   0899 36 00               976 	ld	(hl), #0x00
   089B 21rBCr03            977 	ld	hl, #(_maps + 0x00c4)
   089E 36 00               978 	ld	(hl), #0x00
   08A0 21rBDr03            979 	ld	hl, #(_maps + 0x00c5)
   08A3 36 00               980 	ld	(hl), #0x00
   08A5 21rBEr03            981 	ld	hl, #(_maps + 0x00c6)
   08A8 36 00               982 	ld	(hl), #0x00
   08AA 21rBFr03            983 	ld	hl, #(_maps + 0x00c7)
   08AD 36 04               984 	ld	(hl), #0x04
   08AF 21rC0r03            985 	ld	hl, #(_maps + 0x00c8)
   08B2 36 04               986 	ld	(hl), #0x04
   08B4 21rC1r03            987 	ld	hl, #(_maps + 0x00c9)
   08B7 36 00               988 	ld	(hl), #0x00
   08B9 21rC2r03            989 	ld	hl, #(_maps + 0x00ca)
   08BC 36 00               990 	ld	(hl), #0x00
   08BE 21rC3r03            991 	ld	hl, #(_maps + 0x00cb)
   08C1 36 00               992 	ld	(hl), #0x00
   08C3 21rC4r03            993 	ld	hl, #(_maps + 0x00cc)
   08C6 36 00               994 	ld	(hl), #0x00
   08C8 21rC5r03            995 	ld	hl, #(_maps + 0x00cd)
   08CB 36 00               996 	ld	(hl), #0x00
   08CD 21rC6r03            997 	ld	hl, #(_maps + 0x00ce)
   08D0 36 00               998 	ld	(hl), #0x00
   08D2 21rC7r03            999 	ld	hl, #(_maps + 0x00cf)
   08D5 36 00              1000 	ld	(hl), #0x00
   08D7 21rC8r03           1001 	ld	hl, #(_maps + 0x00d0)
   08DA 36 00              1002 	ld	(hl), #0x00
   08DC 21rC9r03           1003 	ld	hl, #(_maps + 0x00d1)
   08DF 36 00              1004 	ld	(hl), #0x00
   08E1 21rCAr03           1005 	ld	hl, #(_maps + 0x00d2)
   08E4 36 00              1006 	ld	(hl), #0x00
   08E6 21rCBr03           1007 	ld	hl, #(_maps + 0x00d3)
   08E9 36 00              1008 	ld	(hl), #0x00
   08EB 21rCCr03           1009 	ld	hl, #(_maps + 0x00d4)
   08EE 36 00              1010 	ld	(hl), #0x00
   08F0 21rCDr03           1011 	ld	hl, #(_maps + 0x00d5)
   08F3 36 00              1012 	ld	(hl), #0x00
   08F5 21rCEr03           1013 	ld	hl, #(_maps + 0x00d6)
   08F8 36 00              1014 	ld	(hl), #0x00
   08FA 21rCFr03           1015 	ld	hl, #(_maps + 0x00d7)
   08FD 36 00              1016 	ld	(hl), #0x00
   08FF 21rD0r03           1017 	ld	hl, #(_maps + 0x00d8)
   0902 36 00              1018 	ld	(hl), #0x00
   0904 21rD1r03           1019 	ld	hl, #(_maps + 0x00d9)
   0907 36 00              1020 	ld	(hl), #0x00
   0909 21rD2r03           1021 	ld	hl, #(_maps + 0x00da)
   090C 36 00              1022 	ld	(hl), #0x00
   090E 21rD3r03           1023 	ld	hl, #(_maps + 0x00db)
   0911 36 04              1024 	ld	(hl), #0x04
   0913 21rD4r03           1025 	ld	hl, #(_maps + 0x00dc)
   0916 36 04              1026 	ld	(hl), #0x04
   0918 21rD5r03           1027 	ld	hl, #(_maps + 0x00dd)
   091B 36 00              1028 	ld	(hl), #0x00
   091D 21rD6r03           1029 	ld	hl, #(_maps + 0x00de)
   0920 36 00              1030 	ld	(hl), #0x00
   0922 21rD7r03           1031 	ld	hl, #(_maps + 0x00df)
   0925 36 00              1032 	ld	(hl), #0x00
   0927 21rD8r03           1033 	ld	hl, #(_maps + 0x00e0)
   092A 36 00              1034 	ld	(hl), #0x00
   092C 21rD9r03           1035 	ld	hl, #(_maps + 0x00e1)
   092F 36 00              1036 	ld	(hl), #0x00
   0931 21rDAr03           1037 	ld	hl, #(_maps + 0x00e2)
   0934 36 00              1038 	ld	(hl), #0x00
   0936 21rDBr03           1039 	ld	hl, #(_maps + 0x00e3)
   0939 36 00              1040 	ld	(hl), #0x00
   093B 21rDCr03           1041 	ld	hl, #(_maps + 0x00e4)
   093E 36 00              1042 	ld	(hl), #0x00
   0940 21rDDr03           1043 	ld	hl, #(_maps + 0x00e5)
   0943 36 00              1044 	ld	(hl), #0x00
   0945 21rDEr03           1045 	ld	hl, #(_maps + 0x00e6)
   0948 36 00              1046 	ld	(hl), #0x00
   094A 21rDFr03           1047 	ld	hl, #(_maps + 0x00e7)
   094D 36 00              1048 	ld	(hl), #0x00
   094F 21rE0r03           1049 	ld	hl, #(_maps + 0x00e8)
   0952 36 00              1050 	ld	(hl), #0x00
   0954 21rE1r03           1051 	ld	hl, #(_maps + 0x00e9)
   0957 36 00              1052 	ld	(hl), #0x00
   0959 21rE2r03           1053 	ld	hl, #(_maps + 0x00ea)
   095C 36 00              1054 	ld	(hl), #0x00
   095E 21rE3r03           1055 	ld	hl, #(_maps + 0x00eb)
   0961 36 00              1056 	ld	(hl), #0x00
   0963 21rE4r03           1057 	ld	hl, #(_maps + 0x00ec)
   0966 36 00              1058 	ld	(hl), #0x00
   0968 21rE5r03           1059 	ld	hl, #(_maps + 0x00ed)
   096B 36 00              1060 	ld	(hl), #0x00
   096D 21rE6r03           1061 	ld	hl, #(_maps + 0x00ee)
   0970 36 00              1062 	ld	(hl), #0x00
   0972 21rE7r03           1063 	ld	hl, #(_maps + 0x00ef)
   0975 36 04              1064 	ld	(hl), #0x04
   0977 21rE8r03           1065 	ld	hl, #(_maps + 0x00f0)
   097A 36 04              1066 	ld	(hl), #0x04
   097C 21rE9r03           1067 	ld	hl, #(_maps + 0x00f1)
   097F 36 00              1068 	ld	(hl), #0x00
   0981 21rEAr03           1069 	ld	hl, #(_maps + 0x00f2)
   0984 36 00              1070 	ld	(hl), #0x00
   0986 21rEBr03           1071 	ld	hl, #(_maps + 0x00f3)
   0989 36 00              1072 	ld	(hl), #0x00
   098B 21rECr03           1073 	ld	hl, #(_maps + 0x00f4)
   098E 36 00              1074 	ld	(hl), #0x00
   0990 21rEDr03           1075 	ld	hl, #(_maps + 0x00f5)
   0993 36 00              1076 	ld	(hl), #0x00
   0995 21rEEr03           1077 	ld	hl, #(_maps + 0x00f6)
   0998 36 00              1078 	ld	(hl), #0x00
   099A 21rEFr03           1079 	ld	hl, #(_maps + 0x00f7)
   099D 36 00              1080 	ld	(hl), #0x00
   099F 21rF0r03           1081 	ld	hl, #(_maps + 0x00f8)
   09A2 36 00              1082 	ld	(hl), #0x00
   09A4 21rF1r03           1083 	ld	hl, #(_maps + 0x00f9)
   09A7 36 00              1084 	ld	(hl), #0x00
   09A9 21rF2r03           1085 	ld	hl, #(_maps + 0x00fa)
   09AC 36 00              1086 	ld	(hl), #0x00
   09AE 21rF3r03           1087 	ld	hl, #(_maps + 0x00fb)
   09B1 36 00              1088 	ld	(hl), #0x00
   09B3 21rF4r03           1089 	ld	hl, #(_maps + 0x00fc)
   09B6 36 00              1090 	ld	(hl), #0x00
   09B8 21rF5r03           1091 	ld	hl, #(_maps + 0x00fd)
   09BB 36 00              1092 	ld	(hl), #0x00
   09BD 21rF6r03           1093 	ld	hl, #(_maps + 0x00fe)
   09C0 36 00              1094 	ld	(hl), #0x00
   09C2 21rF7r03           1095 	ld	hl, #(_maps + 0x00ff)
   09C5 36 00              1096 	ld	(hl), #0x00
   09C7 21rF8r03           1097 	ld	hl, #(_maps + 0x0100)
   09CA 36 00              1098 	ld	(hl), #0x00
   09CC 21rF9r03           1099 	ld	hl, #(_maps + 0x0101)
   09CF 36 00              1100 	ld	(hl), #0x00
   09D1 21rFAr03           1101 	ld	hl, #(_maps + 0x0102)
   09D4 36 00              1102 	ld	(hl), #0x00
   09D6 21rFBr03           1103 	ld	hl, #(_maps + 0x0103)
   09D9 36 04              1104 	ld	(hl), #0x04
   09DB 21rFCr03           1105 	ld	hl, #(_maps + 0x0104)
   09DE 36 04              1106 	ld	(hl), #0x04
   09E0 21rFDr03           1107 	ld	hl, #(_maps + 0x0105)
   09E3 36 00              1108 	ld	(hl), #0x00
   09E5 21rFEr03           1109 	ld	hl, #(_maps + 0x0106)
   09E8 36 00              1110 	ld	(hl), #0x00
   09EA 21rFFr03           1111 	ld	hl, #(_maps + 0x0107)
   09ED 36 00              1112 	ld	(hl), #0x00
   09EF 21r00r04           1113 	ld	hl, #(_maps + 0x0108)
   09F2 36 00              1114 	ld	(hl), #0x00
   09F4 21r01r04           1115 	ld	hl, #(_maps + 0x0109)
   09F7 36 00              1116 	ld	(hl), #0x00
   09F9 21r02r04           1117 	ld	hl, #(_maps + 0x010a)
   09FC 36 00              1118 	ld	(hl), #0x00
   09FE 21r03r04           1119 	ld	hl, #(_maps + 0x010b)
   0A01 36 00              1120 	ld	(hl), #0x00
   0A03 21r04r04           1121 	ld	hl, #(_maps + 0x010c)
   0A06 36 00              1122 	ld	(hl), #0x00
   0A08 21r05r04           1123 	ld	hl, #(_maps + 0x010d)
   0A0B 36 00              1124 	ld	(hl), #0x00
   0A0D 21r06r04           1125 	ld	hl, #(_maps + 0x010e)
   0A10 36 00              1126 	ld	(hl), #0x00
   0A12 21r07r04           1127 	ld	hl, #(_maps + 0x010f)
   0A15 36 00              1128 	ld	(hl), #0x00
   0A17 21r08r04           1129 	ld	hl, #(_maps + 0x0110)
   0A1A 36 00              1130 	ld	(hl), #0x00
   0A1C 21r09r04           1131 	ld	hl, #(_maps + 0x0111)
   0A1F 36 00              1132 	ld	(hl), #0x00
   0A21 21r0Ar04           1133 	ld	hl, #(_maps + 0x0112)
   0A24 36 00              1134 	ld	(hl), #0x00
   0A26 21r0Br04           1135 	ld	hl, #(_maps + 0x0113)
   0A29 36 00              1136 	ld	(hl), #0x00
   0A2B 21r0Cr04           1137 	ld	hl, #(_maps + 0x0114)
   0A2E 36 00              1138 	ld	(hl), #0x00
   0A30 21r0Dr04           1139 	ld	hl, #(_maps + 0x0115)
   0A33 36 00              1140 	ld	(hl), #0x00
   0A35 21r0Er04           1141 	ld	hl, #(_maps + 0x0116)
   0A38 36 00              1142 	ld	(hl), #0x00
   0A3A 21r0Fr04           1143 	ld	hl, #(_maps + 0x0117)
   0A3D 36 04              1144 	ld	(hl), #0x04
   0A3F 21r10r04           1145 	ld	hl, #(_maps + 0x0118)
   0A42 36 04              1146 	ld	(hl), #0x04
   0A44 21r11r04           1147 	ld	hl, #(_maps + 0x0119)
   0A47 36 00              1148 	ld	(hl), #0x00
   0A49 21r12r04           1149 	ld	hl, #(_maps + 0x011a)
   0A4C 36 00              1150 	ld	(hl), #0x00
   0A4E 21r13r04           1151 	ld	hl, #(_maps + 0x011b)
   0A51 36 00              1152 	ld	(hl), #0x00
   0A53 21r14r04           1153 	ld	hl, #(_maps + 0x011c)
   0A56 36 00              1154 	ld	(hl), #0x00
   0A58 21r15r04           1155 	ld	hl, #(_maps + 0x011d)
   0A5B 36 00              1156 	ld	(hl), #0x00
   0A5D 21r16r04           1157 	ld	hl, #(_maps + 0x011e)
   0A60 36 00              1158 	ld	(hl), #0x00
   0A62 21r17r04           1159 	ld	hl, #(_maps + 0x011f)
   0A65 36 00              1160 	ld	(hl), #0x00
   0A67 21r18r04           1161 	ld	hl, #(_maps + 0x0120)
   0A6A 36 00              1162 	ld	(hl), #0x00
   0A6C 21r19r04           1163 	ld	hl, #(_maps + 0x0121)
   0A6F 36 00              1164 	ld	(hl), #0x00
   0A71 21r1Ar04           1165 	ld	hl, #(_maps + 0x0122)
   0A74 36 00              1166 	ld	(hl), #0x00
   0A76 21r1Br04           1167 	ld	hl, #(_maps + 0x0123)
   0A79 36 00              1168 	ld	(hl), #0x00
   0A7B 21r1Cr04           1169 	ld	hl, #(_maps + 0x0124)
   0A7E 36 00              1170 	ld	(hl), #0x00
   0A80 21r1Dr04           1171 	ld	hl, #(_maps + 0x0125)
   0A83 36 00              1172 	ld	(hl), #0x00
   0A85 21r1Er04           1173 	ld	hl, #(_maps + 0x0126)
   0A88 36 00              1174 	ld	(hl), #0x00
   0A8A 21r1Fr04           1175 	ld	hl, #(_maps + 0x0127)
   0A8D 36 00              1176 	ld	(hl), #0x00
   0A8F 21r20r04           1177 	ld	hl, #(_maps + 0x0128)
   0A92 36 00              1178 	ld	(hl), #0x00
   0A94 21r21r04           1179 	ld	hl, #(_maps + 0x0129)
   0A97 36 00              1180 	ld	(hl), #0x00
   0A99 21r22r04           1181 	ld	hl, #(_maps + 0x012a)
   0A9C 36 00              1182 	ld	(hl), #0x00
   0A9E 21r23r04           1183 	ld	hl, #(_maps + 0x012b)
   0AA1 36 04              1184 	ld	(hl), #0x04
   0AA3 21r24r04           1185 	ld	hl, #(_maps + 0x012c)
   0AA6 36 04              1186 	ld	(hl), #0x04
   0AA8 21r25r04           1187 	ld	hl, #(_maps + 0x012d)
   0AAB 36 00              1188 	ld	(hl), #0x00
   0AAD 21r26r04           1189 	ld	hl, #(_maps + 0x012e)
   0AB0 36 00              1190 	ld	(hl), #0x00
   0AB2 21r27r04           1191 	ld	hl, #(_maps + 0x012f)
   0AB5 36 00              1192 	ld	(hl), #0x00
   0AB7 21r28r04           1193 	ld	hl, #(_maps + 0x0130)
   0ABA 36 00              1194 	ld	(hl), #0x00
   0ABC 21r29r04           1195 	ld	hl, #(_maps + 0x0131)
   0ABF 36 00              1196 	ld	(hl), #0x00
   0AC1 21r2Ar04           1197 	ld	hl, #(_maps + 0x0132)
   0AC4 36 00              1198 	ld	(hl), #0x00
   0AC6 21r2Br04           1199 	ld	hl, #(_maps + 0x0133)
   0AC9 36 00              1200 	ld	(hl), #0x00
   0ACB 21r2Cr04           1201 	ld	hl, #(_maps + 0x0134)
   0ACE 36 00              1202 	ld	(hl), #0x00
   0AD0 21r2Dr04           1203 	ld	hl, #(_maps + 0x0135)
   0AD3 36 00              1204 	ld	(hl), #0x00
   0AD5 21r2Er04           1205 	ld	hl, #(_maps + 0x0136)
   0AD8 36 00              1206 	ld	(hl), #0x00
   0ADA 21r2Fr04           1207 	ld	hl, #(_maps + 0x0137)
   0ADD 36 00              1208 	ld	(hl), #0x00
   0ADF 21r30r04           1209 	ld	hl, #(_maps + 0x0138)
   0AE2 36 00              1210 	ld	(hl), #0x00
   0AE4 21r31r04           1211 	ld	hl, #(_maps + 0x0139)
   0AE7 36 00              1212 	ld	(hl), #0x00
   0AE9 21r32r04           1213 	ld	hl, #(_maps + 0x013a)
   0AEC 36 00              1214 	ld	(hl), #0x00
   0AEE 21r33r04           1215 	ld	hl, #(_maps + 0x013b)
   0AF1 36 00              1216 	ld	(hl), #0x00
   0AF3 21r34r04           1217 	ld	hl, #(_maps + 0x013c)
   0AF6 36 00              1218 	ld	(hl), #0x00
   0AF8 21r35r04           1219 	ld	hl, #(_maps + 0x013d)
   0AFB 36 00              1220 	ld	(hl), #0x00
   0AFD 21r36r04           1221 	ld	hl, #(_maps + 0x013e)
   0B00 36 00              1222 	ld	(hl), #0x00
   0B02 21r37r04           1223 	ld	hl, #(_maps + 0x013f)
   0B05 36 04              1224 	ld	(hl), #0x04
   0B07 21r38r04           1225 	ld	hl, #(_maps + 0x0140)
   0B0A 36 04              1226 	ld	(hl), #0x04
   0B0C 21r39r04           1227 	ld	hl, #(_maps + 0x0141)
   0B0F 36 02              1228 	ld	(hl), #0x02
   0B11 21r3Ar04           1229 	ld	hl, #(_maps + 0x0142)
   0B14 36 00              1230 	ld	(hl), #0x00
   0B16 21r3Br04           1231 	ld	hl, #(_maps + 0x0143)
   0B19 36 00              1232 	ld	(hl), #0x00
   0B1B 21r3Cr04           1233 	ld	hl, #(_maps + 0x0144)
   0B1E 36 00              1234 	ld	(hl), #0x00
   0B20 21r3Dr04           1235 	ld	hl, #(_maps + 0x0145)
   0B23 36 00              1236 	ld	(hl), #0x00
   0B25 21r3Er04           1237 	ld	hl, #(_maps + 0x0146)
   0B28 36 00              1238 	ld	(hl), #0x00
   0B2A 21r3Fr04           1239 	ld	hl, #(_maps + 0x0147)
   0B2D 36 00              1240 	ld	(hl), #0x00
   0B2F 21r40r04           1241 	ld	hl, #(_maps + 0x0148)
   0B32 36 00              1242 	ld	(hl), #0x00
   0B34 21r41r04           1243 	ld	hl, #(_maps + 0x0149)
   0B37 36 00              1244 	ld	(hl), #0x00
   0B39 21r42r04           1245 	ld	hl, #(_maps + 0x014a)
   0B3C 36 00              1246 	ld	(hl), #0x00
   0B3E 21r43r04           1247 	ld	hl, #(_maps + 0x014b)
   0B41 36 00              1248 	ld	(hl), #0x00
   0B43 21r44r04           1249 	ld	hl, #(_maps + 0x014c)
   0B46 36 00              1250 	ld	(hl), #0x00
   0B48 21r45r04           1251 	ld	hl, #(_maps + 0x014d)
   0B4B 36 00              1252 	ld	(hl), #0x00
   0B4D 21r46r04           1253 	ld	hl, #(_maps + 0x014e)
   0B50 36 00              1254 	ld	(hl), #0x00
   0B52 21r47r04           1255 	ld	hl, #(_maps + 0x014f)
   0B55 36 00              1256 	ld	(hl), #0x00
   0B57 21r48r04           1257 	ld	hl, #(_maps + 0x0150)
   0B5A 36 00              1258 	ld	(hl), #0x00
   0B5C 21r49r04           1259 	ld	hl, #(_maps + 0x0151)
   0B5F 36 00              1260 	ld	(hl), #0x00
   0B61 21r4Ar04           1261 	ld	hl, #(_maps + 0x0152)
   0B64 36 01              1262 	ld	(hl), #0x01
   0B66 21r4Br04           1263 	ld	hl, #(_maps + 0x0153)
   0B69 36 04              1264 	ld	(hl), #0x04
   0B6B 21r4Cr04           1265 	ld	hl, #(_maps + 0x0154)
   0B6E 36 04              1266 	ld	(hl), #0x04
   0B70 21r4Dr04           1267 	ld	hl, #(_maps + 0x0155)
   0B73 36 04              1268 	ld	(hl), #0x04
   0B75 21r4Er04           1269 	ld	hl, #(_maps + 0x0156)
   0B78 36 04              1270 	ld	(hl), #0x04
   0B7A 21r4Fr04           1271 	ld	hl, #(_maps + 0x0157)
   0B7D 36 04              1272 	ld	(hl), #0x04
   0B7F 21r50r04           1273 	ld	hl, #(_maps + 0x0158)
   0B82 36 04              1274 	ld	(hl), #0x04
   0B84 21r51r04           1275 	ld	hl, #(_maps + 0x0159)
   0B87 36 04              1276 	ld	(hl), #0x04
   0B89 21r52r04           1277 	ld	hl, #(_maps + 0x015a)
   0B8C 36 04              1278 	ld	(hl), #0x04
   0B8E 21r53r04           1279 	ld	hl, #(_maps + 0x015b)
   0B91 36 04              1280 	ld	(hl), #0x04
   0B93 21r54r04           1281 	ld	hl, #(_maps + 0x015c)
   0B96 36 04              1282 	ld	(hl), #0x04
   0B98 21r55r04           1283 	ld	hl, #(_maps + 0x015d)
   0B9B 36 04              1284 	ld	(hl), #0x04
   0B9D 21r56r04           1285 	ld	hl, #(_maps + 0x015e)
   0BA0 36 04              1286 	ld	(hl), #0x04
   0BA2 21r57r04           1287 	ld	hl, #(_maps + 0x015f)
   0BA5 36 04              1288 	ld	(hl), #0x04
   0BA7 21r58r04           1289 	ld	hl, #(_maps + 0x0160)
   0BAA 36 04              1290 	ld	(hl), #0x04
   0BAC 21r59r04           1291 	ld	hl, #(_maps + 0x0161)
   0BAF 36 04              1292 	ld	(hl), #0x04
   0BB1 21r5Ar04           1293 	ld	hl, #(_maps + 0x0162)
   0BB4 36 04              1294 	ld	(hl), #0x04
   0BB6 21r5Br04           1295 	ld	hl, #(_maps + 0x0163)
   0BB9 36 04              1296 	ld	(hl), #0x04
   0BBB 21r5Cr04           1297 	ld	hl, #(_maps + 0x0164)
   0BBE 36 04              1298 	ld	(hl), #0x04
   0BC0 21r5Dr04           1299 	ld	hl, #(_maps + 0x0165)
   0BC3 36 04              1300 	ld	(hl), #0x04
   0BC5 21r5Er04           1301 	ld	hl, #(_maps + 0x0166)
   0BC8 36 04              1302 	ld	(hl), #0x04
   0BCA 21r5Fr04           1303 	ld	hl, #(_maps + 0x0167)
   0BCD 36 04              1304 	ld	(hl), #0x04
   0BCF 21r60r04           1305 	ld	hl, #(_maps + 0x0168)
   0BD2 36 04              1306 	ld	(hl), #0x04
   0BD4 21r61r04           1307 	ld	hl, #(_maps + 0x0169)
   0BD7 36 04              1308 	ld	(hl), #0x04
   0BD9 21r62r04           1309 	ld	hl, #(_maps + 0x016a)
   0BDC 36 04              1310 	ld	(hl), #0x04
   0BDE 21r63r04           1311 	ld	hl, #(_maps + 0x016b)
   0BE1 36 04              1312 	ld	(hl), #0x04
   0BE3 21r64r04           1313 	ld	hl, #(_maps + 0x016c)
   0BE6 36 04              1314 	ld	(hl), #0x04
   0BE8 21r65r04           1315 	ld	hl, #(_maps + 0x016d)
   0BEB 36 04              1316 	ld	(hl), #0x04
   0BED 21r66r04           1317 	ld	hl, #(_maps + 0x016e)
   0BF0 36 04              1318 	ld	(hl), #0x04
   0BF2 21r67r04           1319 	ld	hl, #(_maps + 0x016f)
   0BF5 36 04              1320 	ld	(hl), #0x04
   0BF7 21r68r04           1321 	ld	hl, #(_maps + 0x0170)
   0BFA 36 04              1322 	ld	(hl), #0x04
   0BFC 21r69r04           1323 	ld	hl, #(_maps + 0x0171)
   0BFF 36 04              1324 	ld	(hl), #0x04
   0C01 21r6Ar04           1325 	ld	hl, #(_maps + 0x0172)
   0C04 36 04              1326 	ld	(hl), #0x04
   0C06 21r6Br04           1327 	ld	hl, #(_maps + 0x0173)
   0C09 36 04              1328 	ld	(hl), #0x04
   0C0B 21r6Cr04           1329 	ld	hl, #(_maps + 0x0174)
   0C0E 36 04              1330 	ld	(hl), #0x04
   0C10 21r6Dr04           1331 	ld	hl, #(_maps + 0x0175)
   0C13 36 04              1332 	ld	(hl), #0x04
   0C15 21r6Er04           1333 	ld	hl, #(_maps + 0x0176)
   0C18 36 04              1334 	ld	(hl), #0x04
   0C1A 21r6Fr04           1335 	ld	hl, #(_maps + 0x0177)
   0C1D 36 04              1336 	ld	(hl), #0x04
   0C1F 21r70r04           1337 	ld	hl, #(_maps + 0x0178)
   0C22 36 04              1338 	ld	(hl), #0x04
   0C24 21r71r04           1339 	ld	hl, #(_maps + 0x0179)
   0C27 36 04              1340 	ld	(hl), #0x04
   0C29 21r72r04           1341 	ld	hl, #(_maps + 0x017a)
   0C2C 36 04              1342 	ld	(hl), #0x04
   0C2E 21r73r04           1343 	ld	hl, #(_maps + 0x017b)
   0C31 36 04              1344 	ld	(hl), #0x04
   0C33 21r74r04           1345 	ld	hl, #(_maps + 0x017c)
   0C36 36 04              1346 	ld	(hl), #0x04
   0C38 21r75r04           1347 	ld	hl, #(_maps + 0x017d)
   0C3B 36 00              1348 	ld	(hl), #0x00
   0C3D 21r76r04           1349 	ld	hl, #(_maps + 0x017e)
   0C40 36 00              1350 	ld	(hl), #0x00
   0C42 21r77r04           1351 	ld	hl, #(_maps + 0x017f)
   0C45 36 00              1352 	ld	(hl), #0x00
   0C47 21r78r04           1353 	ld	hl, #(_maps + 0x0180)
   0C4A 36 00              1354 	ld	(hl), #0x00
   0C4C 21r79r04           1355 	ld	hl, #(_maps + 0x0181)
   0C4F 36 00              1356 	ld	(hl), #0x00
   0C51 21r7Ar04           1357 	ld	hl, #(_maps + 0x0182)
   0C54 36 00              1358 	ld	(hl), #0x00
   0C56 21r7Br04           1359 	ld	hl, #(_maps + 0x0183)
   0C59 36 00              1360 	ld	(hl), #0x00
   0C5B 21r7Cr04           1361 	ld	hl, #(_maps + 0x0184)
   0C5E 36 00              1362 	ld	(hl), #0x00
   0C60 21r7Dr04           1363 	ld	hl, #(_maps + 0x0185)
   0C63 36 00              1364 	ld	(hl), #0x00
   0C65 21r7Er04           1365 	ld	hl, #(_maps + 0x0186)
   0C68 36 00              1366 	ld	(hl), #0x00
   0C6A 21r7Fr04           1367 	ld	hl, #(_maps + 0x0187)
   0C6D 36 00              1368 	ld	(hl), #0x00
   0C6F 21r80r04           1369 	ld	hl, #(_maps + 0x0188)
   0C72 36 00              1370 	ld	(hl), #0x00
   0C74 21r81r04           1371 	ld	hl, #(_maps + 0x0189)
   0C77 36 00              1372 	ld	(hl), #0x00
   0C79 21r82r04           1373 	ld	hl, #(_maps + 0x018a)
   0C7C 36 00              1374 	ld	(hl), #0x00
   0C7E 21r83r04           1375 	ld	hl, #(_maps + 0x018b)
   0C81 36 00              1376 	ld	(hl), #0x00
   0C83 21r84r04           1377 	ld	hl, #(_maps + 0x018c)
   0C86 36 00              1378 	ld	(hl), #0x00
   0C88 21r85r04           1379 	ld	hl, #(_maps + 0x018d)
   0C8B 36 00              1380 	ld	(hl), #0x00
   0C8D 21r86r04           1381 	ld	hl, #(_maps + 0x018e)
   0C90 36 00              1382 	ld	(hl), #0x00
   0C92 21r87r04           1383 	ld	hl, #(_maps + 0x018f)
   0C95 36 04              1384 	ld	(hl), #0x04
   0C97 21r88r04           1385 	ld	hl, #(_maps + 0x0190)
   0C9A 36 04              1386 	ld	(hl), #0x04
   0C9C 21r89r04           1387 	ld	hl, #(_maps + 0x0191)
   0C9F 36 00              1388 	ld	(hl), #0x00
   0CA1 21r8Ar04           1389 	ld	hl, #(_maps + 0x0192)
   0CA4 36 00              1390 	ld	(hl), #0x00
   0CA6 21r8Br04           1391 	ld	hl, #(_maps + 0x0193)
   0CA9 36 00              1392 	ld	(hl), #0x00
   0CAB 21r8Cr04           1393 	ld	hl, #(_maps + 0x0194)
   0CAE 36 00              1394 	ld	(hl), #0x00
   0CB0 21r8Dr04           1395 	ld	hl, #(_maps + 0x0195)
   0CB3 36 00              1396 	ld	(hl), #0x00
   0CB5 21r8Er04           1397 	ld	hl, #(_maps + 0x0196)
   0CB8 36 00              1398 	ld	(hl), #0x00
   0CBA 21r8Fr04           1399 	ld	hl, #(_maps + 0x0197)
   0CBD 36 00              1400 	ld	(hl), #0x00
   0CBF 21r90r04           1401 	ld	hl, #(_maps + 0x0198)
   0CC2 36 00              1402 	ld	(hl), #0x00
   0CC4 21r91r04           1403 	ld	hl, #(_maps + 0x0199)
   0CC7 36 00              1404 	ld	(hl), #0x00
   0CC9 21r92r04           1405 	ld	hl, #(_maps + 0x019a)
   0CCC 36 00              1406 	ld	(hl), #0x00
   0CCE 21r93r04           1407 	ld	hl, #(_maps + 0x019b)
   0CD1 36 00              1408 	ld	(hl), #0x00
   0CD3 21r94r04           1409 	ld	hl, #(_maps + 0x019c)
   0CD6 36 00              1410 	ld	(hl), #0x00
   0CD8 21r95r04           1411 	ld	hl, #(_maps + 0x019d)
   0CDB 36 00              1412 	ld	(hl), #0x00
   0CDD 21r96r04           1413 	ld	hl, #(_maps + 0x019e)
   0CE0 36 00              1414 	ld	(hl), #0x00
   0CE2 21r97r04           1415 	ld	hl, #(_maps + 0x019f)
   0CE5 36 00              1416 	ld	(hl), #0x00
   0CE7 21r98r04           1417 	ld	hl, #(_maps + 0x01a0)
   0CEA 36 00              1418 	ld	(hl), #0x00
   0CEC 21r99r04           1419 	ld	hl, #(_maps + 0x01a1)
   0CEF 36 00              1420 	ld	(hl), #0x00
   0CF1 21r9Ar04           1421 	ld	hl, #(_maps + 0x01a2)
   0CF4 36 00              1422 	ld	(hl), #0x00
   0CF6 21r9Br04           1423 	ld	hl, #(_maps + 0x01a3)
   0CF9 36 04              1424 	ld	(hl), #0x04
   0CFB 21r9Cr04           1425 	ld	hl, #(_maps + 0x01a4)
   0CFE 36 04              1426 	ld	(hl), #0x04
   0D00 21r9Dr04           1427 	ld	hl, #(_maps + 0x01a5)
   0D03 36 00              1428 	ld	(hl), #0x00
   0D05 21r9Er04           1429 	ld	hl, #(_maps + 0x01a6)
   0D08 36 00              1430 	ld	(hl), #0x00
   0D0A 21r9Fr04           1431 	ld	hl, #(_maps + 0x01a7)
   0D0D 36 00              1432 	ld	(hl), #0x00
   0D0F 21rA0r04           1433 	ld	hl, #(_maps + 0x01a8)
   0D12 36 00              1434 	ld	(hl), #0x00
   0D14 21rA1r04           1435 	ld	hl, #(_maps + 0x01a9)
   0D17 36 00              1436 	ld	(hl), #0x00
   0D19 21rA2r04           1437 	ld	hl, #(_maps + 0x01aa)
   0D1C 36 00              1438 	ld	(hl), #0x00
   0D1E 21rA3r04           1439 	ld	hl, #(_maps + 0x01ab)
   0D21 36 00              1440 	ld	(hl), #0x00
   0D23 21rA4r04           1441 	ld	hl, #(_maps + 0x01ac)
   0D26 36 00              1442 	ld	(hl), #0x00
   0D28 21rA5r04           1443 	ld	hl, #(_maps + 0x01ad)
   0D2B 36 00              1444 	ld	(hl), #0x00
   0D2D 21rA6r04           1445 	ld	hl, #(_maps + 0x01ae)
   0D30 36 00              1446 	ld	(hl), #0x00
   0D32 21rA7r04           1447 	ld	hl, #(_maps + 0x01af)
   0D35 36 00              1448 	ld	(hl), #0x00
   0D37 21rA8r04           1449 	ld	hl, #(_maps + 0x01b0)
   0D3A 36 00              1450 	ld	(hl), #0x00
   0D3C 21rA9r04           1451 	ld	hl, #(_maps + 0x01b1)
   0D3F 36 00              1452 	ld	(hl), #0x00
   0D41 21rAAr04           1453 	ld	hl, #(_maps + 0x01b2)
   0D44 36 00              1454 	ld	(hl), #0x00
   0D46 21rABr04           1455 	ld	hl, #(_maps + 0x01b3)
   0D49 36 00              1456 	ld	(hl), #0x00
   0D4B 21rACr04           1457 	ld	hl, #(_maps + 0x01b4)
   0D4E 36 00              1458 	ld	(hl), #0x00
   0D50 21rADr04           1459 	ld	hl, #(_maps + 0x01b5)
   0D53 36 00              1460 	ld	(hl), #0x00
   0D55 21rAEr04           1461 	ld	hl, #(_maps + 0x01b6)
   0D58 36 00              1462 	ld	(hl), #0x00
   0D5A 21rAFr04           1463 	ld	hl, #(_maps + 0x01b7)
   0D5D 36 04              1464 	ld	(hl), #0x04
   0D5F 21rB0r04           1465 	ld	hl, #(_maps + 0x01b8)
   0D62 36 04              1466 	ld	(hl), #0x04
   0D64 21rB1r04           1467 	ld	hl, #(_maps + 0x01b9)
   0D67 36 00              1468 	ld	(hl), #0x00
   0D69 21rB2r04           1469 	ld	hl, #(_maps + 0x01ba)
   0D6C 36 00              1470 	ld	(hl), #0x00
   0D6E 21rB3r04           1471 	ld	hl, #(_maps + 0x01bb)
   0D71 36 00              1472 	ld	(hl), #0x00
   0D73 21rB4r04           1473 	ld	hl, #(_maps + 0x01bc)
   0D76 36 00              1474 	ld	(hl), #0x00
   0D78 21rB5r04           1475 	ld	hl, #(_maps + 0x01bd)
   0D7B 36 00              1476 	ld	(hl), #0x00
   0D7D 21rB6r04           1477 	ld	hl, #(_maps + 0x01be)
   0D80 36 00              1478 	ld	(hl), #0x00
   0D82 21rB7r04           1479 	ld	hl, #(_maps + 0x01bf)
   0D85 36 00              1480 	ld	(hl), #0x00
   0D87 21rB8r04           1481 	ld	hl, #(_maps + 0x01c0)
   0D8A 36 00              1482 	ld	(hl), #0x00
   0D8C 21rB9r04           1483 	ld	hl, #(_maps + 0x01c1)
   0D8F 36 00              1484 	ld	(hl), #0x00
   0D91 21rBAr04           1485 	ld	hl, #(_maps + 0x01c2)
   0D94 36 00              1486 	ld	(hl), #0x00
   0D96 21rBBr04           1487 	ld	hl, #(_maps + 0x01c3)
   0D99 36 00              1488 	ld	(hl), #0x00
   0D9B 21rBCr04           1489 	ld	hl, #(_maps + 0x01c4)
   0D9E 36 00              1490 	ld	(hl), #0x00
   0DA0 21rBDr04           1491 	ld	hl, #(_maps + 0x01c5)
   0DA3 36 00              1492 	ld	(hl), #0x00
   0DA5 21rBEr04           1493 	ld	hl, #(_maps + 0x01c6)
   0DA8 36 00              1494 	ld	(hl), #0x00
   0DAA 21rBFr04           1495 	ld	hl, #(_maps + 0x01c7)
   0DAD 36 00              1496 	ld	(hl), #0x00
   0DAF 21rC0r04           1497 	ld	hl, #(_maps + 0x01c8)
   0DB2 36 00              1498 	ld	(hl), #0x00
   0DB4 21rC1r04           1499 	ld	hl, #(_maps + 0x01c9)
   0DB7 36 00              1500 	ld	(hl), #0x00
   0DB9 21rC2r04           1501 	ld	hl, #(_maps + 0x01ca)
   0DBC 36 00              1502 	ld	(hl), #0x00
   0DBE 21rC3r04           1503 	ld	hl, #(_maps + 0x01cb)
   0DC1 36 04              1504 	ld	(hl), #0x04
   0DC3 21rC4r04           1505 	ld	hl, #(_maps + 0x01cc)
   0DC6 36 04              1506 	ld	(hl), #0x04
   0DC8 21rC5r04           1507 	ld	hl, #(_maps + 0x01cd)
   0DCB 36 00              1508 	ld	(hl), #0x00
   0DCD 21rC6r04           1509 	ld	hl, #(_maps + 0x01ce)
   0DD0 36 00              1510 	ld	(hl), #0x00
   0DD2 21rC7r04           1511 	ld	hl, #(_maps + 0x01cf)
   0DD5 36 00              1512 	ld	(hl), #0x00
   0DD7 21rC8r04           1513 	ld	hl, #(_maps + 0x01d0)
   0DDA 36 00              1514 	ld	(hl), #0x00
   0DDC 21rC9r04           1515 	ld	hl, #(_maps + 0x01d1)
   0DDF 36 00              1516 	ld	(hl), #0x00
   0DE1 21rCAr04           1517 	ld	hl, #(_maps + 0x01d2)
   0DE4 36 00              1518 	ld	(hl), #0x00
   0DE6 21rCBr04           1519 	ld	hl, #(_maps + 0x01d3)
   0DE9 36 00              1520 	ld	(hl), #0x00
   0DEB 21rCCr04           1521 	ld	hl, #(_maps + 0x01d4)
   0DEE 36 00              1522 	ld	(hl), #0x00
   0DF0 21rCDr04           1523 	ld	hl, #(_maps + 0x01d5)
   0DF3 36 00              1524 	ld	(hl), #0x00
   0DF5 21rCEr04           1525 	ld	hl, #(_maps + 0x01d6)
   0DF8 36 00              1526 	ld	(hl), #0x00
   0DFA 21rCFr04           1527 	ld	hl, #(_maps + 0x01d7)
   0DFD 36 00              1528 	ld	(hl), #0x00
   0DFF 21rD0r04           1529 	ld	hl, #(_maps + 0x01d8)
   0E02 36 00              1530 	ld	(hl), #0x00
   0E04 21rD1r04           1531 	ld	hl, #(_maps + 0x01d9)
   0E07 36 00              1532 	ld	(hl), #0x00
   0E09 21rD2r04           1533 	ld	hl, #(_maps + 0x01da)
   0E0C 36 00              1534 	ld	(hl), #0x00
   0E0E 21rD3r04           1535 	ld	hl, #(_maps + 0x01db)
   0E11 36 00              1536 	ld	(hl), #0x00
   0E13 21rD4r04           1537 	ld	hl, #(_maps + 0x01dc)
   0E16 36 00              1538 	ld	(hl), #0x00
   0E18 21rD5r04           1539 	ld	hl, #(_maps + 0x01dd)
   0E1B 36 00              1540 	ld	(hl), #0x00
   0E1D 21rD6r04           1541 	ld	hl, #(_maps + 0x01de)
   0E20 36 00              1542 	ld	(hl), #0x00
   0E22 21rD7r04           1543 	ld	hl, #(_maps + 0x01df)
   0E25 36 04              1544 	ld	(hl), #0x04
   0E27 21rD8r04           1545 	ld	hl, #(_maps + 0x01e0)
   0E2A 36 04              1546 	ld	(hl), #0x04
   0E2C 21rD9r04           1547 	ld	hl, #(_maps + 0x01e1)
   0E2F 36 00              1548 	ld	(hl), #0x00
   0E31 21rDAr04           1549 	ld	hl, #(_maps + 0x01e2)
   0E34 36 00              1550 	ld	(hl), #0x00
   0E36 21rDBr04           1551 	ld	hl, #(_maps + 0x01e3)
   0E39 36 00              1552 	ld	(hl), #0x00
   0E3B 21rDCr04           1553 	ld	hl, #(_maps + 0x01e4)
   0E3E 36 00              1554 	ld	(hl), #0x00
   0E40 21rDDr04           1555 	ld	hl, #(_maps + 0x01e5)
   0E43 36 00              1556 	ld	(hl), #0x00
   0E45 21rDEr04           1557 	ld	hl, #(_maps + 0x01e6)
   0E48 36 00              1558 	ld	(hl), #0x00
   0E4A 21rDFr04           1559 	ld	hl, #(_maps + 0x01e7)
   0E4D 36 00              1560 	ld	(hl), #0x00
   0E4F 21rE0r04           1561 	ld	hl, #(_maps + 0x01e8)
   0E52 36 00              1562 	ld	(hl), #0x00
   0E54 21rE1r04           1563 	ld	hl, #(_maps + 0x01e9)
   0E57 36 00              1564 	ld	(hl), #0x00
   0E59 21rE2r04           1565 	ld	hl, #(_maps + 0x01ea)
   0E5C 36 00              1566 	ld	(hl), #0x00
   0E5E 21rE3r04           1567 	ld	hl, #(_maps + 0x01eb)
   0E61 36 00              1568 	ld	(hl), #0x00
   0E63 21rE4r04           1569 	ld	hl, #(_maps + 0x01ec)
   0E66 36 00              1570 	ld	(hl), #0x00
   0E68 21rE5r04           1571 	ld	hl, #(_maps + 0x01ed)
   0E6B 36 00              1572 	ld	(hl), #0x00
   0E6D 21rE6r04           1573 	ld	hl, #(_maps + 0x01ee)
   0E70 36 00              1574 	ld	(hl), #0x00
   0E72 21rE7r04           1575 	ld	hl, #(_maps + 0x01ef)
   0E75 36 00              1576 	ld	(hl), #0x00
   0E77 21rE8r04           1577 	ld	hl, #(_maps + 0x01f0)
   0E7A 36 00              1578 	ld	(hl), #0x00
   0E7C 21rE9r04           1579 	ld	hl, #(_maps + 0x01f1)
   0E7F 36 00              1580 	ld	(hl), #0x00
   0E81 21rEAr04           1581 	ld	hl, #(_maps + 0x01f2)
   0E84 36 00              1582 	ld	(hl), #0x00
   0E86 21rEBr04           1583 	ld	hl, #(_maps + 0x01f3)
   0E89 36 04              1584 	ld	(hl), #0x04
   0E8B 21rECr04           1585 	ld	hl, #(_maps + 0x01f4)
   0E8E 36 04              1586 	ld	(hl), #0x04
   0E90 21rEDr04           1587 	ld	hl, #(_maps + 0x01f5)
   0E93 36 00              1588 	ld	(hl), #0x00
   0E95 21rEEr04           1589 	ld	hl, #(_maps + 0x01f6)
   0E98 36 00              1590 	ld	(hl), #0x00
   0E9A 21rEFr04           1591 	ld	hl, #(_maps + 0x01f7)
   0E9D 36 00              1592 	ld	(hl), #0x00
   0E9F 21rF0r04           1593 	ld	hl, #(_maps + 0x01f8)
   0EA2 36 00              1594 	ld	(hl), #0x00
   0EA4 21rF1r04           1595 	ld	hl, #(_maps + 0x01f9)
   0EA7 36 00              1596 	ld	(hl), #0x00
   0EA9 21rF2r04           1597 	ld	hl, #(_maps + 0x01fa)
   0EAC 36 00              1598 	ld	(hl), #0x00
   0EAE 21rF3r04           1599 	ld	hl, #(_maps + 0x01fb)
   0EB1 36 00              1600 	ld	(hl), #0x00
   0EB3 21rF4r04           1601 	ld	hl, #(_maps + 0x01fc)
   0EB6 36 00              1602 	ld	(hl), #0x00
   0EB8 21rF5r04           1603 	ld	hl, #(_maps + 0x01fd)
   0EBB 36 00              1604 	ld	(hl), #0x00
   0EBD 21rF6r04           1605 	ld	hl, #(_maps + 0x01fe)
   0EC0 36 00              1606 	ld	(hl), #0x00
   0EC2 21rF7r04           1607 	ld	hl, #(_maps + 0x01ff)
   0EC5 36 00              1608 	ld	(hl), #0x00
   0EC7 21rF8r04           1609 	ld	hl, #(_maps + 0x0200)
   0ECA 36 00              1610 	ld	(hl), #0x00
   0ECC 21rF9r04           1611 	ld	hl, #(_maps + 0x0201)
   0ECF 36 00              1612 	ld	(hl), #0x00
   0ED1 21rFAr04           1613 	ld	hl, #(_maps + 0x0202)
   0ED4 36 00              1614 	ld	(hl), #0x00
   0ED6 21rFBr04           1615 	ld	hl, #(_maps + 0x0203)
   0ED9 36 00              1616 	ld	(hl), #0x00
   0EDB 21rFCr04           1617 	ld	hl, #(_maps + 0x0204)
   0EDE 36 00              1618 	ld	(hl), #0x00
   0EE0 21rFDr04           1619 	ld	hl, #(_maps + 0x0205)
   0EE3 36 00              1620 	ld	(hl), #0x00
   0EE5 21rFEr04           1621 	ld	hl, #(_maps + 0x0206)
   0EE8 36 00              1622 	ld	(hl), #0x00
   0EEA 21rFFr04           1623 	ld	hl, #(_maps + 0x0207)
   0EED 36 04              1624 	ld	(hl), #0x04
   0EEF 21r00r05           1625 	ld	hl, #(_maps + 0x0208)
   0EF2 36 04              1626 	ld	(hl), #0x04
   0EF4 21r01r05           1627 	ld	hl, #(_maps + 0x0209)
   0EF7 36 00              1628 	ld	(hl), #0x00
   0EF9 21r02r05           1629 	ld	hl, #(_maps + 0x020a)
   0EFC 36 00              1630 	ld	(hl), #0x00
   0EFE 21r03r05           1631 	ld	hl, #(_maps + 0x020b)
   0F01 36 00              1632 	ld	(hl), #0x00
   0F03 21r04r05           1633 	ld	hl, #(_maps + 0x020c)
   0F06 36 00              1634 	ld	(hl), #0x00
   0F08 21r05r05           1635 	ld	hl, #(_maps + 0x020d)
   0F0B 36 00              1636 	ld	(hl), #0x00
   0F0D 21r06r05           1637 	ld	hl, #(_maps + 0x020e)
   0F10 36 00              1638 	ld	(hl), #0x00
   0F12 21r07r05           1639 	ld	hl, #(_maps + 0x020f)
   0F15 36 00              1640 	ld	(hl), #0x00
   0F17 21r08r05           1641 	ld	hl, #(_maps + 0x0210)
   0F1A 36 00              1642 	ld	(hl), #0x00
   0F1C 21r09r05           1643 	ld	hl, #(_maps + 0x0211)
   0F1F 36 00              1644 	ld	(hl), #0x00
   0F21 21r0Ar05           1645 	ld	hl, #(_maps + 0x0212)
   0F24 36 00              1646 	ld	(hl), #0x00
   0F26 21r0Br05           1647 	ld	hl, #(_maps + 0x0213)
   0F29 36 00              1648 	ld	(hl), #0x00
   0F2B 21r0Cr05           1649 	ld	hl, #(_maps + 0x0214)
   0F2E 36 00              1650 	ld	(hl), #0x00
   0F30 21r0Dr05           1651 	ld	hl, #(_maps + 0x0215)
   0F33 36 00              1652 	ld	(hl), #0x00
   0F35 21r0Er05           1653 	ld	hl, #(_maps + 0x0216)
   0F38 36 00              1654 	ld	(hl), #0x00
   0F3A 21r0Fr05           1655 	ld	hl, #(_maps + 0x0217)
   0F3D 36 00              1656 	ld	(hl), #0x00
   0F3F 21r10r05           1657 	ld	hl, #(_maps + 0x0218)
   0F42 36 00              1658 	ld	(hl), #0x00
   0F44 21r11r05           1659 	ld	hl, #(_maps + 0x0219)
   0F47 36 00              1660 	ld	(hl), #0x00
   0F49 21r12r05           1661 	ld	hl, #(_maps + 0x021a)
   0F4C 36 00              1662 	ld	(hl), #0x00
   0F4E 21r13r05           1663 	ld	hl, #(_maps + 0x021b)
   0F51 36 04              1664 	ld	(hl), #0x04
   0F53 21r14r05           1665 	ld	hl, #(_maps + 0x021c)
   0F56 36 04              1666 	ld	(hl), #0x04
   0F58 21r15r05           1667 	ld	hl, #(_maps + 0x021d)
   0F5B 36 00              1668 	ld	(hl), #0x00
   0F5D 21r16r05           1669 	ld	hl, #(_maps + 0x021e)
   0F60 36 00              1670 	ld	(hl), #0x00
   0F62 21r17r05           1671 	ld	hl, #(_maps + 0x021f)
   0F65 36 00              1672 	ld	(hl), #0x00
   0F67 21r18r05           1673 	ld	hl, #(_maps + 0x0220)
   0F6A 36 00              1674 	ld	(hl), #0x00
   0F6C 21r19r05           1675 	ld	hl, #(_maps + 0x0221)
   0F6F 36 00              1676 	ld	(hl), #0x00
   0F71 21r1Ar05           1677 	ld	hl, #(_maps + 0x0222)
   0F74 36 00              1678 	ld	(hl), #0x00
   0F76 21r1Br05           1679 	ld	hl, #(_maps + 0x0223)
   0F79 36 00              1680 	ld	(hl), #0x00
   0F7B 21r1Cr05           1681 	ld	hl, #(_maps + 0x0224)
   0F7E 36 00              1682 	ld	(hl), #0x00
   0F80 21r1Dr05           1683 	ld	hl, #(_maps + 0x0225)
   0F83 36 00              1684 	ld	(hl), #0x00
   0F85 21r1Er05           1685 	ld	hl, #(_maps + 0x0226)
   0F88 36 00              1686 	ld	(hl), #0x00
   0F8A 21r1Fr05           1687 	ld	hl, #(_maps + 0x0227)
   0F8D 36 00              1688 	ld	(hl), #0x00
   0F8F 21r20r05           1689 	ld	hl, #(_maps + 0x0228)
   0F92 36 00              1690 	ld	(hl), #0x00
   0F94 21r21r05           1691 	ld	hl, #(_maps + 0x0229)
   0F97 36 00              1692 	ld	(hl), #0x00
   0F99 21r22r05           1693 	ld	hl, #(_maps + 0x022a)
   0F9C 36 00              1694 	ld	(hl), #0x00
   0F9E 21r23r05           1695 	ld	hl, #(_maps + 0x022b)
   0FA1 36 00              1696 	ld	(hl), #0x00
   0FA3 21r24r05           1697 	ld	hl, #(_maps + 0x022c)
   0FA6 36 00              1698 	ld	(hl), #0x00
   0FA8 21r25r05           1699 	ld	hl, #(_maps + 0x022d)
   0FAB 36 00              1700 	ld	(hl), #0x00
   0FAD 21r26r05           1701 	ld	hl, #(_maps + 0x022e)
   0FB0 36 00              1702 	ld	(hl), #0x00
   0FB2 21r27r05           1703 	ld	hl, #(_maps + 0x022f)
   0FB5 36 04              1704 	ld	(hl), #0x04
   0FB7 21r28r05           1705 	ld	hl, #(_maps + 0x0230)
   0FBA 36 04              1706 	ld	(hl), #0x04
   0FBC 21r29r05           1707 	ld	hl, #(_maps + 0x0231)
   0FBF 36 00              1708 	ld	(hl), #0x00
   0FC1 21r2Ar05           1709 	ld	hl, #(_maps + 0x0232)
   0FC4 36 00              1710 	ld	(hl), #0x00
   0FC6 21r2Br05           1711 	ld	hl, #(_maps + 0x0233)
   0FC9 36 00              1712 	ld	(hl), #0x00
   0FCB 21r2Cr05           1713 	ld	hl, #(_maps + 0x0234)
   0FCE 36 00              1714 	ld	(hl), #0x00
   0FD0 21r2Dr05           1715 	ld	hl, #(_maps + 0x0235)
   0FD3 36 00              1716 	ld	(hl), #0x00
   0FD5 21r2Er05           1717 	ld	hl, #(_maps + 0x0236)
   0FD8 36 00              1718 	ld	(hl), #0x00
   0FDA 21r2Fr05           1719 	ld	hl, #(_maps + 0x0237)
   0FDD 36 00              1720 	ld	(hl), #0x00
   0FDF 21r30r05           1721 	ld	hl, #(_maps + 0x0238)
   0FE2 36 00              1722 	ld	(hl), #0x00
   0FE4 21r31r05           1723 	ld	hl, #(_maps + 0x0239)
   0FE7 36 00              1724 	ld	(hl), #0x00
   0FE9 21r32r05           1725 	ld	hl, #(_maps + 0x023a)
   0FEC 36 00              1726 	ld	(hl), #0x00
   0FEE 21r33r05           1727 	ld	hl, #(_maps + 0x023b)
   0FF1 36 00              1728 	ld	(hl), #0x00
   0FF3 21r34r05           1729 	ld	hl, #(_maps + 0x023c)
   0FF6 36 00              1730 	ld	(hl), #0x00
   0FF8 21r35r05           1731 	ld	hl, #(_maps + 0x023d)
   0FFB 36 00              1732 	ld	(hl), #0x00
   0FFD 21r36r05           1733 	ld	hl, #(_maps + 0x023e)
   1000 36 00              1734 	ld	(hl), #0x00
   1002 21r37r05           1735 	ld	hl, #(_maps + 0x023f)
   1005 36 00              1736 	ld	(hl), #0x00
   1007 21r38r05           1737 	ld	hl, #(_maps + 0x0240)
   100A 36 00              1738 	ld	(hl), #0x00
   100C 21r39r05           1739 	ld	hl, #(_maps + 0x0241)
   100F 36 00              1740 	ld	(hl), #0x00
   1011 21r3Ar05           1741 	ld	hl, #(_maps + 0x0242)
   1014 36 00              1742 	ld	(hl), #0x00
   1016 21r3Br05           1743 	ld	hl, #(_maps + 0x0243)
   1019 36 04              1744 	ld	(hl), #0x04
   101B 21r3Cr05           1745 	ld	hl, #(_maps + 0x0244)
   101E 36 04              1746 	ld	(hl), #0x04
   1020 21r3Dr05           1747 	ld	hl, #(_maps + 0x0245)
   1023 36 00              1748 	ld	(hl), #0x00
   1025 21r3Er05           1749 	ld	hl, #(_maps + 0x0246)
   1028 36 00              1750 	ld	(hl), #0x00
   102A 21r3Fr05           1751 	ld	hl, #(_maps + 0x0247)
   102D 36 00              1752 	ld	(hl), #0x00
   102F 21r40r05           1753 	ld	hl, #(_maps + 0x0248)
   1032 36 00              1754 	ld	(hl), #0x00
   1034 21r41r05           1755 	ld	hl, #(_maps + 0x0249)
   1037 36 00              1756 	ld	(hl), #0x00
   1039 21r42r05           1757 	ld	hl, #(_maps + 0x024a)
   103C 36 00              1758 	ld	(hl), #0x00
   103E 21r43r05           1759 	ld	hl, #(_maps + 0x024b)
   1041 36 00              1760 	ld	(hl), #0x00
   1043 21r44r05           1761 	ld	hl, #(_maps + 0x024c)
   1046 36 00              1762 	ld	(hl), #0x00
   1048 21r45r05           1763 	ld	hl, #(_maps + 0x024d)
   104B 36 00              1764 	ld	(hl), #0x00
   104D 21r46r05           1765 	ld	hl, #(_maps + 0x024e)
   1050 36 00              1766 	ld	(hl), #0x00
   1052 21r47r05           1767 	ld	hl, #(_maps + 0x024f)
   1055 36 00              1768 	ld	(hl), #0x00
   1057 21r48r05           1769 	ld	hl, #(_maps + 0x0250)
   105A 36 00              1770 	ld	(hl), #0x00
   105C 21r49r05           1771 	ld	hl, #(_maps + 0x0251)
   105F 36 00              1772 	ld	(hl), #0x00
   1061 21r4Ar05           1773 	ld	hl, #(_maps + 0x0252)
   1064 36 00              1774 	ld	(hl), #0x00
   1066 21r4Br05           1775 	ld	hl, #(_maps + 0x0253)
   1069 36 00              1776 	ld	(hl), #0x00
   106B 21r4Cr05           1777 	ld	hl, #(_maps + 0x0254)
   106E 36 00              1778 	ld	(hl), #0x00
   1070 21r4Dr05           1779 	ld	hl, #(_maps + 0x0255)
   1073 36 00              1780 	ld	(hl), #0x00
   1075 21r4Er05           1781 	ld	hl, #(_maps + 0x0256)
   1078 36 00              1782 	ld	(hl), #0x00
   107A 21r4Fr05           1783 	ld	hl, #(_maps + 0x0257)
   107D 36 04              1784 	ld	(hl), #0x04
   107F 21r50r05           1785 	ld	hl, #(_maps + 0x0258)
   1082 36 04              1786 	ld	(hl), #0x04
   1084 21r51r05           1787 	ld	hl, #(_maps + 0x0259)
   1087 36 00              1788 	ld	(hl), #0x00
   1089 21r52r05           1789 	ld	hl, #(_maps + 0x025a)
   108C 36 00              1790 	ld	(hl), #0x00
   108E 21r53r05           1791 	ld	hl, #(_maps + 0x025b)
   1091 36 00              1792 	ld	(hl), #0x00
   1093 21r54r05           1793 	ld	hl, #(_maps + 0x025c)
   1096 36 00              1794 	ld	(hl), #0x00
   1098 21r55r05           1795 	ld	hl, #(_maps + 0x025d)
   109B 36 00              1796 	ld	(hl), #0x00
   109D 21r56r05           1797 	ld	hl, #(_maps + 0x025e)
   10A0 36 00              1798 	ld	(hl), #0x00
   10A2 21r57r05           1799 	ld	hl, #(_maps + 0x025f)
   10A5 36 00              1800 	ld	(hl), #0x00
   10A7 21r58r05           1801 	ld	hl, #(_maps + 0x0260)
   10AA 36 00              1802 	ld	(hl), #0x00
   10AC 21r59r05           1803 	ld	hl, #(_maps + 0x0261)
   10AF 36 00              1804 	ld	(hl), #0x00
   10B1 21r5Ar05           1805 	ld	hl, #(_maps + 0x0262)
   10B4 36 00              1806 	ld	(hl), #0x00
   10B6 21r5Br05           1807 	ld	hl, #(_maps + 0x0263)
   10B9 36 00              1808 	ld	(hl), #0x00
   10BB 21r5Cr05           1809 	ld	hl, #(_maps + 0x0264)
   10BE 36 00              1810 	ld	(hl), #0x00
   10C0 21r5Dr05           1811 	ld	hl, #(_maps + 0x0265)
   10C3 36 00              1812 	ld	(hl), #0x00
   10C5 21r5Er05           1813 	ld	hl, #(_maps + 0x0266)
   10C8 36 00              1814 	ld	(hl), #0x00
   10CA 21r5Fr05           1815 	ld	hl, #(_maps + 0x0267)
   10CD 36 00              1816 	ld	(hl), #0x00
   10CF 21r60r05           1817 	ld	hl, #(_maps + 0x0268)
   10D2 36 00              1818 	ld	(hl), #0x00
   10D4 21r61r05           1819 	ld	hl, #(_maps + 0x0269)
   10D7 36 00              1820 	ld	(hl), #0x00
   10D9 21r62r05           1821 	ld	hl, #(_maps + 0x026a)
   10DC 36 00              1822 	ld	(hl), #0x00
   10DE 21r63r05           1823 	ld	hl, #(_maps + 0x026b)
   10E1 36 04              1824 	ld	(hl), #0x04
   10E3 21r64r05           1825 	ld	hl, #(_maps + 0x026c)
   10E6 36 04              1826 	ld	(hl), #0x04
   10E8 21r65r05           1827 	ld	hl, #(_maps + 0x026d)
   10EB 36 00              1828 	ld	(hl), #0x00
   10ED 21r66r05           1829 	ld	hl, #(_maps + 0x026e)
   10F0 36 00              1830 	ld	(hl), #0x00
   10F2 21r67r05           1831 	ld	hl, #(_maps + 0x026f)
   10F5 36 00              1832 	ld	(hl), #0x00
   10F7 21r68r05           1833 	ld	hl, #(_maps + 0x0270)
   10FA 36 00              1834 	ld	(hl), #0x00
   10FC 21r69r05           1835 	ld	hl, #(_maps + 0x0271)
   10FF 36 00              1836 	ld	(hl), #0x00
   1101 21r6Ar05           1837 	ld	hl, #(_maps + 0x0272)
   1104 36 00              1838 	ld	(hl), #0x00
   1106 21r6Br05           1839 	ld	hl, #(_maps + 0x0273)
   1109 36 00              1840 	ld	(hl), #0x00
   110B 21r6Cr05           1841 	ld	hl, #(_maps + 0x0274)
   110E 36 00              1842 	ld	(hl), #0x00
   1110 21r6Dr05           1843 	ld	hl, #(_maps + 0x0275)
   1113 36 00              1844 	ld	(hl), #0x00
   1115 21r6Er05           1845 	ld	hl, #(_maps + 0x0276)
   1118 36 00              1846 	ld	(hl), #0x00
   111A 21r6Fr05           1847 	ld	hl, #(_maps + 0x0277)
   111D 36 00              1848 	ld	(hl), #0x00
   111F 21r70r05           1849 	ld	hl, #(_maps + 0x0278)
   1122 36 00              1850 	ld	(hl), #0x00
   1124 21r71r05           1851 	ld	hl, #(_maps + 0x0279)
   1127 36 00              1852 	ld	(hl), #0x00
   1129 21r72r05           1853 	ld	hl, #(_maps + 0x027a)
   112C 36 00              1854 	ld	(hl), #0x00
   112E 21r73r05           1855 	ld	hl, #(_maps + 0x027b)
   1131 36 00              1856 	ld	(hl), #0x00
   1133 21r74r05           1857 	ld	hl, #(_maps + 0x027c)
   1136 36 00              1858 	ld	(hl), #0x00
   1138 21r75r05           1859 	ld	hl, #(_maps + 0x027d)
   113B 36 00              1860 	ld	(hl), #0x00
   113D 21r76r05           1861 	ld	hl, #(_maps + 0x027e)
   1140 36 00              1862 	ld	(hl), #0x00
   1142 21r77r05           1863 	ld	hl, #(_maps + 0x027f)
   1145 36 04              1864 	ld	(hl), #0x04
   1147 21r78r05           1865 	ld	hl, #(_maps + 0x0280)
   114A 36 04              1866 	ld	(hl), #0x04
   114C 21r79r05           1867 	ld	hl, #(_maps + 0x0281)
   114F 36 00              1868 	ld	(hl), #0x00
   1151 21r7Ar05           1869 	ld	hl, #(_maps + 0x0282)
   1154 36 00              1870 	ld	(hl), #0x00
   1156 21r7Br05           1871 	ld	hl, #(_maps + 0x0283)
   1159 36 00              1872 	ld	(hl), #0x00
   115B 21r7Cr05           1873 	ld	hl, #(_maps + 0x0284)
   115E 36 00              1874 	ld	(hl), #0x00
   1160 21r7Dr05           1875 	ld	hl, #(_maps + 0x0285)
   1163 36 00              1876 	ld	(hl), #0x00
   1165 21r7Er05           1877 	ld	hl, #(_maps + 0x0286)
   1168 36 00              1878 	ld	(hl), #0x00
   116A 21r7Fr05           1879 	ld	hl, #(_maps + 0x0287)
   116D 36 00              1880 	ld	(hl), #0x00
   116F 21r80r05           1881 	ld	hl, #(_maps + 0x0288)
   1172 36 00              1882 	ld	(hl), #0x00
   1174 21r81r05           1883 	ld	hl, #(_maps + 0x0289)
   1177 36 00              1884 	ld	(hl), #0x00
   1179 21r82r05           1885 	ld	hl, #(_maps + 0x028a)
   117C 36 00              1886 	ld	(hl), #0x00
   117E 21r83r05           1887 	ld	hl, #(_maps + 0x028b)
   1181 36 00              1888 	ld	(hl), #0x00
   1183 21r84r05           1889 	ld	hl, #(_maps + 0x028c)
   1186 36 00              1890 	ld	(hl), #0x00
   1188 21r85r05           1891 	ld	hl, #(_maps + 0x028d)
   118B 36 00              1892 	ld	(hl), #0x00
   118D 21r86r05           1893 	ld	hl, #(_maps + 0x028e)
   1190 36 00              1894 	ld	(hl), #0x00
   1192 21r87r05           1895 	ld	hl, #(_maps + 0x028f)
   1195 36 00              1896 	ld	(hl), #0x00
   1197 21r88r05           1897 	ld	hl, #(_maps + 0x0290)
   119A 36 00              1898 	ld	(hl), #0x00
   119C 21r89r05           1899 	ld	hl, #(_maps + 0x0291)
   119F 36 00              1900 	ld	(hl), #0x00
   11A1 21r8Ar05           1901 	ld	hl, #(_maps + 0x0292)
   11A4 36 00              1902 	ld	(hl), #0x00
   11A6 21r8Br05           1903 	ld	hl, #(_maps + 0x0293)
   11A9 36 04              1904 	ld	(hl), #0x04
   11AB 21r8Cr05           1905 	ld	hl, #(_maps + 0x0294)
   11AE 36 04              1906 	ld	(hl), #0x04
   11B0 21r8Dr05           1907 	ld	hl, #(_maps + 0x0295)
   11B3 36 00              1908 	ld	(hl), #0x00
   11B5 21r8Er05           1909 	ld	hl, #(_maps + 0x0296)
   11B8 36 00              1910 	ld	(hl), #0x00
   11BA 21r8Fr05           1911 	ld	hl, #(_maps + 0x0297)
   11BD 36 00              1912 	ld	(hl), #0x00
   11BF 21r90r05           1913 	ld	hl, #(_maps + 0x0298)
   11C2 36 00              1914 	ld	(hl), #0x00
   11C4 21r91r05           1915 	ld	hl, #(_maps + 0x0299)
   11C7 36 00              1916 	ld	(hl), #0x00
   11C9 21r92r05           1917 	ld	hl, #(_maps + 0x029a)
   11CC 36 00              1918 	ld	(hl), #0x00
   11CE 21r93r05           1919 	ld	hl, #(_maps + 0x029b)
   11D1 36 03              1920 	ld	(hl), #0x03
   11D3 21r94r05           1921 	ld	hl, #(_maps + 0x029c)
   11D6 36 03              1922 	ld	(hl), #0x03
   11D8 21r95r05           1923 	ld	hl, #(_maps + 0x029d)
   11DB 36 03              1924 	ld	(hl), #0x03
   11DD 21r96r05           1925 	ld	hl, #(_maps + 0x029e)
   11E0 36 03              1926 	ld	(hl), #0x03
   11E2 21r97r05           1927 	ld	hl, #(_maps + 0x029f)
   11E5 36 03              1928 	ld	(hl), #0x03
   11E7 21r98r05           1929 	ld	hl, #(_maps + 0x02a0)
   11EA 36 03              1930 	ld	(hl), #0x03
   11EC 21r99r05           1931 	ld	hl, #(_maps + 0x02a1)
   11EF 36 03              1932 	ld	(hl), #0x03
   11F1 21r9Ar05           1933 	ld	hl, #(_maps + 0x02a2)
   11F4 36 00              1934 	ld	(hl), #0x00
   11F6 21r9Br05           1935 	ld	hl, #(_maps + 0x02a3)
   11F9 36 00              1936 	ld	(hl), #0x00
   11FB 21r9Cr05           1937 	ld	hl, #(_maps + 0x02a4)
   11FE 36 00              1938 	ld	(hl), #0x00
   1200 21r9Dr05           1939 	ld	hl, #(_maps + 0x02a5)
   1203 36 00              1940 	ld	(hl), #0x00
   1205 21r9Er05           1941 	ld	hl, #(_maps + 0x02a6)
   1208 36 00              1942 	ld	(hl), #0x00
   120A 21r9Fr05           1943 	ld	hl, #(_maps + 0x02a7)
   120D 36 04              1944 	ld	(hl), #0x04
   120F 21rA0r05           1945 	ld	hl, #(_maps + 0x02a8)
   1212 36 04              1946 	ld	(hl), #0x04
   1214 21rA1r05           1947 	ld	hl, #(_maps + 0x02a9)
   1217 36 02              1948 	ld	(hl), #0x02
   1219 21rA2r05           1949 	ld	hl, #(_maps + 0x02aa)
   121C 36 00              1950 	ld	(hl), #0x00
   121E 21rA3r05           1951 	ld	hl, #(_maps + 0x02ab)
   1221 36 00              1952 	ld	(hl), #0x00
   1223 21rA4r05           1953 	ld	hl, #(_maps + 0x02ac)
   1226 36 00              1954 	ld	(hl), #0x00
   1228 21rA5r05           1955 	ld	hl, #(_maps + 0x02ad)
   122B 36 00              1956 	ld	(hl), #0x00
   122D 21rA6r05           1957 	ld	hl, #(_maps + 0x02ae)
   1230 36 00              1958 	ld	(hl), #0x00
   1232 21rA7r05           1959 	ld	hl, #(_maps + 0x02af)
   1235 36 03              1960 	ld	(hl), #0x03
   1237 21rA8r05           1961 	ld	hl, #(_maps + 0x02b0)
   123A 36 03              1962 	ld	(hl), #0x03
   123C 21rA9r05           1963 	ld	hl, #(_maps + 0x02b1)
   123F 36 03              1964 	ld	(hl), #0x03
   1241 21rAAr05           1965 	ld	hl, #(_maps + 0x02b2)
   1244 36 03              1966 	ld	(hl), #0x03
   1246 21rABr05           1967 	ld	hl, #(_maps + 0x02b3)
   1249 36 03              1968 	ld	(hl), #0x03
   124B 21rACr05           1969 	ld	hl, #(_maps + 0x02b4)
   124E 36 03              1970 	ld	(hl), #0x03
   1250 21rADr05           1971 	ld	hl, #(_maps + 0x02b5)
   1253 36 03              1972 	ld	(hl), #0x03
   1255 21rAEr05           1973 	ld	hl, #(_maps + 0x02b6)
   1258 36 00              1974 	ld	(hl), #0x00
   125A 21rAFr05           1975 	ld	hl, #(_maps + 0x02b7)
   125D 36 00              1976 	ld	(hl), #0x00
   125F 21rB0r05           1977 	ld	hl, #(_maps + 0x02b8)
   1262 36 00              1978 	ld	(hl), #0x00
   1264 21rB1r05           1979 	ld	hl, #(_maps + 0x02b9)
   1267 36 00              1980 	ld	(hl), #0x00
   1269 21rB2r05           1981 	ld	hl, #(_maps + 0x02ba)
   126C 36 01              1982 	ld	(hl), #0x01
   126E 21rB3r05           1983 	ld	hl, #(_maps + 0x02bb)
   1271 36 04              1984 	ld	(hl), #0x04
   1273 21rB4r05           1985 	ld	hl, #(_maps + 0x02bc)
   1276 36 04              1986 	ld	(hl), #0x04
   1278 21rB5r05           1987 	ld	hl, #(_maps + 0x02bd)
   127B 36 04              1988 	ld	(hl), #0x04
   127D 21rB6r05           1989 	ld	hl, #(_maps + 0x02be)
   1280 36 04              1990 	ld	(hl), #0x04
   1282 21rB7r05           1991 	ld	hl, #(_maps + 0x02bf)
   1285 36 04              1992 	ld	(hl), #0x04
   1287 21rB8r05           1993 	ld	hl, #(_maps + 0x02c0)
   128A 36 04              1994 	ld	(hl), #0x04
   128C 21rB9r05           1995 	ld	hl, #(_maps + 0x02c1)
   128F 36 04              1996 	ld	(hl), #0x04
   1291 21rBAr05           1997 	ld	hl, #(_maps + 0x02c2)
   1294 36 04              1998 	ld	(hl), #0x04
   1296 21rBBr05           1999 	ld	hl, #(_maps + 0x02c3)
   1299 36 04              2000 	ld	(hl), #0x04
   129B 21rBCr05           2001 	ld	hl, #(_maps + 0x02c4)
   129E 36 04              2002 	ld	(hl), #0x04
   12A0 21rBDr05           2003 	ld	hl, #(_maps + 0x02c5)
   12A3 36 04              2004 	ld	(hl), #0x04
   12A5 21rBEr05           2005 	ld	hl, #(_maps + 0x02c6)
   12A8 36 04              2006 	ld	(hl), #0x04
   12AA 21rBFr05           2007 	ld	hl, #(_maps + 0x02c7)
   12AD 36 04              2008 	ld	(hl), #0x04
   12AF 21rC0r05           2009 	ld	hl, #(_maps + 0x02c8)
   12B2 36 04              2010 	ld	(hl), #0x04
   12B4 21rC1r05           2011 	ld	hl, #(_maps + 0x02c9)
   12B7 36 04              2012 	ld	(hl), #0x04
   12B9 21rC2r05           2013 	ld	hl, #(_maps + 0x02ca)
   12BC 36 04              2014 	ld	(hl), #0x04
   12BE 21rC3r05           2015 	ld	hl, #(_maps + 0x02cb)
   12C1 36 04              2016 	ld	(hl), #0x04
   12C3 21rC4r05           2017 	ld	hl, #(_maps + 0x02cc)
   12C6 36 04              2018 	ld	(hl), #0x04
   12C8 21rC5r05           2019 	ld	hl, #(_maps + 0x02cd)
   12CB 36 04              2020 	ld	(hl), #0x04
   12CD 21rC6r05           2021 	ld	hl, #(_maps + 0x02ce)
   12D0 36 04              2022 	ld	(hl), #0x04
   12D2 21rC7r05           2023 	ld	hl, #(_maps + 0x02cf)
   12D5 36 04              2024 	ld	(hl), #0x04
   12D7 21rC8r05           2025 	ld	hl, #(_maps + 0x02d0)
   12DA 36 04              2026 	ld	(hl), #0x04
   12DC 21rC9r05           2027 	ld	hl, #(_maps + 0x02d1)
   12DF 36 04              2028 	ld	(hl), #0x04
   12E1 21rCAr05           2029 	ld	hl, #(_maps + 0x02d2)
   12E4 36 04              2030 	ld	(hl), #0x04
   12E6 21rCBr05           2031 	ld	hl, #(_maps + 0x02d3)
   12E9 36 04              2032 	ld	(hl), #0x04
   12EB 21rCCr05           2033 	ld	hl, #(_maps + 0x02d4)
   12EE 36 04              2034 	ld	(hl), #0x04
   12F0 21rCDr05           2035 	ld	hl, #(_maps + 0x02d5)
   12F3 36 04              2036 	ld	(hl), #0x04
   12F5 21rCEr05           2037 	ld	hl, #(_maps + 0x02d6)
   12F8 36 04              2038 	ld	(hl), #0x04
   12FA 21rCFr05           2039 	ld	hl, #(_maps + 0x02d7)
   12FD 36 04              2040 	ld	(hl), #0x04
   12FF 21rD0r05           2041 	ld	hl, #(_maps + 0x02d8)
   1302 36 04              2042 	ld	(hl), #0x04
   1304 21rD1r05           2043 	ld	hl, #(_maps + 0x02d9)
   1307 36 04              2044 	ld	(hl), #0x04
   1309 21rD2r05           2045 	ld	hl, #(_maps + 0x02da)
   130C 36 04              2046 	ld	(hl), #0x04
   130E 21rD3r05           2047 	ld	hl, #(_maps + 0x02db)
   1311 36 04              2048 	ld	(hl), #0x04
   1313 21rD4r05           2049 	ld	hl, #(_maps + 0x02dc)
   1316 36 04              2050 	ld	(hl), #0x04
   1318 21rD5r05           2051 	ld	hl, #(_maps + 0x02dd)
   131B 36 04              2052 	ld	(hl), #0x04
   131D 21rD6r05           2053 	ld	hl, #(_maps + 0x02de)
   1320 36 04              2054 	ld	(hl), #0x04
   1322 21rD7r05           2055 	ld	hl, #(_maps + 0x02df)
   1325 36 04              2056 	ld	(hl), #0x04
   1327 21rD8r05           2057 	ld	hl, #(_maps + 0x02e0)
   132A 36 04              2058 	ld	(hl), #0x04
   132C 21rD9r05           2059 	ld	hl, #(_maps + 0x02e1)
   132F 36 04              2060 	ld	(hl), #0x04
   1331 21rDAr05           2061 	ld	hl, #(_maps + 0x02e2)
   1334 36 04              2062 	ld	(hl), #0x04
   1336 21rDBr05           2063 	ld	hl, #(_maps + 0x02e3)
   1339 36 04              2064 	ld	(hl), #0x04
   133B 21rDCr05           2065 	ld	hl, #(_maps + 0x02e4)
   133E 36 04              2066 	ld	(hl), #0x04
   1340 21rDDr05           2067 	ld	hl, #(_maps + 0x02e5)
   1343 36 00              2068 	ld	(hl), #0x00
   1345 21rDEr05           2069 	ld	hl, #(_maps + 0x02e6)
   1348 36 00              2070 	ld	(hl), #0x00
   134A 21rDFr05           2071 	ld	hl, #(_maps + 0x02e7)
   134D 36 00              2072 	ld	(hl), #0x00
   134F 21rE0r05           2073 	ld	hl, #(_maps + 0x02e8)
   1352 36 00              2074 	ld	(hl), #0x00
   1354 21rE1r05           2075 	ld	hl, #(_maps + 0x02e9)
   1357 36 00              2076 	ld	(hl), #0x00
   1359 21rE2r05           2077 	ld	hl, #(_maps + 0x02ea)
   135C 36 00              2078 	ld	(hl), #0x00
   135E 21rE3r05           2079 	ld	hl, #(_maps + 0x02eb)
   1361 36 00              2080 	ld	(hl), #0x00
   1363 21rE4r05           2081 	ld	hl, #(_maps + 0x02ec)
   1366 36 00              2082 	ld	(hl), #0x00
   1368 21rE5r05           2083 	ld	hl, #(_maps + 0x02ed)
   136B 36 00              2084 	ld	(hl), #0x00
   136D 21rE6r05           2085 	ld	hl, #(_maps + 0x02ee)
   1370 36 00              2086 	ld	(hl), #0x00
   1372 21rE7r05           2087 	ld	hl, #(_maps + 0x02ef)
   1375 36 00              2088 	ld	(hl), #0x00
   1377 21rE8r05           2089 	ld	hl, #(_maps + 0x02f0)
   137A 36 00              2090 	ld	(hl), #0x00
   137C 21rE9r05           2091 	ld	hl, #(_maps + 0x02f1)
   137F 36 00              2092 	ld	(hl), #0x00
   1381 21rEAr05           2093 	ld	hl, #(_maps + 0x02f2)
   1384 36 00              2094 	ld	(hl), #0x00
   1386 21rEBr05           2095 	ld	hl, #(_maps + 0x02f3)
   1389 36 00              2096 	ld	(hl), #0x00
   138B 21rECr05           2097 	ld	hl, #(_maps + 0x02f4)
   138E 36 00              2098 	ld	(hl), #0x00
   1390 21rEDr05           2099 	ld	hl, #(_maps + 0x02f5)
   1393 36 00              2100 	ld	(hl), #0x00
   1395 21rEEr05           2101 	ld	hl, #(_maps + 0x02f6)
   1398 36 00              2102 	ld	(hl), #0x00
   139A 21rEFr05           2103 	ld	hl, #(_maps + 0x02f7)
   139D 36 04              2104 	ld	(hl), #0x04
   139F 21rF0r05           2105 	ld	hl, #(_maps + 0x02f8)
   13A2 36 04              2106 	ld	(hl), #0x04
   13A4 21rF1r05           2107 	ld	hl, #(_maps + 0x02f9)
   13A7 36 00              2108 	ld	(hl), #0x00
   13A9 21rF2r05           2109 	ld	hl, #(_maps + 0x02fa)
   13AC 36 00              2110 	ld	(hl), #0x00
   13AE 21rF3r05           2111 	ld	hl, #(_maps + 0x02fb)
   13B1 36 00              2112 	ld	(hl), #0x00
   13B3 21rF4r05           2113 	ld	hl, #(_maps + 0x02fc)
   13B6 36 00              2114 	ld	(hl), #0x00
   13B8 21rF5r05           2115 	ld	hl, #(_maps + 0x02fd)
   13BB 36 00              2116 	ld	(hl), #0x00
   13BD 21rF6r05           2117 	ld	hl, #(_maps + 0x02fe)
   13C0 36 00              2118 	ld	(hl), #0x00
   13C2 21rF7r05           2119 	ld	hl, #(_maps + 0x02ff)
   13C5 36 00              2120 	ld	(hl), #0x00
   13C7 21rF8r05           2121 	ld	hl, #(_maps + 0x0300)
   13CA 36 00              2122 	ld	(hl), #0x00
   13CC 21rF9r05           2123 	ld	hl, #(_maps + 0x0301)
   13CF 36 00              2124 	ld	(hl), #0x00
   13D1 21rFAr05           2125 	ld	hl, #(_maps + 0x0302)
   13D4 36 00              2126 	ld	(hl), #0x00
   13D6 21rFBr05           2127 	ld	hl, #(_maps + 0x0303)
   13D9 36 00              2128 	ld	(hl), #0x00
   13DB 21rFCr05           2129 	ld	hl, #(_maps + 0x0304)
   13DE 36 00              2130 	ld	(hl), #0x00
   13E0 21rFDr05           2131 	ld	hl, #(_maps + 0x0305)
   13E3 36 00              2132 	ld	(hl), #0x00
   13E5 21rFEr05           2133 	ld	hl, #(_maps + 0x0306)
   13E8 36 00              2134 	ld	(hl), #0x00
   13EA 21rFFr05           2135 	ld	hl, #(_maps + 0x0307)
   13ED 36 00              2136 	ld	(hl), #0x00
   13EF 21r00r06           2137 	ld	hl, #(_maps + 0x0308)
   13F2 36 00              2138 	ld	(hl), #0x00
   13F4 21r01r06           2139 	ld	hl, #(_maps + 0x0309)
   13F7 36 00              2140 	ld	(hl), #0x00
   13F9 21r02r06           2141 	ld	hl, #(_maps + 0x030a)
   13FC 36 00              2142 	ld	(hl), #0x00
   13FE 21r03r06           2143 	ld	hl, #(_maps + 0x030b)
   1401 36 04              2144 	ld	(hl), #0x04
   1403 21r04r06           2145 	ld	hl, #(_maps + 0x030c)
   1406 36 04              2146 	ld	(hl), #0x04
   1408 21r05r06           2147 	ld	hl, #(_maps + 0x030d)
   140B 36 00              2148 	ld	(hl), #0x00
   140D 21r06r06           2149 	ld	hl, #(_maps + 0x030e)
   1410 36 00              2150 	ld	(hl), #0x00
   1412 21r07r06           2151 	ld	hl, #(_maps + 0x030f)
   1415 36 00              2152 	ld	(hl), #0x00
   1417 21r08r06           2153 	ld	hl, #(_maps + 0x0310)
   141A 36 00              2154 	ld	(hl), #0x00
   141C 21r09r06           2155 	ld	hl, #(_maps + 0x0311)
   141F 36 00              2156 	ld	(hl), #0x00
   1421 21r0Ar06           2157 	ld	hl, #(_maps + 0x0312)
   1424 36 00              2158 	ld	(hl), #0x00
   1426 21r0Br06           2159 	ld	hl, #(_maps + 0x0313)
   1429 36 00              2160 	ld	(hl), #0x00
   142B 21r0Cr06           2161 	ld	hl, #(_maps + 0x0314)
   142E 36 00              2162 	ld	(hl), #0x00
   1430 21r0Dr06           2163 	ld	hl, #(_maps + 0x0315)
   1433 36 00              2164 	ld	(hl), #0x00
   1435 21r0Er06           2165 	ld	hl, #(_maps + 0x0316)
   1438 36 00              2166 	ld	(hl), #0x00
   143A 21r0Fr06           2167 	ld	hl, #(_maps + 0x0317)
   143D 36 00              2168 	ld	(hl), #0x00
   143F 21r10r06           2169 	ld	hl, #(_maps + 0x0318)
   1442 36 00              2170 	ld	(hl), #0x00
   1444 21r11r06           2171 	ld	hl, #(_maps + 0x0319)
   1447 36 00              2172 	ld	(hl), #0x00
   1449 21r12r06           2173 	ld	hl, #(_maps + 0x031a)
   144C 36 00              2174 	ld	(hl), #0x00
   144E 21r13r06           2175 	ld	hl, #(_maps + 0x031b)
   1451 36 00              2176 	ld	(hl), #0x00
   1453 21r14r06           2177 	ld	hl, #(_maps + 0x031c)
   1456 36 00              2178 	ld	(hl), #0x00
   1458 21r15r06           2179 	ld	hl, #(_maps + 0x031d)
   145B 36 00              2180 	ld	(hl), #0x00
   145D 21r16r06           2181 	ld	hl, #(_maps + 0x031e)
   1460 36 00              2182 	ld	(hl), #0x00
   1462 21r17r06           2183 	ld	hl, #(_maps + 0x031f)
   1465 36 04              2184 	ld	(hl), #0x04
   1467 21r18r06           2185 	ld	hl, #(_maps + 0x0320)
   146A 36 04              2186 	ld	(hl), #0x04
   146C 21r19r06           2187 	ld	hl, #(_maps + 0x0321)
   146F 36 00              2188 	ld	(hl), #0x00
   1471 21r1Ar06           2189 	ld	hl, #(_maps + 0x0322)
   1474 36 00              2190 	ld	(hl), #0x00
   1476 21r1Br06           2191 	ld	hl, #(_maps + 0x0323)
   1479 36 00              2192 	ld	(hl), #0x00
   147B 21r1Cr06           2193 	ld	hl, #(_maps + 0x0324)
   147E 36 00              2194 	ld	(hl), #0x00
   1480 21r1Dr06           2195 	ld	hl, #(_maps + 0x0325)
   1483 36 00              2196 	ld	(hl), #0x00
   1485 21r1Er06           2197 	ld	hl, #(_maps + 0x0326)
   1488 36 00              2198 	ld	(hl), #0x00
   148A 21r1Fr06           2199 	ld	hl, #(_maps + 0x0327)
   148D 36 00              2200 	ld	(hl), #0x00
   148F 21r20r06           2201 	ld	hl, #(_maps + 0x0328)
   1492 36 00              2202 	ld	(hl), #0x00
   1494 21r21r06           2203 	ld	hl, #(_maps + 0x0329)
   1497 36 00              2204 	ld	(hl), #0x00
   1499 21r22r06           2205 	ld	hl, #(_maps + 0x032a)
   149C 36 00              2206 	ld	(hl), #0x00
   149E 21r23r06           2207 	ld	hl, #(_maps + 0x032b)
   14A1 36 00              2208 	ld	(hl), #0x00
   14A3 21r24r06           2209 	ld	hl, #(_maps + 0x032c)
   14A6 36 00              2210 	ld	(hl), #0x00
   14A8 21r25r06           2211 	ld	hl, #(_maps + 0x032d)
   14AB 36 00              2212 	ld	(hl), #0x00
   14AD 21r26r06           2213 	ld	hl, #(_maps + 0x032e)
   14B0 36 00              2214 	ld	(hl), #0x00
   14B2 21r27r06           2215 	ld	hl, #(_maps + 0x032f)
   14B5 36 00              2216 	ld	(hl), #0x00
   14B7 21r28r06           2217 	ld	hl, #(_maps + 0x0330)
   14BA 36 00              2218 	ld	(hl), #0x00
   14BC 21r29r06           2219 	ld	hl, #(_maps + 0x0331)
   14BF 36 00              2220 	ld	(hl), #0x00
   14C1 21r2Ar06           2221 	ld	hl, #(_maps + 0x0332)
   14C4 36 00              2222 	ld	(hl), #0x00
   14C6 21r2Br06           2223 	ld	hl, #(_maps + 0x0333)
   14C9 36 04              2224 	ld	(hl), #0x04
   14CB 21r2Cr06           2225 	ld	hl, #(_maps + 0x0334)
   14CE 36 04              2226 	ld	(hl), #0x04
   14D0 21r2Dr06           2227 	ld	hl, #(_maps + 0x0335)
   14D3 36 00              2228 	ld	(hl), #0x00
   14D5 21r2Er06           2229 	ld	hl, #(_maps + 0x0336)
   14D8 36 00              2230 	ld	(hl), #0x00
   14DA 21r2Fr06           2231 	ld	hl, #(_maps + 0x0337)
   14DD 36 00              2232 	ld	(hl), #0x00
   14DF 21r30r06           2233 	ld	hl, #(_maps + 0x0338)
   14E2 36 00              2234 	ld	(hl), #0x00
   14E4 21r31r06           2235 	ld	hl, #(_maps + 0x0339)
   14E7 36 00              2236 	ld	(hl), #0x00
   14E9 21r32r06           2237 	ld	hl, #(_maps + 0x033a)
   14EC 36 00              2238 	ld	(hl), #0x00
   14EE 21r33r06           2239 	ld	hl, #(_maps + 0x033b)
   14F1 36 00              2240 	ld	(hl), #0x00
   14F3 21r34r06           2241 	ld	hl, #(_maps + 0x033c)
   14F6 36 00              2242 	ld	(hl), #0x00
   14F8 21r35r06           2243 	ld	hl, #(_maps + 0x033d)
   14FB 36 00              2244 	ld	(hl), #0x00
   14FD 21r36r06           2245 	ld	hl, #(_maps + 0x033e)
   1500 36 00              2246 	ld	(hl), #0x00
   1502 21r37r06           2247 	ld	hl, #(_maps + 0x033f)
   1505 36 00              2248 	ld	(hl), #0x00
   1507 21r38r06           2249 	ld	hl, #(_maps + 0x0340)
   150A 36 00              2250 	ld	(hl), #0x00
   150C 21r39r06           2251 	ld	hl, #(_maps + 0x0341)
   150F 36 00              2252 	ld	(hl), #0x00
   1511 21r3Ar06           2253 	ld	hl, #(_maps + 0x0342)
   1514 36 00              2254 	ld	(hl), #0x00
   1516 21r3Br06           2255 	ld	hl, #(_maps + 0x0343)
   1519 36 00              2256 	ld	(hl), #0x00
   151B 21r3Cr06           2257 	ld	hl, #(_maps + 0x0344)
   151E 36 00              2258 	ld	(hl), #0x00
   1520 21r3Dr06           2259 	ld	hl, #(_maps + 0x0345)
   1523 36 00              2260 	ld	(hl), #0x00
   1525 21r3Er06           2261 	ld	hl, #(_maps + 0x0346)
   1528 36 00              2262 	ld	(hl), #0x00
   152A 21r3Fr06           2263 	ld	hl, #(_maps + 0x0347)
   152D 36 04              2264 	ld	(hl), #0x04
   152F 21r40r06           2265 	ld	hl, #(_maps + 0x0348)
   1532 36 04              2266 	ld	(hl), #0x04
   1534 21r41r06           2267 	ld	hl, #(_maps + 0x0349)
   1537 36 00              2268 	ld	(hl), #0x00
   1539 21r42r06           2269 	ld	hl, #(_maps + 0x034a)
   153C 36 00              2270 	ld	(hl), #0x00
   153E 21r43r06           2271 	ld	hl, #(_maps + 0x034b)
   1541 36 00              2272 	ld	(hl), #0x00
   1543 21r44r06           2273 	ld	hl, #(_maps + 0x034c)
   1546 36 00              2274 	ld	(hl), #0x00
   1548 21r45r06           2275 	ld	hl, #(_maps + 0x034d)
   154B 36 00              2276 	ld	(hl), #0x00
   154D 21r46r06           2277 	ld	hl, #(_maps + 0x034e)
   1550 36 00              2278 	ld	(hl), #0x00
   1552 21r47r06           2279 	ld	hl, #(_maps + 0x034f)
   1555 36 00              2280 	ld	(hl), #0x00
   1557 21r48r06           2281 	ld	hl, #(_maps + 0x0350)
   155A 36 00              2282 	ld	(hl), #0x00
   155C 21r49r06           2283 	ld	hl, #(_maps + 0x0351)
   155F 36 00              2284 	ld	(hl), #0x00
   1561 21r4Ar06           2285 	ld	hl, #(_maps + 0x0352)
   1564 36 00              2286 	ld	(hl), #0x00
   1566 21r4Br06           2287 	ld	hl, #(_maps + 0x0353)
   1569 36 00              2288 	ld	(hl), #0x00
   156B 21r4Cr06           2289 	ld	hl, #(_maps + 0x0354)
   156E 36 00              2290 	ld	(hl), #0x00
   1570 21r4Dr06           2291 	ld	hl, #(_maps + 0x0355)
   1573 36 00              2292 	ld	(hl), #0x00
   1575 21r4Er06           2293 	ld	hl, #(_maps + 0x0356)
   1578 36 00              2294 	ld	(hl), #0x00
   157A 21r4Fr06           2295 	ld	hl, #(_maps + 0x0357)
   157D 36 00              2296 	ld	(hl), #0x00
   157F 21r50r06           2297 	ld	hl, #(_maps + 0x0358)
   1582 36 00              2298 	ld	(hl), #0x00
   1584 21r51r06           2299 	ld	hl, #(_maps + 0x0359)
   1587 36 00              2300 	ld	(hl), #0x00
   1589 21r52r06           2301 	ld	hl, #(_maps + 0x035a)
   158C 36 00              2302 	ld	(hl), #0x00
   158E 21r53r06           2303 	ld	hl, #(_maps + 0x035b)
   1591 36 04              2304 	ld	(hl), #0x04
   1593 21r54r06           2305 	ld	hl, #(_maps + 0x035c)
   1596 36 04              2306 	ld	(hl), #0x04
   1598 21r55r06           2307 	ld	hl, #(_maps + 0x035d)
   159B 36 00              2308 	ld	(hl), #0x00
   159D 21r56r06           2309 	ld	hl, #(_maps + 0x035e)
   15A0 36 00              2310 	ld	(hl), #0x00
   15A2 21r57r06           2311 	ld	hl, #(_maps + 0x035f)
   15A5 36 00              2312 	ld	(hl), #0x00
   15A7 21r58r06           2313 	ld	hl, #(_maps + 0x0360)
   15AA 36 00              2314 	ld	(hl), #0x00
   15AC 21r59r06           2315 	ld	hl, #(_maps + 0x0361)
   15AF 36 00              2316 	ld	(hl), #0x00
   15B1 21r5Ar06           2317 	ld	hl, #(_maps + 0x0362)
   15B4 36 00              2318 	ld	(hl), #0x00
   15B6 21r5Br06           2319 	ld	hl, #(_maps + 0x0363)
   15B9 36 00              2320 	ld	(hl), #0x00
   15BB 21r5Cr06           2321 	ld	hl, #(_maps + 0x0364)
   15BE 36 00              2322 	ld	(hl), #0x00
   15C0 21r5Dr06           2323 	ld	hl, #(_maps + 0x0365)
   15C3 36 00              2324 	ld	(hl), #0x00
   15C5 21r5Er06           2325 	ld	hl, #(_maps + 0x0366)
   15C8 36 00              2326 	ld	(hl), #0x00
   15CA 21r5Fr06           2327 	ld	hl, #(_maps + 0x0367)
   15CD 36 00              2328 	ld	(hl), #0x00
   15CF 21r60r06           2329 	ld	hl, #(_maps + 0x0368)
   15D2 36 00              2330 	ld	(hl), #0x00
   15D4 21r61r06           2331 	ld	hl, #(_maps + 0x0369)
   15D7 36 00              2332 	ld	(hl), #0x00
   15D9 21r62r06           2333 	ld	hl, #(_maps + 0x036a)
   15DC 36 00              2334 	ld	(hl), #0x00
   15DE 21r63r06           2335 	ld	hl, #(_maps + 0x036b)
   15E1 36 00              2336 	ld	(hl), #0x00
   15E3 21r64r06           2337 	ld	hl, #(_maps + 0x036c)
   15E6 36 00              2338 	ld	(hl), #0x00
   15E8 21r65r06           2339 	ld	hl, #(_maps + 0x036d)
   15EB 36 00              2340 	ld	(hl), #0x00
   15ED 21r66r06           2341 	ld	hl, #(_maps + 0x036e)
   15F0 36 00              2342 	ld	(hl), #0x00
   15F2 21r67r06           2343 	ld	hl, #(_maps + 0x036f)
   15F5 36 04              2344 	ld	(hl), #0x04
   15F7 21r68r06           2345 	ld	hl, #(_maps + 0x0370)
   15FA 36 04              2346 	ld	(hl), #0x04
   15FC 21r69r06           2347 	ld	hl, #(_maps + 0x0371)
   15FF 36 00              2348 	ld	(hl), #0x00
   1601 21r6Ar06           2349 	ld	hl, #(_maps + 0x0372)
   1604 36 00              2350 	ld	(hl), #0x00
   1606 21r6Br06           2351 	ld	hl, #(_maps + 0x0373)
   1609 36 00              2352 	ld	(hl), #0x00
   160B 21r6Cr06           2353 	ld	hl, #(_maps + 0x0374)
   160E 36 00              2354 	ld	(hl), #0x00
   1610 21r6Dr06           2355 	ld	hl, #(_maps + 0x0375)
   1613 36 00              2356 	ld	(hl), #0x00
   1615 21r6Er06           2357 	ld	hl, #(_maps + 0x0376)
   1618 36 00              2358 	ld	(hl), #0x00
   161A 21r6Fr06           2359 	ld	hl, #(_maps + 0x0377)
   161D 36 00              2360 	ld	(hl), #0x00
   161F 21r70r06           2361 	ld	hl, #(_maps + 0x0378)
   1622 36 00              2362 	ld	(hl), #0x00
   1624 21r71r06           2363 	ld	hl, #(_maps + 0x0379)
   1627 36 00              2364 	ld	(hl), #0x00
   1629 21r72r06           2365 	ld	hl, #(_maps + 0x037a)
   162C 36 00              2366 	ld	(hl), #0x00
   162E 21r73r06           2367 	ld	hl, #(_maps + 0x037b)
   1631 36 00              2368 	ld	(hl), #0x00
   1633 21r74r06           2369 	ld	hl, #(_maps + 0x037c)
   1636 36 00              2370 	ld	(hl), #0x00
   1638 21r75r06           2371 	ld	hl, #(_maps + 0x037d)
   163B 36 00              2372 	ld	(hl), #0x00
   163D 21r76r06           2373 	ld	hl, #(_maps + 0x037e)
   1640 36 00              2374 	ld	(hl), #0x00
   1642 21r77r06           2375 	ld	hl, #(_maps + 0x037f)
   1645 36 00              2376 	ld	(hl), #0x00
   1647 21r78r06           2377 	ld	hl, #(_maps + 0x0380)
   164A 36 00              2378 	ld	(hl), #0x00
   164C 21r79r06           2379 	ld	hl, #(_maps + 0x0381)
   164F 36 00              2380 	ld	(hl), #0x00
   1651 21r7Ar06           2381 	ld	hl, #(_maps + 0x0382)
   1654 36 00              2382 	ld	(hl), #0x00
   1656 21r7Br06           2383 	ld	hl, #(_maps + 0x0383)
   1659 36 04              2384 	ld	(hl), #0x04
   165B 21r7Cr06           2385 	ld	hl, #(_maps + 0x0384)
   165E 36 04              2386 	ld	(hl), #0x04
   1660 21r7Dr06           2387 	ld	hl, #(_maps + 0x0385)
   1663 36 00              2388 	ld	(hl), #0x00
   1665 21r7Er06           2389 	ld	hl, #(_maps + 0x0386)
   1668 36 00              2390 	ld	(hl), #0x00
   166A 21r7Fr06           2391 	ld	hl, #(_maps + 0x0387)
   166D 36 00              2392 	ld	(hl), #0x00
   166F 21r80r06           2393 	ld	hl, #(_maps + 0x0388)
   1672 36 00              2394 	ld	(hl), #0x00
   1674 21r81r06           2395 	ld	hl, #(_maps + 0x0389)
   1677 36 00              2396 	ld	(hl), #0x00
   1679 21r82r06           2397 	ld	hl, #(_maps + 0x038a)
   167C 36 00              2398 	ld	(hl), #0x00
   167E 21r83r06           2399 	ld	hl, #(_maps + 0x038b)
   1681 36 00              2400 	ld	(hl), #0x00
   1683 21r84r06           2401 	ld	hl, #(_maps + 0x038c)
   1686 36 00              2402 	ld	(hl), #0x00
   1688 21r85r06           2403 	ld	hl, #(_maps + 0x038d)
   168B 36 00              2404 	ld	(hl), #0x00
   168D 21r86r06           2405 	ld	hl, #(_maps + 0x038e)
   1690 36 00              2406 	ld	(hl), #0x00
   1692 21r87r06           2407 	ld	hl, #(_maps + 0x038f)
   1695 36 00              2408 	ld	(hl), #0x00
   1697 21r88r06           2409 	ld	hl, #(_maps + 0x0390)
   169A 36 00              2410 	ld	(hl), #0x00
   169C 21r89r06           2411 	ld	hl, #(_maps + 0x0391)
   169F 36 00              2412 	ld	(hl), #0x00
   16A1 21r8Ar06           2413 	ld	hl, #(_maps + 0x0392)
   16A4 36 00              2414 	ld	(hl), #0x00
   16A6 21r8Br06           2415 	ld	hl, #(_maps + 0x0393)
   16A9 36 00              2416 	ld	(hl), #0x00
   16AB 21r8Cr06           2417 	ld	hl, #(_maps + 0x0394)
   16AE 36 00              2418 	ld	(hl), #0x00
   16B0 21r8Dr06           2419 	ld	hl, #(_maps + 0x0395)
   16B3 36 00              2420 	ld	(hl), #0x00
   16B5 21r8Er06           2421 	ld	hl, #(_maps + 0x0396)
   16B8 36 00              2422 	ld	(hl), #0x00
   16BA 21r8Fr06           2423 	ld	hl, #(_maps + 0x0397)
   16BD 36 04              2424 	ld	(hl), #0x04
   16BF 21r90r06           2425 	ld	hl, #(_maps + 0x0398)
   16C2 36 04              2426 	ld	(hl), #0x04
   16C4 21r91r06           2427 	ld	hl, #(_maps + 0x0399)
   16C7 36 00              2428 	ld	(hl), #0x00
   16C9 21r92r06           2429 	ld	hl, #(_maps + 0x039a)
   16CC 36 00              2430 	ld	(hl), #0x00
   16CE 21r93r06           2431 	ld	hl, #(_maps + 0x039b)
   16D1 36 00              2432 	ld	(hl), #0x00
   16D3 21r94r06           2433 	ld	hl, #(_maps + 0x039c)
   16D6 36 00              2434 	ld	(hl), #0x00
   16D8 21r95r06           2435 	ld	hl, #(_maps + 0x039d)
   16DB 36 00              2436 	ld	(hl), #0x00
   16DD 21r96r06           2437 	ld	hl, #(_maps + 0x039e)
   16E0 36 00              2438 	ld	(hl), #0x00
   16E2 21r97r06           2439 	ld	hl, #(_maps + 0x039f)
   16E5 36 00              2440 	ld	(hl), #0x00
   16E7 21r98r06           2441 	ld	hl, #(_maps + 0x03a0)
   16EA 36 00              2442 	ld	(hl), #0x00
   16EC 21r99r06           2443 	ld	hl, #(_maps + 0x03a1)
   16EF 36 00              2444 	ld	(hl), #0x00
   16F1 21r9Ar06           2445 	ld	hl, #(_maps + 0x03a2)
   16F4 36 00              2446 	ld	(hl), #0x00
   16F6 21r9Br06           2447 	ld	hl, #(_maps + 0x03a3)
   16F9 36 00              2448 	ld	(hl), #0x00
   16FB 21r9Cr06           2449 	ld	hl, #(_maps + 0x03a4)
   16FE 36 00              2450 	ld	(hl), #0x00
   1700 21r9Dr06           2451 	ld	hl, #(_maps + 0x03a5)
   1703 36 00              2452 	ld	(hl), #0x00
   1705 21r9Er06           2453 	ld	hl, #(_maps + 0x03a6)
   1708 36 00              2454 	ld	(hl), #0x00
   170A 21r9Fr06           2455 	ld	hl, #(_maps + 0x03a7)
   170D 36 00              2456 	ld	(hl), #0x00
   170F 21rA0r06           2457 	ld	hl, #(_maps + 0x03a8)
   1712 36 00              2458 	ld	(hl), #0x00
   1714 21rA1r06           2459 	ld	hl, #(_maps + 0x03a9)
   1717 36 00              2460 	ld	(hl), #0x00
   1719 21rA2r06           2461 	ld	hl, #(_maps + 0x03aa)
   171C 36 00              2462 	ld	(hl), #0x00
   171E 21rA3r06           2463 	ld	hl, #(_maps + 0x03ab)
   1721 36 04              2464 	ld	(hl), #0x04
   1723 21rA4r06           2465 	ld	hl, #(_maps + 0x03ac)
   1726 36 04              2466 	ld	(hl), #0x04
   1728 21rA5r06           2467 	ld	hl, #(_maps + 0x03ad)
   172B 36 00              2468 	ld	(hl), #0x00
   172D 21rA6r06           2469 	ld	hl, #(_maps + 0x03ae)
   1730 36 00              2470 	ld	(hl), #0x00
   1732 21rA7r06           2471 	ld	hl, #(_maps + 0x03af)
   1735 36 00              2472 	ld	(hl), #0x00
   1737 21rA8r06           2473 	ld	hl, #(_maps + 0x03b0)
   173A 36 00              2474 	ld	(hl), #0x00
   173C 21rA9r06           2475 	ld	hl, #(_maps + 0x03b1)
   173F 36 00              2476 	ld	(hl), #0x00
   1741 21rAAr06           2477 	ld	hl, #(_maps + 0x03b2)
   1744 36 00              2478 	ld	(hl), #0x00
   1746 21rABr06           2479 	ld	hl, #(_maps + 0x03b3)
   1749 36 00              2480 	ld	(hl), #0x00
   174B 21rACr06           2481 	ld	hl, #(_maps + 0x03b4)
   174E 36 00              2482 	ld	(hl), #0x00
   1750 21rADr06           2483 	ld	hl, #(_maps + 0x03b5)
   1753 36 00              2484 	ld	(hl), #0x00
   1755 21rAEr06           2485 	ld	hl, #(_maps + 0x03b6)
   1758 36 00              2486 	ld	(hl), #0x00
   175A 21rAFr06           2487 	ld	hl, #(_maps + 0x03b7)
   175D 36 00              2488 	ld	(hl), #0x00
   175F 21rB0r06           2489 	ld	hl, #(_maps + 0x03b8)
   1762 36 00              2490 	ld	(hl), #0x00
   1764 21rB1r06           2491 	ld	hl, #(_maps + 0x03b9)
   1767 36 00              2492 	ld	(hl), #0x00
   1769 21rB2r06           2493 	ld	hl, #(_maps + 0x03ba)
   176C 36 00              2494 	ld	(hl), #0x00
   176E 21rB3r06           2495 	ld	hl, #(_maps + 0x03bb)
   1771 36 00              2496 	ld	(hl), #0x00
   1773 21rB4r06           2497 	ld	hl, #(_maps + 0x03bc)
   1776 36 00              2498 	ld	(hl), #0x00
   1778 21rB5r06           2499 	ld	hl, #(_maps + 0x03bd)
   177B 36 00              2500 	ld	(hl), #0x00
   177D 21rB6r06           2501 	ld	hl, #(_maps + 0x03be)
   1780 36 00              2502 	ld	(hl), #0x00
   1782 21rB7r06           2503 	ld	hl, #(_maps + 0x03bf)
   1785 36 04              2504 	ld	(hl), #0x04
   1787 21rB8r06           2505 	ld	hl, #(_maps + 0x03c0)
   178A 36 04              2506 	ld	(hl), #0x04
   178C 21rB9r06           2507 	ld	hl, #(_maps + 0x03c1)
   178F 36 00              2508 	ld	(hl), #0x00
   1791 21rBAr06           2509 	ld	hl, #(_maps + 0x03c2)
   1794 36 00              2510 	ld	(hl), #0x00
   1796 21rBBr06           2511 	ld	hl, #(_maps + 0x03c3)
   1799 36 00              2512 	ld	(hl), #0x00
   179B 21rBCr06           2513 	ld	hl, #(_maps + 0x03c4)
   179E 36 00              2514 	ld	(hl), #0x00
   17A0 21rBDr06           2515 	ld	hl, #(_maps + 0x03c5)
   17A3 36 00              2516 	ld	(hl), #0x00
   17A5 21rBEr06           2517 	ld	hl, #(_maps + 0x03c6)
   17A8 36 00              2518 	ld	(hl), #0x00
   17AA 21rBFr06           2519 	ld	hl, #(_maps + 0x03c7)
   17AD 36 00              2520 	ld	(hl), #0x00
   17AF 21rC0r06           2521 	ld	hl, #(_maps + 0x03c8)
   17B2 36 00              2522 	ld	(hl), #0x00
   17B4 21rC1r06           2523 	ld	hl, #(_maps + 0x03c9)
   17B7 36 00              2524 	ld	(hl), #0x00
   17B9 21rC2r06           2525 	ld	hl, #(_maps + 0x03ca)
   17BC 36 00              2526 	ld	(hl), #0x00
   17BE 21rC3r06           2527 	ld	hl, #(_maps + 0x03cb)
   17C1 36 00              2528 	ld	(hl), #0x00
   17C3 21rC4r06           2529 	ld	hl, #(_maps + 0x03cc)
   17C6 36 00              2530 	ld	(hl), #0x00
   17C8 21rC5r06           2531 	ld	hl, #(_maps + 0x03cd)
   17CB 36 00              2532 	ld	(hl), #0x00
   17CD 21rC6r06           2533 	ld	hl, #(_maps + 0x03ce)
   17D0 36 00              2534 	ld	(hl), #0x00
   17D2 21rC7r06           2535 	ld	hl, #(_maps + 0x03cf)
   17D5 36 00              2536 	ld	(hl), #0x00
   17D7 21rC8r06           2537 	ld	hl, #(_maps + 0x03d0)
   17DA 36 00              2538 	ld	(hl), #0x00
   17DC 21rC9r06           2539 	ld	hl, #(_maps + 0x03d1)
   17DF 36 00              2540 	ld	(hl), #0x00
   17E1 21rCAr06           2541 	ld	hl, #(_maps + 0x03d2)
   17E4 36 01              2542 	ld	(hl), #0x01
   17E6 21rCBr06           2543 	ld	hl, #(_maps + 0x03d3)
   17E9 36 04              2544 	ld	(hl), #0x04
   17EB 21rCCr06           2545 	ld	hl, #(_maps + 0x03d4)
   17EE 36 04              2546 	ld	(hl), #0x04
   17F0 21rCDr06           2547 	ld	hl, #(_maps + 0x03d5)
   17F3 36 00              2548 	ld	(hl), #0x00
   17F5 21rCEr06           2549 	ld	hl, #(_maps + 0x03d6)
   17F8 36 00              2550 	ld	(hl), #0x00
   17FA 21rCFr06           2551 	ld	hl, #(_maps + 0x03d7)
   17FD 36 00              2552 	ld	(hl), #0x00
   17FF 21rD0r06           2553 	ld	hl, #(_maps + 0x03d8)
   1802 36 00              2554 	ld	(hl), #0x00
   1804 21rD1r06           2555 	ld	hl, #(_maps + 0x03d9)
   1807 36 00              2556 	ld	(hl), #0x00
   1809 21rD2r06           2557 	ld	hl, #(_maps + 0x03da)
   180C 36 00              2558 	ld	(hl), #0x00
   180E 21rD3r06           2559 	ld	hl, #(_maps + 0x03db)
   1811 36 00              2560 	ld	(hl), #0x00
   1813 21rD4r06           2561 	ld	hl, #(_maps + 0x03dc)
   1816 36 00              2562 	ld	(hl), #0x00
   1818 21rD5r06           2563 	ld	hl, #(_maps + 0x03dd)
   181B 36 00              2564 	ld	(hl), #0x00
   181D 21rD6r06           2565 	ld	hl, #(_maps + 0x03de)
   1820 36 00              2566 	ld	(hl), #0x00
   1822 21rD7r06           2567 	ld	hl, #(_maps + 0x03df)
   1825 36 00              2568 	ld	(hl), #0x00
   1827 21rD8r06           2569 	ld	hl, #(_maps + 0x03e0)
   182A 36 03              2570 	ld	(hl), #0x03
   182C 21rD9r06           2571 	ld	hl, #(_maps + 0x03e1)
   182F 36 03              2572 	ld	(hl), #0x03
   1831 21rDAr06           2573 	ld	hl, #(_maps + 0x03e2)
   1834 36 03              2574 	ld	(hl), #0x03
   1836 21rDBr06           2575 	ld	hl, #(_maps + 0x03e3)
   1839 36 03              2576 	ld	(hl), #0x03
   183B 21rDCr06           2577 	ld	hl, #(_maps + 0x03e4)
   183E 36 03              2578 	ld	(hl), #0x03
   1840 21rDDr06           2579 	ld	hl, #(_maps + 0x03e5)
   1843 36 03              2580 	ld	(hl), #0x03
   1845 21rDEr06           2581 	ld	hl, #(_maps + 0x03e6)
   1848 36 03              2582 	ld	(hl), #0x03
   184A 21rDFr06           2583 	ld	hl, #(_maps + 0x03e7)
   184D 36 04              2584 	ld	(hl), #0x04
   184F 21rE0r06           2585 	ld	hl, #(_maps + 0x03e8)
   1852 36 04              2586 	ld	(hl), #0x04
   1854 21rE1r06           2587 	ld	hl, #(_maps + 0x03e9)
   1857 36 00              2588 	ld	(hl), #0x00
   1859 21rE2r06           2589 	ld	hl, #(_maps + 0x03ea)
   185C 36 00              2590 	ld	(hl), #0x00
   185E 21rE3r06           2591 	ld	hl, #(_maps + 0x03eb)
   1861 36 00              2592 	ld	(hl), #0x00
   1863 21rE4r06           2593 	ld	hl, #(_maps + 0x03ec)
   1866 36 00              2594 	ld	(hl), #0x00
   1868 21rE5r06           2595 	ld	hl, #(_maps + 0x03ed)
   186B 36 00              2596 	ld	(hl), #0x00
   186D 21rE6r06           2597 	ld	hl, #(_maps + 0x03ee)
   1870 36 00              2598 	ld	(hl), #0x00
   1872 21rE7r06           2599 	ld	hl, #(_maps + 0x03ef)
   1875 36 00              2600 	ld	(hl), #0x00
   1877 21rE8r06           2601 	ld	hl, #(_maps + 0x03f0)
   187A 36 00              2602 	ld	(hl), #0x00
   187C 21rE9r06           2603 	ld	hl, #(_maps + 0x03f1)
   187F 36 00              2604 	ld	(hl), #0x00
   1881 21rEAr06           2605 	ld	hl, #(_maps + 0x03f2)
   1884 36 00              2606 	ld	(hl), #0x00
   1886 21rEBr06           2607 	ld	hl, #(_maps + 0x03f3)
   1889 36 00              2608 	ld	(hl), #0x00
   188B 21rECr06           2609 	ld	hl, #(_maps + 0x03f4)
   188E 36 00              2610 	ld	(hl), #0x00
   1890 21rEDr06           2611 	ld	hl, #(_maps + 0x03f5)
   1893 36 00              2612 	ld	(hl), #0x00
   1895 21rEEr06           2613 	ld	hl, #(_maps + 0x03f6)
   1898 36 00              2614 	ld	(hl), #0x00
   189A 21rEFr06           2615 	ld	hl, #(_maps + 0x03f7)
   189D 36 00              2616 	ld	(hl), #0x00
   189F 21rF0r06           2617 	ld	hl, #(_maps + 0x03f8)
   18A2 36 00              2618 	ld	(hl), #0x00
   18A4 21rF1r06           2619 	ld	hl, #(_maps + 0x03f9)
   18A7 36 00              2620 	ld	(hl), #0x00
   18A9 21rF2r06           2621 	ld	hl, #(_maps + 0x03fa)
   18AC 36 00              2622 	ld	(hl), #0x00
   18AE 21rF3r06           2623 	ld	hl, #(_maps + 0x03fb)
   18B1 36 04              2624 	ld	(hl), #0x04
   18B3 21rF4r06           2625 	ld	hl, #(_maps + 0x03fc)
   18B6 36 04              2626 	ld	(hl), #0x04
   18B8 21rF5r06           2627 	ld	hl, #(_maps + 0x03fd)
   18BB 36 00              2628 	ld	(hl), #0x00
   18BD 21rF6r06           2629 	ld	hl, #(_maps + 0x03fe)
   18C0 36 00              2630 	ld	(hl), #0x00
   18C2 21rF7r06           2631 	ld	hl, #(_maps + 0x03ff)
   18C5 36 00              2632 	ld	(hl), #0x00
   18C7 21rF8r06           2633 	ld	hl, #(_maps + 0x0400)
   18CA 36 00              2634 	ld	(hl), #0x00
   18CC 21rF9r06           2635 	ld	hl, #(_maps + 0x0401)
   18CF 36 00              2636 	ld	(hl), #0x00
   18D1 21rFAr06           2637 	ld	hl, #(_maps + 0x0402)
   18D4 36 00              2638 	ld	(hl), #0x00
   18D6 21rFBr06           2639 	ld	hl, #(_maps + 0x0403)
   18D9 36 00              2640 	ld	(hl), #0x00
   18DB 21rFCr06           2641 	ld	hl, #(_maps + 0x0404)
   18DE 36 00              2642 	ld	(hl), #0x00
   18E0 21rFDr06           2643 	ld	hl, #(_maps + 0x0405)
   18E3 36 00              2644 	ld	(hl), #0x00
   18E5 21rFEr06           2645 	ld	hl, #(_maps + 0x0406)
   18E8 36 00              2646 	ld	(hl), #0x00
   18EA 21rFFr06           2647 	ld	hl, #(_maps + 0x0407)
   18ED 36 00              2648 	ld	(hl), #0x00
   18EF 21r00r07           2649 	ld	hl, #(_maps + 0x0408)
   18F2 36 00              2650 	ld	(hl), #0x00
   18F4 21r01r07           2651 	ld	hl, #(_maps + 0x0409)
   18F7 36 00              2652 	ld	(hl), #0x00
   18F9 21r02r07           2653 	ld	hl, #(_maps + 0x040a)
   18FC 36 00              2654 	ld	(hl), #0x00
   18FE 21r03r07           2655 	ld	hl, #(_maps + 0x040b)
   1901 36 00              2656 	ld	(hl), #0x00
   1903 21r04r07           2657 	ld	hl, #(_maps + 0x040c)
   1906 36 00              2658 	ld	(hl), #0x00
   1908 21r05r07           2659 	ld	hl, #(_maps + 0x040d)
   190B 36 00              2660 	ld	(hl), #0x00
   190D 21r06r07           2661 	ld	hl, #(_maps + 0x040e)
   1910 36 00              2662 	ld	(hl), #0x00
   1912 21r07r07           2663 	ld	hl, #(_maps + 0x040f)
   1915 36 04              2664 	ld	(hl), #0x04
   1917 21r08r07           2665 	ld	hl, #(_maps + 0x0410)
   191A 36 04              2666 	ld	(hl), #0x04
   191C 21r09r07           2667 	ld	hl, #(_maps + 0x0411)
   191F 36 02              2668 	ld	(hl), #0x02
   1921 21r0Ar07           2669 	ld	hl, #(_maps + 0x0412)
   1924 36 00              2670 	ld	(hl), #0x00
   1926 21r0Br07           2671 	ld	hl, #(_maps + 0x0413)
   1929 36 00              2672 	ld	(hl), #0x00
   192B 21r0Cr07           2673 	ld	hl, #(_maps + 0x0414)
   192E 36 00              2674 	ld	(hl), #0x00
   1930 21r0Dr07           2675 	ld	hl, #(_maps + 0x0415)
   1933 36 03              2676 	ld	(hl), #0x03
   1935 21r0Er07           2677 	ld	hl, #(_maps + 0x0416)
   1938 36 03              2678 	ld	(hl), #0x03
   193A 21r0Fr07           2679 	ld	hl, #(_maps + 0x0417)
   193D 36 03              2680 	ld	(hl), #0x03
   193F 21r10r07           2681 	ld	hl, #(_maps + 0x0418)
   1942 36 03              2682 	ld	(hl), #0x03
   1944 21r11r07           2683 	ld	hl, #(_maps + 0x0419)
   1947 36 03              2684 	ld	(hl), #0x03
   1949 21r12r07           2685 	ld	hl, #(_maps + 0x041a)
   194C 36 00              2686 	ld	(hl), #0x00
   194E 21r13r07           2687 	ld	hl, #(_maps + 0x041b)
   1951 36 00              2688 	ld	(hl), #0x00
   1953 21r14r07           2689 	ld	hl, #(_maps + 0x041c)
   1956 36 00              2690 	ld	(hl), #0x00
   1958 21r15r07           2691 	ld	hl, #(_maps + 0x041d)
   195B 36 00              2692 	ld	(hl), #0x00
   195D 21r16r07           2693 	ld	hl, #(_maps + 0x041e)
   1960 36 00              2694 	ld	(hl), #0x00
   1962 21r17r07           2695 	ld	hl, #(_maps + 0x041f)
   1965 36 00              2696 	ld	(hl), #0x00
   1967 21r18r07           2697 	ld	hl, #(_maps + 0x0420)
   196A 36 00              2698 	ld	(hl), #0x00
   196C 21r19r07           2699 	ld	hl, #(_maps + 0x0421)
   196F 36 00              2700 	ld	(hl), #0x00
   1971 21r1Ar07           2701 	ld	hl, #(_maps + 0x0422)
   1974 36 00              2702 	ld	(hl), #0x00
   1976 21r1Br07           2703 	ld	hl, #(_maps + 0x0423)
   1979 36 04              2704 	ld	(hl), #0x04
   197B 21r1Cr07           2705 	ld	hl, #(_maps + 0x0424)
   197E 36 04              2706 	ld	(hl), #0x04
   1980 21r1Dr07           2707 	ld	hl, #(_maps + 0x0425)
   1983 36 04              2708 	ld	(hl), #0x04
   1985 21r1Er07           2709 	ld	hl, #(_maps + 0x0426)
   1988 36 04              2710 	ld	(hl), #0x04
   198A 21r1Fr07           2711 	ld	hl, #(_maps + 0x0427)
   198D 36 04              2712 	ld	(hl), #0x04
   198F 21r20r07           2713 	ld	hl, #(_maps + 0x0428)
   1992 36 04              2714 	ld	(hl), #0x04
   1994 21r21r07           2715 	ld	hl, #(_maps + 0x0429)
   1997 36 04              2716 	ld	(hl), #0x04
   1999 21r22r07           2717 	ld	hl, #(_maps + 0x042a)
   199C 36 04              2718 	ld	(hl), #0x04
   199E 21r23r07           2719 	ld	hl, #(_maps + 0x042b)
   19A1 36 04              2720 	ld	(hl), #0x04
   19A3 21r24r07           2721 	ld	hl, #(_maps + 0x042c)
   19A6 36 04              2722 	ld	(hl), #0x04
   19A8 21r25r07           2723 	ld	hl, #(_maps + 0x042d)
   19AB 36 04              2724 	ld	(hl), #0x04
   19AD 21r26r07           2725 	ld	hl, #(_maps + 0x042e)
   19B0 36 04              2726 	ld	(hl), #0x04
   19B2 21r27r07           2727 	ld	hl, #(_maps + 0x042f)
   19B5 36 04              2728 	ld	(hl), #0x04
   19B7 21r28r07           2729 	ld	hl, #(_maps + 0x0430)
   19BA 36 04              2730 	ld	(hl), #0x04
   19BC 21r29r07           2731 	ld	hl, #(_maps + 0x0431)
   19BF 36 04              2732 	ld	(hl), #0x04
   19C1 21r2Ar07           2733 	ld	hl, #(_maps + 0x0432)
   19C4 36 04              2734 	ld	(hl), #0x04
   19C6 21r2Br07           2735 	ld	hl, #(_maps + 0x0433)
   19C9 36 04              2736 	ld	(hl), #0x04
   19CB 21r2Cr07           2737 	ld	hl, #(_maps + 0x0434)
   19CE 36 04              2738 	ld	(hl), #0x04
   19D0 21r2Dr07           2739 	ld	hl, #(_maps + 0x0435)
   19D3 36 04              2740 	ld	(hl), #0x04
   19D5 21r2Er07           2741 	ld	hl, #(_maps + 0x0436)
   19D8 36 04              2742 	ld	(hl), #0x04
   19DA 21r2Fr07           2743 	ld	hl, #(_maps + 0x0437)
   19DD 36 04              2744 	ld	(hl), #0x04
   19DF 21r30r07           2745 	ld	hl, #(_maps + 0x0438)
   19E2 36 04              2746 	ld	(hl), #0x04
   19E4 21r31r07           2747 	ld	hl, #(_maps + 0x0439)
   19E7 36 04              2748 	ld	(hl), #0x04
   19E9 21r32r07           2749 	ld	hl, #(_maps + 0x043a)
   19EC 36 04              2750 	ld	(hl), #0x04
   19EE 21r33r07           2751 	ld	hl, #(_maps + 0x043b)
   19F1 36 04              2752 	ld	(hl), #0x04
   19F3 21r34r07           2753 	ld	hl, #(_maps + 0x043c)
   19F6 36 04              2754 	ld	(hl), #0x04
   19F8 21r35r07           2755 	ld	hl, #(_maps + 0x043d)
   19FB 36 04              2756 	ld	(hl), #0x04
   19FD 21r36r07           2757 	ld	hl, #(_maps + 0x043e)
   1A00 36 04              2758 	ld	(hl), #0x04
   1A02 21r37r07           2759 	ld	hl, #(_maps + 0x043f)
   1A05 36 04              2760 	ld	(hl), #0x04
   1A07 21r38r07           2761 	ld	hl, #(_maps + 0x0440)
   1A0A 36 04              2762 	ld	(hl), #0x04
   1A0C 21r39r07           2763 	ld	hl, #(_maps + 0x0441)
   1A0F 36 04              2764 	ld	(hl), #0x04
   1A11 21r3Ar07           2765 	ld	hl, #(_maps + 0x0442)
   1A14 36 04              2766 	ld	(hl), #0x04
   1A16 21r3Br07           2767 	ld	hl, #(_maps + 0x0443)
   1A19 36 04              2768 	ld	(hl), #0x04
   1A1B 21r3Cr07           2769 	ld	hl, #(_maps + 0x0444)
   1A1E 36 04              2770 	ld	(hl), #0x04
   1A20 21r3Dr07           2771 	ld	hl, #(_maps + 0x0445)
   1A23 36 04              2772 	ld	(hl), #0x04
   1A25 21r3Er07           2773 	ld	hl, #(_maps + 0x0446)
   1A28 36 04              2774 	ld	(hl), #0x04
   1A2A 21r3Fr07           2775 	ld	hl, #(_maps + 0x0447)
   1A2D 36 04              2776 	ld	(hl), #0x04
   1A2F 21r40r07           2777 	ld	hl, #(_maps + 0x0448)
   1A32 36 04              2778 	ld	(hl), #0x04
   1A34 21r41r07           2779 	ld	hl, #(_maps + 0x0449)
   1A37 36 04              2780 	ld	(hl), #0x04
   1A39 21r42r07           2781 	ld	hl, #(_maps + 0x044a)
   1A3C 36 04              2782 	ld	(hl), #0x04
   1A3E 21r43r07           2783 	ld	hl, #(_maps + 0x044b)
   1A41 36 04              2784 	ld	(hl), #0x04
   1A43 21r44r07           2785 	ld	hl, #(_maps + 0x044c)
   1A46 36 04              2786 	ld	(hl), #0x04
   1A48 21r45r07           2787 	ld	hl, #(_maps + 0x044d)
   1A4B 36 00              2788 	ld	(hl), #0x00
   1A4D 21r46r07           2789 	ld	hl, #(_maps + 0x044e)
   1A50 36 00              2790 	ld	(hl), #0x00
   1A52 21r47r07           2791 	ld	hl, #(_maps + 0x044f)
   1A55 36 00              2792 	ld	(hl), #0x00
   1A57 21r48r07           2793 	ld	hl, #(_maps + 0x0450)
   1A5A 36 00              2794 	ld	(hl), #0x00
   1A5C 21r49r07           2795 	ld	hl, #(_maps + 0x0451)
   1A5F 36 00              2796 	ld	(hl), #0x00
   1A61 21r4Ar07           2797 	ld	hl, #(_maps + 0x0452)
   1A64 36 00              2798 	ld	(hl), #0x00
   1A66 21r4Br07           2799 	ld	hl, #(_maps + 0x0453)
   1A69 36 00              2800 	ld	(hl), #0x00
   1A6B 21r4Cr07           2801 	ld	hl, #(_maps + 0x0454)
   1A6E 36 00              2802 	ld	(hl), #0x00
   1A70 21r4Dr07           2803 	ld	hl, #(_maps + 0x0455)
   1A73 36 00              2804 	ld	(hl), #0x00
   1A75 21r4Er07           2805 	ld	hl, #(_maps + 0x0456)
   1A78 36 00              2806 	ld	(hl), #0x00
   1A7A 21r4Fr07           2807 	ld	hl, #(_maps + 0x0457)
   1A7D 36 00              2808 	ld	(hl), #0x00
   1A7F 21r50r07           2809 	ld	hl, #(_maps + 0x0458)
   1A82 36 00              2810 	ld	(hl), #0x00
   1A84 21r51r07           2811 	ld	hl, #(_maps + 0x0459)
   1A87 36 00              2812 	ld	(hl), #0x00
   1A89 21r52r07           2813 	ld	hl, #(_maps + 0x045a)
   1A8C 36 00              2814 	ld	(hl), #0x00
   1A8E 21r53r07           2815 	ld	hl, #(_maps + 0x045b)
   1A91 36 00              2816 	ld	(hl), #0x00
   1A93 21r54r07           2817 	ld	hl, #(_maps + 0x045c)
   1A96 36 00              2818 	ld	(hl), #0x00
   1A98 21r55r07           2819 	ld	hl, #(_maps + 0x045d)
   1A9B 36 00              2820 	ld	(hl), #0x00
   1A9D 21r56r07           2821 	ld	hl, #(_maps + 0x045e)
   1AA0 36 00              2822 	ld	(hl), #0x00
   1AA2 21r57r07           2823 	ld	hl, #(_maps + 0x045f)
   1AA5 36 04              2824 	ld	(hl), #0x04
   1AA7 21r58r07           2825 	ld	hl, #(_maps + 0x0460)
   1AAA 36 04              2826 	ld	(hl), #0x04
   1AAC 21r59r07           2827 	ld	hl, #(_maps + 0x0461)
   1AAF 36 00              2828 	ld	(hl), #0x00
   1AB1 21r5Ar07           2829 	ld	hl, #(_maps + 0x0462)
   1AB4 36 00              2830 	ld	(hl), #0x00
   1AB6 21r5Br07           2831 	ld	hl, #(_maps + 0x0463)
   1AB9 36 00              2832 	ld	(hl), #0x00
   1ABB 21r5Cr07           2833 	ld	hl, #(_maps + 0x0464)
   1ABE 36 00              2834 	ld	(hl), #0x00
   1AC0 21r5Dr07           2835 	ld	hl, #(_maps + 0x0465)
   1AC3 36 00              2836 	ld	(hl), #0x00
   1AC5 21r5Er07           2837 	ld	hl, #(_maps + 0x0466)
   1AC8 36 00              2838 	ld	(hl), #0x00
   1ACA 21r5Fr07           2839 	ld	hl, #(_maps + 0x0467)
   1ACD 36 00              2840 	ld	(hl), #0x00
   1ACF 21r60r07           2841 	ld	hl, #(_maps + 0x0468)
   1AD2 36 00              2842 	ld	(hl), #0x00
   1AD4 21r61r07           2843 	ld	hl, #(_maps + 0x0469)
   1AD7 36 00              2844 	ld	(hl), #0x00
   1AD9 21r62r07           2845 	ld	hl, #(_maps + 0x046a)
   1ADC 36 00              2846 	ld	(hl), #0x00
   1ADE 21r63r07           2847 	ld	hl, #(_maps + 0x046b)
   1AE1 36 00              2848 	ld	(hl), #0x00
   1AE3 21r64r07           2849 	ld	hl, #(_maps + 0x046c)
   1AE6 36 00              2850 	ld	(hl), #0x00
   1AE8 21r65r07           2851 	ld	hl, #(_maps + 0x046d)
   1AEB 36 00              2852 	ld	(hl), #0x00
   1AED 21r66r07           2853 	ld	hl, #(_maps + 0x046e)
   1AF0 36 00              2854 	ld	(hl), #0x00
   1AF2 21r67r07           2855 	ld	hl, #(_maps + 0x046f)
   1AF5 36 00              2856 	ld	(hl), #0x00
   1AF7 21r68r07           2857 	ld	hl, #(_maps + 0x0470)
   1AFA 36 00              2858 	ld	(hl), #0x00
   1AFC 21r69r07           2859 	ld	hl, #(_maps + 0x0471)
   1AFF 36 00              2860 	ld	(hl), #0x00
   1B01 21r6Ar07           2861 	ld	hl, #(_maps + 0x0472)
   1B04 36 00              2862 	ld	(hl), #0x00
   1B06 21r6Br07           2863 	ld	hl, #(_maps + 0x0473)
   1B09 36 04              2864 	ld	(hl), #0x04
   1B0B 21r6Cr07           2865 	ld	hl, #(_maps + 0x0474)
   1B0E 36 04              2866 	ld	(hl), #0x04
   1B10 21r6Dr07           2867 	ld	hl, #(_maps + 0x0475)
   1B13 36 00              2868 	ld	(hl), #0x00
   1B15 21r6Er07           2869 	ld	hl, #(_maps + 0x0476)
   1B18 36 00              2870 	ld	(hl), #0x00
   1B1A 21r6Fr07           2871 	ld	hl, #(_maps + 0x0477)
   1B1D 36 00              2872 	ld	(hl), #0x00
   1B1F 21r70r07           2873 	ld	hl, #(_maps + 0x0478)
   1B22 36 00              2874 	ld	(hl), #0x00
   1B24 21r71r07           2875 	ld	hl, #(_maps + 0x0479)
   1B27 36 00              2876 	ld	(hl), #0x00
   1B29 21r72r07           2877 	ld	hl, #(_maps + 0x047a)
   1B2C 36 00              2878 	ld	(hl), #0x00
   1B2E 21r73r07           2879 	ld	hl, #(_maps + 0x047b)
   1B31 36 00              2880 	ld	(hl), #0x00
   1B33 21r74r07           2881 	ld	hl, #(_maps + 0x047c)
   1B36 36 00              2882 	ld	(hl), #0x00
   1B38 21r75r07           2883 	ld	hl, #(_maps + 0x047d)
   1B3B 36 00              2884 	ld	(hl), #0x00
   1B3D 21r76r07           2885 	ld	hl, #(_maps + 0x047e)
   1B40 36 00              2886 	ld	(hl), #0x00
   1B42 21r77r07           2887 	ld	hl, #(_maps + 0x047f)
   1B45 36 00              2888 	ld	(hl), #0x00
   1B47 21r78r07           2889 	ld	hl, #(_maps + 0x0480)
   1B4A 36 00              2890 	ld	(hl), #0x00
   1B4C 21r79r07           2891 	ld	hl, #(_maps + 0x0481)
   1B4F 36 00              2892 	ld	(hl), #0x00
   1B51 21r7Ar07           2893 	ld	hl, #(_maps + 0x0482)
   1B54 36 00              2894 	ld	(hl), #0x00
   1B56 21r7Br07           2895 	ld	hl, #(_maps + 0x0483)
   1B59 36 00              2896 	ld	(hl), #0x00
   1B5B 21r7Cr07           2897 	ld	hl, #(_maps + 0x0484)
   1B5E 36 00              2898 	ld	(hl), #0x00
   1B60 21r7Dr07           2899 	ld	hl, #(_maps + 0x0485)
   1B63 36 00              2900 	ld	(hl), #0x00
   1B65 21r7Er07           2901 	ld	hl, #(_maps + 0x0486)
   1B68 36 00              2902 	ld	(hl), #0x00
   1B6A 21r7Fr07           2903 	ld	hl, #(_maps + 0x0487)
   1B6D 36 04              2904 	ld	(hl), #0x04
   1B6F 21r80r07           2905 	ld	hl, #(_maps + 0x0488)
   1B72 36 04              2906 	ld	(hl), #0x04
   1B74 21r81r07           2907 	ld	hl, #(_maps + 0x0489)
   1B77 36 00              2908 	ld	(hl), #0x00
   1B79 21r82r07           2909 	ld	hl, #(_maps + 0x048a)
   1B7C 36 00              2910 	ld	(hl), #0x00
   1B7E 21r83r07           2911 	ld	hl, #(_maps + 0x048b)
   1B81 36 00              2912 	ld	(hl), #0x00
   1B83 21r84r07           2913 	ld	hl, #(_maps + 0x048c)
   1B86 36 00              2914 	ld	(hl), #0x00
   1B88 21r85r07           2915 	ld	hl, #(_maps + 0x048d)
   1B8B 36 00              2916 	ld	(hl), #0x00
   1B8D 21r86r07           2917 	ld	hl, #(_maps + 0x048e)
   1B90 36 00              2918 	ld	(hl), #0x00
   1B92 21r87r07           2919 	ld	hl, #(_maps + 0x048f)
   1B95 36 00              2920 	ld	(hl), #0x00
   1B97 21r88r07           2921 	ld	hl, #(_maps + 0x0490)
   1B9A 36 00              2922 	ld	(hl), #0x00
   1B9C 21r89r07           2923 	ld	hl, #(_maps + 0x0491)
   1B9F 36 00              2924 	ld	(hl), #0x00
   1BA1 21r8Ar07           2925 	ld	hl, #(_maps + 0x0492)
   1BA4 36 00              2926 	ld	(hl), #0x00
   1BA6 21r8Br07           2927 	ld	hl, #(_maps + 0x0493)
   1BA9 36 00              2928 	ld	(hl), #0x00
   1BAB 21r8Cr07           2929 	ld	hl, #(_maps + 0x0494)
   1BAE 36 00              2930 	ld	(hl), #0x00
   1BB0 21r8Dr07           2931 	ld	hl, #(_maps + 0x0495)
   1BB3 36 00              2932 	ld	(hl), #0x00
   1BB5 21r8Er07           2933 	ld	hl, #(_maps + 0x0496)
   1BB8 36 00              2934 	ld	(hl), #0x00
   1BBA 21r8Fr07           2935 	ld	hl, #(_maps + 0x0497)
   1BBD 36 00              2936 	ld	(hl), #0x00
   1BBF 21r90r07           2937 	ld	hl, #(_maps + 0x0498)
   1BC2 36 00              2938 	ld	(hl), #0x00
   1BC4 21r91r07           2939 	ld	hl, #(_maps + 0x0499)
   1BC7 36 00              2940 	ld	(hl), #0x00
   1BC9 21r92r07           2941 	ld	hl, #(_maps + 0x049a)
   1BCC 36 00              2942 	ld	(hl), #0x00
   1BCE 21r93r07           2943 	ld	hl, #(_maps + 0x049b)
   1BD1 36 04              2944 	ld	(hl), #0x04
   1BD3 21r94r07           2945 	ld	hl, #(_maps + 0x049c)
   1BD6 36 04              2946 	ld	(hl), #0x04
   1BD8 21r95r07           2947 	ld	hl, #(_maps + 0x049d)
   1BDB 36 00              2948 	ld	(hl), #0x00
   1BDD 21r96r07           2949 	ld	hl, #(_maps + 0x049e)
   1BE0 36 00              2950 	ld	(hl), #0x00
   1BE2 21r97r07           2951 	ld	hl, #(_maps + 0x049f)
   1BE5 36 00              2952 	ld	(hl), #0x00
   1BE7 21r98r07           2953 	ld	hl, #(_maps + 0x04a0)
   1BEA 36 00              2954 	ld	(hl), #0x00
   1BEC 21r99r07           2955 	ld	hl, #(_maps + 0x04a1)
   1BEF 36 00              2956 	ld	(hl), #0x00
   1BF1 21r9Ar07           2957 	ld	hl, #(_maps + 0x04a2)
   1BF4 36 00              2958 	ld	(hl), #0x00
   1BF6 21r9Br07           2959 	ld	hl, #(_maps + 0x04a3)
   1BF9 36 00              2960 	ld	(hl), #0x00
   1BFB 21r9Cr07           2961 	ld	hl, #(_maps + 0x04a4)
   1BFE 36 00              2962 	ld	(hl), #0x00
   1C00 21r9Dr07           2963 	ld	hl, #(_maps + 0x04a5)
   1C03 36 00              2964 	ld	(hl), #0x00
   1C05 21r9Er07           2965 	ld	hl, #(_maps + 0x04a6)
   1C08 36 00              2966 	ld	(hl), #0x00
   1C0A 21r9Fr07           2967 	ld	hl, #(_maps + 0x04a7)
   1C0D 36 00              2968 	ld	(hl), #0x00
   1C0F 21rA0r07           2969 	ld	hl, #(_maps + 0x04a8)
   1C12 36 00              2970 	ld	(hl), #0x00
   1C14 21rA1r07           2971 	ld	hl, #(_maps + 0x04a9)
   1C17 36 00              2972 	ld	(hl), #0x00
   1C19 21rA2r07           2973 	ld	hl, #(_maps + 0x04aa)
   1C1C 36 00              2974 	ld	(hl), #0x00
   1C1E 21rA3r07           2975 	ld	hl, #(_maps + 0x04ab)
   1C21 36 00              2976 	ld	(hl), #0x00
   1C23 21rA4r07           2977 	ld	hl, #(_maps + 0x04ac)
   1C26 36 00              2978 	ld	(hl), #0x00
   1C28 21rA5r07           2979 	ld	hl, #(_maps + 0x04ad)
   1C2B 36 00              2980 	ld	(hl), #0x00
   1C2D 21rA6r07           2981 	ld	hl, #(_maps + 0x04ae)
   1C30 36 00              2982 	ld	(hl), #0x00
   1C32 21rA7r07           2983 	ld	hl, #(_maps + 0x04af)
   1C35 36 04              2984 	ld	(hl), #0x04
   1C37 21rA8r07           2985 	ld	hl, #(_maps + 0x04b0)
   1C3A 36 04              2986 	ld	(hl), #0x04
   1C3C 21rA9r07           2987 	ld	hl, #(_maps + 0x04b1)
   1C3F 36 00              2988 	ld	(hl), #0x00
   1C41 21rAAr07           2989 	ld	hl, #(_maps + 0x04b2)
   1C44 36 00              2990 	ld	(hl), #0x00
   1C46 21rABr07           2991 	ld	hl, #(_maps + 0x04b3)
   1C49 36 00              2992 	ld	(hl), #0x00
   1C4B 21rACr07           2993 	ld	hl, #(_maps + 0x04b4)
   1C4E 36 00              2994 	ld	(hl), #0x00
   1C50 21rADr07           2995 	ld	hl, #(_maps + 0x04b5)
   1C53 36 00              2996 	ld	(hl), #0x00
   1C55 21rAEr07           2997 	ld	hl, #(_maps + 0x04b6)
   1C58 36 00              2998 	ld	(hl), #0x00
   1C5A 21rAFr07           2999 	ld	hl, #(_maps + 0x04b7)
   1C5D 36 00              3000 	ld	(hl), #0x00
   1C5F 21rB0r07           3001 	ld	hl, #(_maps + 0x04b8)
   1C62 36 00              3002 	ld	(hl), #0x00
   1C64 21rB1r07           3003 	ld	hl, #(_maps + 0x04b9)
   1C67 36 00              3004 	ld	(hl), #0x00
   1C69 21rB2r07           3005 	ld	hl, #(_maps + 0x04ba)
   1C6C 36 00              3006 	ld	(hl), #0x00
   1C6E 21rB3r07           3007 	ld	hl, #(_maps + 0x04bb)
   1C71 36 00              3008 	ld	(hl), #0x00
   1C73 21rB4r07           3009 	ld	hl, #(_maps + 0x04bc)
   1C76 36 00              3010 	ld	(hl), #0x00
   1C78 21rB5r07           3011 	ld	hl, #(_maps + 0x04bd)
   1C7B 36 00              3012 	ld	(hl), #0x00
   1C7D 21rB6r07           3013 	ld	hl, #(_maps + 0x04be)
   1C80 36 00              3014 	ld	(hl), #0x00
   1C82 21rB7r07           3015 	ld	hl, #(_maps + 0x04bf)
   1C85 36 00              3016 	ld	(hl), #0x00
   1C87 21rB8r07           3017 	ld	hl, #(_maps + 0x04c0)
   1C8A 36 00              3018 	ld	(hl), #0x00
   1C8C 21rB9r07           3019 	ld	hl, #(_maps + 0x04c1)
   1C8F 36 00              3020 	ld	(hl), #0x00
   1C91 21rBAr07           3021 	ld	hl, #(_maps + 0x04c2)
   1C94 36 00              3022 	ld	(hl), #0x00
   1C96 21rBBr07           3023 	ld	hl, #(_maps + 0x04c3)
   1C99 36 04              3024 	ld	(hl), #0x04
   1C9B 21rBCr07           3025 	ld	hl, #(_maps + 0x04c4)
   1C9E 36 04              3026 	ld	(hl), #0x04
   1CA0 21rBDr07           3027 	ld	hl, #(_maps + 0x04c5)
   1CA3 36 00              3028 	ld	(hl), #0x00
   1CA5 21rBEr07           3029 	ld	hl, #(_maps + 0x04c6)
   1CA8 36 00              3030 	ld	(hl), #0x00
   1CAA 21rBFr07           3031 	ld	hl, #(_maps + 0x04c7)
   1CAD 36 00              3032 	ld	(hl), #0x00
   1CAF 21rC0r07           3033 	ld	hl, #(_maps + 0x04c8)
   1CB2 36 00              3034 	ld	(hl), #0x00
   1CB4 21rC1r07           3035 	ld	hl, #(_maps + 0x04c9)
   1CB7 36 00              3036 	ld	(hl), #0x00
   1CB9 21rC2r07           3037 	ld	hl, #(_maps + 0x04ca)
   1CBC 36 00              3038 	ld	(hl), #0x00
   1CBE 21rC3r07           3039 	ld	hl, #(_maps + 0x04cb)
   1CC1 36 00              3040 	ld	(hl), #0x00
   1CC3 21rC4r07           3041 	ld	hl, #(_maps + 0x04cc)
   1CC6 36 00              3042 	ld	(hl), #0x00
   1CC8 21rC5r07           3043 	ld	hl, #(_maps + 0x04cd)
   1CCB 36 00              3044 	ld	(hl), #0x00
   1CCD 21rC6r07           3045 	ld	hl, #(_maps + 0x04ce)
   1CD0 36 00              3046 	ld	(hl), #0x00
   1CD2 21rC7r07           3047 	ld	hl, #(_maps + 0x04cf)
   1CD5 36 00              3048 	ld	(hl), #0x00
   1CD7 21rC8r07           3049 	ld	hl, #(_maps + 0x04d0)
   1CDA 36 00              3050 	ld	(hl), #0x00
   1CDC 21rC9r07           3051 	ld	hl, #(_maps + 0x04d1)
   1CDF 36 00              3052 	ld	(hl), #0x00
   1CE1 21rCAr07           3053 	ld	hl, #(_maps + 0x04d2)
   1CE4 36 00              3054 	ld	(hl), #0x00
   1CE6 21rCBr07           3055 	ld	hl, #(_maps + 0x04d3)
   1CE9 36 00              3056 	ld	(hl), #0x00
   1CEB 21rCCr07           3057 	ld	hl, #(_maps + 0x04d4)
   1CEE 36 00              3058 	ld	(hl), #0x00
   1CF0 21rCDr07           3059 	ld	hl, #(_maps + 0x04d5)
   1CF3 36 00              3060 	ld	(hl), #0x00
   1CF5 21rCEr07           3061 	ld	hl, #(_maps + 0x04d6)
   1CF8 36 00              3062 	ld	(hl), #0x00
   1CFA 21rCFr07           3063 	ld	hl, #(_maps + 0x04d7)
   1CFD 36 04              3064 	ld	(hl), #0x04
   1CFF 21rD0r07           3065 	ld	hl, #(_maps + 0x04d8)
   1D02 36 04              3066 	ld	(hl), #0x04
   1D04 21rD1r07           3067 	ld	hl, #(_maps + 0x04d9)
   1D07 36 00              3068 	ld	(hl), #0x00
   1D09 21rD2r07           3069 	ld	hl, #(_maps + 0x04da)
   1D0C 36 00              3070 	ld	(hl), #0x00
   1D0E 21rD3r07           3071 	ld	hl, #(_maps + 0x04db)
   1D11 36 00              3072 	ld	(hl), #0x00
   1D13 21rD4r07           3073 	ld	hl, #(_maps + 0x04dc)
   1D16 36 00              3074 	ld	(hl), #0x00
   1D18 21rD5r07           3075 	ld	hl, #(_maps + 0x04dd)
   1D1B 36 00              3076 	ld	(hl), #0x00
   1D1D 21rD6r07           3077 	ld	hl, #(_maps + 0x04de)
   1D20 36 00              3078 	ld	(hl), #0x00
   1D22 21rD7r07           3079 	ld	hl, #(_maps + 0x04df)
   1D25 36 00              3080 	ld	(hl), #0x00
   1D27 21rD8r07           3081 	ld	hl, #(_maps + 0x04e0)
   1D2A 36 00              3082 	ld	(hl), #0x00
   1D2C 21rD9r07           3083 	ld	hl, #(_maps + 0x04e1)
   1D2F 36 00              3084 	ld	(hl), #0x00
   1D31 21rDAr07           3085 	ld	hl, #(_maps + 0x04e2)
   1D34 36 00              3086 	ld	(hl), #0x00
   1D36 21rDBr07           3087 	ld	hl, #(_maps + 0x04e3)
   1D39 36 00              3088 	ld	(hl), #0x00
   1D3B 21rDCr07           3089 	ld	hl, #(_maps + 0x04e4)
   1D3E 36 00              3090 	ld	(hl), #0x00
   1D40 21rDDr07           3091 	ld	hl, #(_maps + 0x04e5)
   1D43 36 00              3092 	ld	(hl), #0x00
   1D45 21rDEr07           3093 	ld	hl, #(_maps + 0x04e6)
   1D48 36 00              3094 	ld	(hl), #0x00
   1D4A 21rDFr07           3095 	ld	hl, #(_maps + 0x04e7)
   1D4D 36 00              3096 	ld	(hl), #0x00
   1D4F 21rE0r07           3097 	ld	hl, #(_maps + 0x04e8)
   1D52 36 00              3098 	ld	(hl), #0x00
   1D54 21rE1r07           3099 	ld	hl, #(_maps + 0x04e9)
   1D57 36 00              3100 	ld	(hl), #0x00
   1D59 21rE2r07           3101 	ld	hl, #(_maps + 0x04ea)
   1D5C 36 00              3102 	ld	(hl), #0x00
   1D5E 21rE3r07           3103 	ld	hl, #(_maps + 0x04eb)
   1D61 36 04              3104 	ld	(hl), #0x04
   1D63 21rE4r07           3105 	ld	hl, #(_maps + 0x04ec)
   1D66 36 04              3106 	ld	(hl), #0x04
   1D68 21rE5r07           3107 	ld	hl, #(_maps + 0x04ed)
   1D6B 36 00              3108 	ld	(hl), #0x00
   1D6D 21rE6r07           3109 	ld	hl, #(_maps + 0x04ee)
   1D70 36 00              3110 	ld	(hl), #0x00
   1D72 21rE7r07           3111 	ld	hl, #(_maps + 0x04ef)
   1D75 36 00              3112 	ld	(hl), #0x00
   1D77 21rE8r07           3113 	ld	hl, #(_maps + 0x04f0)
   1D7A 36 00              3114 	ld	(hl), #0x00
   1D7C 21rE9r07           3115 	ld	hl, #(_maps + 0x04f1)
   1D7F 36 00              3116 	ld	(hl), #0x00
   1D81 21rEAr07           3117 	ld	hl, #(_maps + 0x04f2)
   1D84 36 00              3118 	ld	(hl), #0x00
   1D86 21rEBr07           3119 	ld	hl, #(_maps + 0x04f3)
   1D89 36 00              3120 	ld	(hl), #0x00
   1D8B 21rECr07           3121 	ld	hl, #(_maps + 0x04f4)
   1D8E 36 00              3122 	ld	(hl), #0x00
   1D90 21rEDr07           3123 	ld	hl, #(_maps + 0x04f5)
   1D93 36 00              3124 	ld	(hl), #0x00
   1D95 21rEEr07           3125 	ld	hl, #(_maps + 0x04f6)
   1D98 36 00              3126 	ld	(hl), #0x00
   1D9A 21rEFr07           3127 	ld	hl, #(_maps + 0x04f7)
   1D9D 36 00              3128 	ld	(hl), #0x00
   1D9F 21rF0r07           3129 	ld	hl, #(_maps + 0x04f8)
   1DA2 36 00              3130 	ld	(hl), #0x00
   1DA4 21rF1r07           3131 	ld	hl, #(_maps + 0x04f9)
   1DA7 36 00              3132 	ld	(hl), #0x00
   1DA9 21rF2r07           3133 	ld	hl, #(_maps + 0x04fa)
   1DAC 36 00              3134 	ld	(hl), #0x00
   1DAE 21rF3r07           3135 	ld	hl, #(_maps + 0x04fb)
   1DB1 36 00              3136 	ld	(hl), #0x00
   1DB3 21rF4r07           3137 	ld	hl, #(_maps + 0x04fc)
   1DB6 36 00              3138 	ld	(hl), #0x00
   1DB8 21rF5r07           3139 	ld	hl, #(_maps + 0x04fd)
   1DBB 36 00              3140 	ld	(hl), #0x00
   1DBD 21rF6r07           3141 	ld	hl, #(_maps + 0x04fe)
   1DC0 36 00              3142 	ld	(hl), #0x00
   1DC2 21rF7r07           3143 	ld	hl, #(_maps + 0x04ff)
   1DC5 36 04              3144 	ld	(hl), #0x04
   1DC7 21rF8r07           3145 	ld	hl, #(_maps + 0x0500)
   1DCA 36 04              3146 	ld	(hl), #0x04
   1DCC 21rF9r07           3147 	ld	hl, #(_maps + 0x0501)
   1DCF 36 00              3148 	ld	(hl), #0x00
   1DD1 21rFAr07           3149 	ld	hl, #(_maps + 0x0502)
   1DD4 36 00              3150 	ld	(hl), #0x00
   1DD6 21rFBr07           3151 	ld	hl, #(_maps + 0x0503)
   1DD9 36 00              3152 	ld	(hl), #0x00
   1DDB 21rFCr07           3153 	ld	hl, #(_maps + 0x0504)
   1DDE 36 00              3154 	ld	(hl), #0x00
   1DE0 21rFDr07           3155 	ld	hl, #(_maps + 0x0505)
   1DE3 36 00              3156 	ld	(hl), #0x00
   1DE5 21rFEr07           3157 	ld	hl, #(_maps + 0x0506)
   1DE8 36 00              3158 	ld	(hl), #0x00
   1DEA 21rFFr07           3159 	ld	hl, #(_maps + 0x0507)
   1DED 36 00              3160 	ld	(hl), #0x00
   1DEF 21r00r08           3161 	ld	hl, #(_maps + 0x0508)
   1DF2 36 00              3162 	ld	(hl), #0x00
   1DF4 21r01r08           3163 	ld	hl, #(_maps + 0x0509)
   1DF7 36 00              3164 	ld	(hl), #0x00
   1DF9 21r02r08           3165 	ld	hl, #(_maps + 0x050a)
   1DFC 36 00              3166 	ld	(hl), #0x00
   1DFE 21r03r08           3167 	ld	hl, #(_maps + 0x050b)
   1E01 36 00              3168 	ld	(hl), #0x00
   1E03 21r04r08           3169 	ld	hl, #(_maps + 0x050c)
   1E06 36 00              3170 	ld	(hl), #0x00
   1E08 21r05r08           3171 	ld	hl, #(_maps + 0x050d)
   1E0B 36 00              3172 	ld	(hl), #0x00
   1E0D 21r06r08           3173 	ld	hl, #(_maps + 0x050e)
   1E10 36 00              3174 	ld	(hl), #0x00
   1E12 21r07r08           3175 	ld	hl, #(_maps + 0x050f)
   1E15 36 00              3176 	ld	(hl), #0x00
   1E17 21r08r08           3177 	ld	hl, #(_maps + 0x0510)
   1E1A 36 00              3178 	ld	(hl), #0x00
   1E1C 21r09r08           3179 	ld	hl, #(_maps + 0x0511)
   1E1F 36 00              3180 	ld	(hl), #0x00
   1E21 21r0Ar08           3181 	ld	hl, #(_maps + 0x0512)
   1E24 36 00              3182 	ld	(hl), #0x00
   1E26 21r0Br08           3183 	ld	hl, #(_maps + 0x0513)
   1E29 36 04              3184 	ld	(hl), #0x04
   1E2B 21r0Cr08           3185 	ld	hl, #(_maps + 0x0514)
   1E2E 36 04              3186 	ld	(hl), #0x04
   1E30 21r0Dr08           3187 	ld	hl, #(_maps + 0x0515)
   1E33 36 00              3188 	ld	(hl), #0x00
   1E35 21r0Er08           3189 	ld	hl, #(_maps + 0x0516)
   1E38 36 00              3190 	ld	(hl), #0x00
   1E3A 21r0Fr08           3191 	ld	hl, #(_maps + 0x0517)
   1E3D 36 00              3192 	ld	(hl), #0x00
   1E3F 21r10r08           3193 	ld	hl, #(_maps + 0x0518)
   1E42 36 00              3194 	ld	(hl), #0x00
   1E44 21r11r08           3195 	ld	hl, #(_maps + 0x0519)
   1E47 36 00              3196 	ld	(hl), #0x00
   1E49 21r12r08           3197 	ld	hl, #(_maps + 0x051a)
   1E4C 36 00              3198 	ld	(hl), #0x00
   1E4E 21r13r08           3199 	ld	hl, #(_maps + 0x051b)
   1E51 36 00              3200 	ld	(hl), #0x00
   1E53 21r14r08           3201 	ld	hl, #(_maps + 0x051c)
   1E56 36 00              3202 	ld	(hl), #0x00
   1E58 21r15r08           3203 	ld	hl, #(_maps + 0x051d)
   1E5B 36 00              3204 	ld	(hl), #0x00
   1E5D 21r16r08           3205 	ld	hl, #(_maps + 0x051e)
   1E60 36 00              3206 	ld	(hl), #0x00
   1E62 21r17r08           3207 	ld	hl, #(_maps + 0x051f)
   1E65 36 00              3208 	ld	(hl), #0x00
   1E67 21r18r08           3209 	ld	hl, #(_maps + 0x0520)
   1E6A 36 00              3210 	ld	(hl), #0x00
   1E6C 21r19r08           3211 	ld	hl, #(_maps + 0x0521)
   1E6F 36 00              3212 	ld	(hl), #0x00
   1E71 21r1Ar08           3213 	ld	hl, #(_maps + 0x0522)
   1E74 36 00              3214 	ld	(hl), #0x00
   1E76 21r1Br08           3215 	ld	hl, #(_maps + 0x0523)
   1E79 36 00              3216 	ld	(hl), #0x00
   1E7B 21r1Cr08           3217 	ld	hl, #(_maps + 0x0524)
   1E7E 36 00              3218 	ld	(hl), #0x00
   1E80 21r1Dr08           3219 	ld	hl, #(_maps + 0x0525)
   1E83 36 00              3220 	ld	(hl), #0x00
   1E85 21r1Er08           3221 	ld	hl, #(_maps + 0x0526)
   1E88 36 00              3222 	ld	(hl), #0x00
   1E8A 21r1Fr08           3223 	ld	hl, #(_maps + 0x0527)
   1E8D 36 04              3224 	ld	(hl), #0x04
   1E8F 21r20r08           3225 	ld	hl, #(_maps + 0x0528)
   1E92 36 04              3226 	ld	(hl), #0x04
   1E94 21r21r08           3227 	ld	hl, #(_maps + 0x0529)
   1E97 36 00              3228 	ld	(hl), #0x00
   1E99 21r22r08           3229 	ld	hl, #(_maps + 0x052a)
   1E9C 36 00              3230 	ld	(hl), #0x00
   1E9E 21r23r08           3231 	ld	hl, #(_maps + 0x052b)
   1EA1 36 00              3232 	ld	(hl), #0x00
   1EA3 21r24r08           3233 	ld	hl, #(_maps + 0x052c)
   1EA6 36 00              3234 	ld	(hl), #0x00
   1EA8 21r25r08           3235 	ld	hl, #(_maps + 0x052d)
   1EAB 36 00              3236 	ld	(hl), #0x00
   1EAD 21r26r08           3237 	ld	hl, #(_maps + 0x052e)
   1EB0 36 00              3238 	ld	(hl), #0x00
   1EB2 21r27r08           3239 	ld	hl, #(_maps + 0x052f)
   1EB5 36 00              3240 	ld	(hl), #0x00
   1EB7 21r28r08           3241 	ld	hl, #(_maps + 0x0530)
   1EBA 36 00              3242 	ld	(hl), #0x00
   1EBC 21r29r08           3243 	ld	hl, #(_maps + 0x0531)
   1EBF 36 00              3244 	ld	(hl), #0x00
   1EC1 21r2Ar08           3245 	ld	hl, #(_maps + 0x0532)
   1EC4 36 00              3246 	ld	(hl), #0x00
   1EC6 21r2Br08           3247 	ld	hl, #(_maps + 0x0533)
   1EC9 36 00              3248 	ld	(hl), #0x00
   1ECB 21r2Cr08           3249 	ld	hl, #(_maps + 0x0534)
   1ECE 36 00              3250 	ld	(hl), #0x00
   1ED0 21r2Dr08           3251 	ld	hl, #(_maps + 0x0535)
   1ED3 36 00              3252 	ld	(hl), #0x00
   1ED5 21r2Er08           3253 	ld	hl, #(_maps + 0x0536)
   1ED8 36 00              3254 	ld	(hl), #0x00
   1EDA 21r2Fr08           3255 	ld	hl, #(_maps + 0x0537)
   1EDD 36 00              3256 	ld	(hl), #0x00
   1EDF 21r30r08           3257 	ld	hl, #(_maps + 0x0538)
   1EE2 36 00              3258 	ld	(hl), #0x00
   1EE4 21r31r08           3259 	ld	hl, #(_maps + 0x0539)
   1EE7 36 00              3260 	ld	(hl), #0x00
   1EE9 21r32r08           3261 	ld	hl, #(_maps + 0x053a)
   1EEC 36 00              3262 	ld	(hl), #0x00
   1EEE 21r33r08           3263 	ld	hl, #(_maps + 0x053b)
   1EF1 36 04              3264 	ld	(hl), #0x04
   1EF3 21r34r08           3265 	ld	hl, #(_maps + 0x053c)
   1EF6 36 04              3266 	ld	(hl), #0x04
   1EF8 21r35r08           3267 	ld	hl, #(_maps + 0x053d)
   1EFB 36 00              3268 	ld	(hl), #0x00
   1EFD 21r36r08           3269 	ld	hl, #(_maps + 0x053e)
   1F00 36 00              3270 	ld	(hl), #0x00
   1F02 21r37r08           3271 	ld	hl, #(_maps + 0x053f)
   1F05 36 00              3272 	ld	(hl), #0x00
   1F07 21r38r08           3273 	ld	hl, #(_maps + 0x0540)
   1F0A 36 00              3274 	ld	(hl), #0x00
   1F0C 21r39r08           3275 	ld	hl, #(_maps + 0x0541)
   1F0F 36 00              3276 	ld	(hl), #0x00
   1F11 21r3Ar08           3277 	ld	hl, #(_maps + 0x0542)
   1F14 36 00              3278 	ld	(hl), #0x00
   1F16 21r3Br08           3279 	ld	hl, #(_maps + 0x0543)
   1F19 36 00              3280 	ld	(hl), #0x00
   1F1B 21r3Cr08           3281 	ld	hl, #(_maps + 0x0544)
   1F1E 36 00              3282 	ld	(hl), #0x00
   1F20 21r3Dr08           3283 	ld	hl, #(_maps + 0x0545)
   1F23 36 00              3284 	ld	(hl), #0x00
   1F25 21r3Er08           3285 	ld	hl, #(_maps + 0x0546)
   1F28 36 00              3286 	ld	(hl), #0x00
   1F2A 21r3Fr08           3287 	ld	hl, #(_maps + 0x0547)
   1F2D 36 00              3288 	ld	(hl), #0x00
   1F2F 21r40r08           3289 	ld	hl, #(_maps + 0x0548)
   1F32 36 00              3290 	ld	(hl), #0x00
   1F34 21r41r08           3291 	ld	hl, #(_maps + 0x0549)
   1F37 36 00              3292 	ld	(hl), #0x00
   1F39 21r42r08           3293 	ld	hl, #(_maps + 0x054a)
   1F3C 36 00              3294 	ld	(hl), #0x00
   1F3E 21r43r08           3295 	ld	hl, #(_maps + 0x054b)
   1F41 36 00              3296 	ld	(hl), #0x00
   1F43 21r44r08           3297 	ld	hl, #(_maps + 0x054c)
   1F46 36 00              3298 	ld	(hl), #0x00
   1F48 21r45r08           3299 	ld	hl, #(_maps + 0x054d)
   1F4B 36 00              3300 	ld	(hl), #0x00
   1F4D 21r46r08           3301 	ld	hl, #(_maps + 0x054e)
   1F50 36 00              3302 	ld	(hl), #0x00
   1F52 21r47r08           3303 	ld	hl, #(_maps + 0x054f)
   1F55 36 04              3304 	ld	(hl), #0x04
   1F57 21r48r08           3305 	ld	hl, #(_maps + 0x0550)
   1F5A 36 04              3306 	ld	(hl), #0x04
   1F5C 21r49r08           3307 	ld	hl, #(_maps + 0x0551)
   1F5F 36 00              3308 	ld	(hl), #0x00
   1F61 21r4Ar08           3309 	ld	hl, #(_maps + 0x0552)
   1F64 36 00              3310 	ld	(hl), #0x00
   1F66 21r4Br08           3311 	ld	hl, #(_maps + 0x0553)
   1F69 36 00              3312 	ld	(hl), #0x00
   1F6B 21r4Cr08           3313 	ld	hl, #(_maps + 0x0554)
   1F6E 36 00              3314 	ld	(hl), #0x00
   1F70 21r4Dr08           3315 	ld	hl, #(_maps + 0x0555)
   1F73 36 00              3316 	ld	(hl), #0x00
   1F75 21r4Er08           3317 	ld	hl, #(_maps + 0x0556)
   1F78 36 00              3318 	ld	(hl), #0x00
   1F7A 21r4Fr08           3319 	ld	hl, #(_maps + 0x0557)
   1F7D 36 00              3320 	ld	(hl), #0x00
   1F7F 21r50r08           3321 	ld	hl, #(_maps + 0x0558)
   1F82 36 00              3322 	ld	(hl), #0x00
   1F84 21r51r08           3323 	ld	hl, #(_maps + 0x0559)
   1F87 36 00              3324 	ld	(hl), #0x00
   1F89 21r52r08           3325 	ld	hl, #(_maps + 0x055a)
   1F8C 36 00              3326 	ld	(hl), #0x00
   1F8E 21r53r08           3327 	ld	hl, #(_maps + 0x055b)
   1F91 36 00              3328 	ld	(hl), #0x00
   1F93 21r54r08           3329 	ld	hl, #(_maps + 0x055c)
   1F96 36 00              3330 	ld	(hl), #0x00
   1F98 21r55r08           3331 	ld	hl, #(_maps + 0x055d)
   1F9B 36 00              3332 	ld	(hl), #0x00
   1F9D 21r56r08           3333 	ld	hl, #(_maps + 0x055e)
   1FA0 36 00              3334 	ld	(hl), #0x00
   1FA2 21r57r08           3335 	ld	hl, #(_maps + 0x055f)
   1FA5 36 00              3336 	ld	(hl), #0x00
   1FA7 21r58r08           3337 	ld	hl, #(_maps + 0x0560)
   1FAA 36 00              3338 	ld	(hl), #0x00
   1FAC 21r59r08           3339 	ld	hl, #(_maps + 0x0561)
   1FAF 36 00              3340 	ld	(hl), #0x00
   1FB1 21r5Ar08           3341 	ld	hl, #(_maps + 0x0562)
   1FB4 36 00              3342 	ld	(hl), #0x00
   1FB6 21r5Br08           3343 	ld	hl, #(_maps + 0x0563)
   1FB9 36 04              3344 	ld	(hl), #0x04
   1FBB 21r5Cr08           3345 	ld	hl, #(_maps + 0x0564)
   1FBE 36 04              3346 	ld	(hl), #0x04
   1FC0 21r5Dr08           3347 	ld	hl, #(_maps + 0x0565)
   1FC3 36 00              3348 	ld	(hl), #0x00
   1FC5 21r5Er08           3349 	ld	hl, #(_maps + 0x0566)
   1FC8 36 00              3350 	ld	(hl), #0x00
   1FCA 21r5Fr08           3351 	ld	hl, #(_maps + 0x0567)
   1FCD 36 00              3352 	ld	(hl), #0x00
   1FCF 21r60r08           3353 	ld	hl, #(_maps + 0x0568)
   1FD2 36 00              3354 	ld	(hl), #0x00
   1FD4 21r61r08           3355 	ld	hl, #(_maps + 0x0569)
   1FD7 36 00              3356 	ld	(hl), #0x00
   1FD9 21r62r08           3357 	ld	hl, #(_maps + 0x056a)
   1FDC 36 00              3358 	ld	(hl), #0x00
   1FDE 21r63r08           3359 	ld	hl, #(_maps + 0x056b)
   1FE1 36 00              3360 	ld	(hl), #0x00
   1FE3 21r64r08           3361 	ld	hl, #(_maps + 0x056c)
   1FE6 36 00              3362 	ld	(hl), #0x00
   1FE8 21r65r08           3363 	ld	hl, #(_maps + 0x056d)
   1FEB 36 00              3364 	ld	(hl), #0x00
   1FED 21r66r08           3365 	ld	hl, #(_maps + 0x056e)
   1FF0 36 00              3366 	ld	(hl), #0x00
   1FF2 21r67r08           3367 	ld	hl, #(_maps + 0x056f)
   1FF5 36 00              3368 	ld	(hl), #0x00
   1FF7 21r68r08           3369 	ld	hl, #(_maps + 0x0570)
   1FFA 36 00              3370 	ld	(hl), #0x00
   1FFC 21r69r08           3371 	ld	hl, #(_maps + 0x0571)
   1FFF 36 00              3372 	ld	(hl), #0x00
   2001 21r6Ar08           3373 	ld	hl, #(_maps + 0x0572)
   2004 36 00              3374 	ld	(hl), #0x00
   2006 21r6Br08           3375 	ld	hl, #(_maps + 0x0573)
   2009 36 00              3376 	ld	(hl), #0x00
   200B 21r6Cr08           3377 	ld	hl, #(_maps + 0x0574)
   200E 36 00              3378 	ld	(hl), #0x00
   2010 21r6Dr08           3379 	ld	hl, #(_maps + 0x0575)
   2013 36 00              3380 	ld	(hl), #0x00
   2015 21r6Er08           3381 	ld	hl, #(_maps + 0x0576)
   2018 36 00              3382 	ld	(hl), #0x00
   201A 21r6Fr08           3383 	ld	hl, #(_maps + 0x0577)
   201D 36 04              3384 	ld	(hl), #0x04
   201F 21r70r08           3385 	ld	hl, #(_maps + 0x0578)
   2022 36 04              3386 	ld	(hl), #0x04
   2024 21r71r08           3387 	ld	hl, #(_maps + 0x0579)
   2027 36 02              3388 	ld	(hl), #0x02
   2029 21r72r08           3389 	ld	hl, #(_maps + 0x057a)
   202C 36 00              3390 	ld	(hl), #0x00
   202E 21r73r08           3391 	ld	hl, #(_maps + 0x057b)
   2031 36 00              3392 	ld	(hl), #0x00
   2033 21r74r08           3393 	ld	hl, #(_maps + 0x057c)
   2036 36 00              3394 	ld	(hl), #0x00
   2038 21r75r08           3395 	ld	hl, #(_maps + 0x057d)
   203B 36 00              3396 	ld	(hl), #0x00
   203D 21r76r08           3397 	ld	hl, #(_maps + 0x057e)
   2040 36 00              3398 	ld	(hl), #0x00
   2042 21r77r08           3399 	ld	hl, #(_maps + 0x057f)
   2045 36 00              3400 	ld	(hl), #0x00
   2047 21r78r08           3401 	ld	hl, #(_maps + 0x0580)
   204A 36 05              3402 	ld	(hl), #0x05
   204C 21r79r08           3403 	ld	hl, #(_maps + 0x0581)
   204F 36 05              3404 	ld	(hl), #0x05
   2051 21r7Ar08           3405 	ld	hl, #(_maps + 0x0582)
   2054 36 05              3406 	ld	(hl), #0x05
   2056 21r7Br08           3407 	ld	hl, #(_maps + 0x0583)
   2059 36 05              3408 	ld	(hl), #0x05
   205B 21r7Cr08           3409 	ld	hl, #(_maps + 0x0584)
   205E 36 00              3410 	ld	(hl), #0x00
   2060 21r7Dr08           3411 	ld	hl, #(_maps + 0x0585)
   2063 36 00              3412 	ld	(hl), #0x00
   2065 21r7Er08           3413 	ld	hl, #(_maps + 0x0586)
   2068 36 00              3414 	ld	(hl), #0x00
   206A 21r7Fr08           3415 	ld	hl, #(_maps + 0x0587)
   206D 36 00              3416 	ld	(hl), #0x00
   206F 21r80r08           3417 	ld	hl, #(_maps + 0x0588)
   2072 36 00              3418 	ld	(hl), #0x00
   2074 21r81r08           3419 	ld	hl, #(_maps + 0x0589)
   2077 36 00              3420 	ld	(hl), #0x00
   2079 21r82r08           3421 	ld	hl, #(_maps + 0x058a)
   207C 36 01              3422 	ld	(hl), #0x01
   207E 21r83r08           3423 	ld	hl, #(_maps + 0x058b)
   2081 36 04              3424 	ld	(hl), #0x04
   2083 21r84r08           3425 	ld	hl, #(_maps + 0x058c)
   2086 36 04              3426 	ld	(hl), #0x04
   2088 21r85r08           3427 	ld	hl, #(_maps + 0x058d)
   208B 36 04              3428 	ld	(hl), #0x04
   208D 21r86r08           3429 	ld	hl, #(_maps + 0x058e)
   2090 36 04              3430 	ld	(hl), #0x04
   2092 21r87r08           3431 	ld	hl, #(_maps + 0x058f)
   2095 36 04              3432 	ld	(hl), #0x04
   2097 21r88r08           3433 	ld	hl, #(_maps + 0x0590)
   209A 36 04              3434 	ld	(hl), #0x04
   209C 21r89r08           3435 	ld	hl, #(_maps + 0x0591)
   209F 36 04              3436 	ld	(hl), #0x04
   20A1 21r8Ar08           3437 	ld	hl, #(_maps + 0x0592)
   20A4 36 04              3438 	ld	(hl), #0x04
   20A6 21r8Br08           3439 	ld	hl, #(_maps + 0x0593)
   20A9 36 04              3440 	ld	(hl), #0x04
   20AB 21r8Cr08           3441 	ld	hl, #(_maps + 0x0594)
   20AE 36 04              3442 	ld	(hl), #0x04
   20B0 21r8Dr08           3443 	ld	hl, #(_maps + 0x0595)
   20B3 36 04              3444 	ld	(hl), #0x04
   20B5 21r8Er08           3445 	ld	hl, #(_maps + 0x0596)
   20B8 36 04              3446 	ld	(hl), #0x04
   20BA 21r8Fr08           3447 	ld	hl, #(_maps + 0x0597)
   20BD 36 04              3448 	ld	(hl), #0x04
   20BF 21r90r08           3449 	ld	hl, #(_maps + 0x0598)
   20C2 36 04              3450 	ld	(hl), #0x04
   20C4 21r91r08           3451 	ld	hl, #(_maps + 0x0599)
   20C7 36 04              3452 	ld	(hl), #0x04
   20C9 21r92r08           3453 	ld	hl, #(_maps + 0x059a)
   20CC 36 04              3454 	ld	(hl), #0x04
   20CE 21r93r08           3455 	ld	hl, #(_maps + 0x059b)
   20D1 36 04              3456 	ld	(hl), #0x04
   20D3 21r94r08           3457 	ld	hl, #(_maps + 0x059c)
   20D6 36 04              3458 	ld	(hl), #0x04
   20D8 21r95r08           3459 	ld	hl, #(_maps + 0x059d)
   20DB 36 04              3460 	ld	(hl), #0x04
   20DD 21r96r08           3461 	ld	hl, #(_maps + 0x059e)
   20E0 36 04              3462 	ld	(hl), #0x04
   20E2 21r97r08           3463 	ld	hl, #(_maps + 0x059f)
   20E5 36 04              3464 	ld	(hl), #0x04
                           3465 ;--------------------------------------------------------
                           3466 ; Home
                           3467 ;--------------------------------------------------------
                           3468 	.area _HOME
                           3469 	.area _HOME
                           3470 ;--------------------------------------------------------
                           3471 ; code
                           3472 ;--------------------------------------------------------
                           3473 	.area _CODE
                           3474 ;./src/../src/input.c:93: static void joypad_wait (UINT8 buttons)
                           3475 ;	---------------------------------
                           3476 ; Function joypad_wait
                           3477 ; ---------------------------------
   0000                    3478 _joypad_wait:
                           3479 ;./src/../src/input.c:95: while (TRUE) {
   0000                    3480 00108$:
                           3481 ;./src/../src/input.c:96: UPDATE_JOYPAD_STATE;
   0000 E5                 3482 	push	hl
   0001 21rF1r00           3483 	ld	hl, #_joypad_curr_state
   0004 7E                 3484 	ld	a, (hl)
   0005 21rF0r00           3485 	ld	hl, #_joypad_prev_state
   0008 77                 3486 	ld	(hl), a
   0009 E1                 3487 	pop	hl
   000A CDr00r00           3488 	call	_joypad
   000D 21rF1r00           3489 	ld	hl, #_joypad_curr_state
   0010 73                 3490 	ld	(hl), e
                           3491 ;./src/../src/input.c:97: if (JOYPAD_PRESSED(buttons)) {
   0011 21rF0r00           3492 	ld	hl, #_joypad_prev_state
   0014 7E                 3493 	ld	a, (hl)
   0015 F8 02              3494 	ldhl	sp,	#2
   0017 A6                 3495 	and	a,(hl)
   0018 20 08              3496 	jr	NZ,00105$
   001A 21rF1r00           3497 	ld	hl, #_joypad_curr_state
   001D 7E                 3498 	ld	a, (hl)
   001E F8 02              3499 	ldhl	sp,	#2
   0020 A6                 3500 	and	a,(hl)
   0021 C0                 3501 	ret	NZ
                           3502 ;./src/../src/input.c:98: break;
   0022                    3503 00105$:
                           3504 ;./src/../src/input.c:100: wait_vbl_done();
   0022 CDr00r00           3505 	call	_wait_vbl_done
   0025 18 D9              3506 	jr	00108$
                           3507 ;./src/../src/input.c:102: }
   0027 C9                 3508 	ret
                           3509 ;./src/../src/input.c:105: static bool joypad_waittimeout (UINT8 buttons, UINT8 timeout)
                           3510 ;	---------------------------------
                           3511 ; Function joypad_waittimeout
                           3512 ; ---------------------------------
   0028                    3513 _joypad_waittimeout:
                           3514 ;./src/../src/input.c:107: for (input_timer=0; input_timer<timeout; ++input_timer) {
   0028 21rF2r00           3515 	ld	hl, #_input_timer
   002B 36 00              3516 	ld	(hl), #0x00
   002D                    3517 00109$:
   002D 21rF2r00           3518 	ld	hl, #_input_timer
   0030 7E                 3519 	ld	a, (hl)
   0031 F8 03              3520 	ldhl	sp,	#3
   0033 96                 3521 	sub	a, (hl)
   0034 30 2F              3522 	jr	NC,00107$
                           3523 ;./src/../src/input.c:108: UPDATE_JOYPAD_STATE;
   0036 E5                 3524 	push	hl
   0037 21rF1r00           3525 	ld	hl, #_joypad_curr_state
   003A 7E                 3526 	ld	a, (hl)
   003B 21rF0r00           3527 	ld	hl, #_joypad_prev_state
   003E 77                 3528 	ld	(hl), a
   003F E1                 3529 	pop	hl
   0040 CDr00r00           3530 	call	_joypad
   0043 21rF1r00           3531 	ld	hl, #_joypad_curr_state
   0046 73                 3532 	ld	(hl), e
                           3533 ;./src/../src/input.c:109: if (JOYPAD_PRESSED(buttons)) {
   0047 21rF0r00           3534 	ld	hl, #_joypad_prev_state
   004A 7E                 3535 	ld	a, (hl)
   004B F8 02              3536 	ldhl	sp,	#2
   004D A6                 3537 	and	a,(hl)
   004E 20 0C              3538 	jr	NZ,00105$
   0050 21rF1r00           3539 	ld	hl, #_joypad_curr_state
   0053 7E                 3540 	ld	a, (hl)
   0054 F8 02              3541 	ldhl	sp,	#2
   0056 A6                 3542 	and	a,(hl)
   0057 28 03              3543 	jr	Z,00105$
                           3544 ;./src/../src/input.c:110: return TRUE;
   0059 1E 01              3545 	ld	e, #0x01
   005B C9                 3546 	ret
   005C                    3547 00105$:
                           3548 ;./src/../src/input.c:112: wait_vbl_done();
   005C CDr00r00           3549 	call	_wait_vbl_done
                           3550 ;./src/../src/input.c:107: for (input_timer=0; input_timer<timeout; ++input_timer) {
   005F 21rF2r00           3551 	ld	hl, #_input_timer
   0062 34                 3552 	inc	(hl)
   0063 18 C8              3553 	jr	00109$
   0065                    3554 00107$:
                           3555 ;./src/../src/input.c:114: return FALSE;
   0065 1E 00              3556 	ld	e, #0x00
                           3557 ;./src/../src/input.c:115: }
   0067 C9                 3558 	ret
                           3559 ;./src/./sprites.c:19: void draw(MSprite* sprite){
                           3560 ;	---------------------------------
                           3561 ; Function draw
                           3562 ; ---------------------------------
   0068                    3563 _draw::
   0068 E8 FB              3564 	add	sp, #-5
                           3565 ;./src/./sprites.c:21: move_sprite(sprite->sprite_number, sprite->position.x, sprite->position.y);
   006A F8 07              3566 	ldhl	sp,#(8 - 1)
   006C 4E                 3567 	ld	c, (hl)
   006D 23                 3568 	inc	hl
   006E 46                 3569 	ld	b, (hl)
   006F 21 01 00           3570 	ld	hl, #0x0001
   0072 09                 3571 	add	hl, bc
   0073 33                 3572 	inc	sp
   0074 33                 3573 	inc	sp
   0075 E5                 3574 	push	hl
   0076 D1                 3575 	pop	de
   0077 D5                 3576 	push	de
   0078 1A                 3577 	ld	a,(de)
   0079 F8 03              3578 	ldhl	sp,	#3
   007B 77                 3579 	ld	(hl), a
   007C 0A                 3580 	ld	a, (bc)
   007D 23                 3581 	inc	hl
   007E 77                 3582 	ld	(hl), a
   007F 03                 3583 	inc	bc
   0080 03                 3584 	inc	bc
   0081 03                 3585 	inc	bc
   0082 03                 3586 	inc	bc
   0083 0A                 3587 	ld	a, (bc)
   0084 47                 3588 	ld	b, a
   0085 2B                 3589 	dec	hl
   0086 7E                 3590 	ld	a, (hl)
   0087 F5                 3591 	push	af
   0088 33                 3592 	inc	sp
   0089 23                 3593 	inc	hl
   008A 7E                 3594 	ld	a, (hl)
   008B F5                 3595 	push	af
   008C 33                 3596 	inc	sp
   008D C5                 3597 	push	bc
   008E 33                 3598 	inc	sp
   008F CDr00r00           3599 	call	_move_sprite
   0092 E8 03              3600 	add	sp, #3
                           3601 ;./src/./sprites.c:22: }
   0094 E8 05              3602 	add	sp, #5
   0096 C9                 3603 	ret
                           3604 ;./src/./sprites.c:25: void update_position(MSprite* sprite){
                           3605 ;	---------------------------------
                           3606 ; Function update_position
                           3607 ; ---------------------------------
   0097                    3608 _update_position::
   0097 E8 F8              3609 	add	sp, #-8
                           3610 ;./src/./sprites.c:27: if(!(sprite->col.direction.x == -1 && sprite->speed.x < 0) &&
   0099 F8 0A              3611 	ldhl	sp,	#10
   009B 2A                 3612 	ld	a, (hl+)
   009C 5E                 3613 	ld	e, (hl)
   009D F8 00              3614 	ldhl	sp,	#0
   009F 22                 3615 	ld	(hl+), a
   00A0 73                 3616 	ld	(hl), e
   00A1 D1                 3617 	pop	de
   00A2 D5                 3618 	push	de
   00A3 21 0A 00           3619 	ld	hl, #0x000a
   00A6 19                 3620 	add	hl, de
   00A7 4D                 3621 	ld	c, l
   00A8 44                 3622 	ld	b, h
   00A9 59                 3623 	ld	e, c
   00AA 50                 3624 	ld	d, b
   00AB 1A                 3625 	ld	a,(de)
   00AC F8 02              3626 	ldhl	sp,	#2
   00AE 22                 3627 	ld	(hl+), a
   00AF 13                 3628 	inc	de
   00B0 1A                 3629 	ld	a, (de)
   00B1 77                 3630 	ld	(hl), a
   00B2 D1                 3631 	pop	de
   00B3 D5                 3632 	push	de
   00B4 21 05 00           3633 	ld	hl, #0x0005
   00B7 19                 3634 	add	hl, de
   00B8 7D                 3635 	ld	a, l
   00B9 54                 3636 	ld	d, h
   00BA F8 04              3637 	ldhl	sp,	#4
   00BC 22                 3638 	ld	(hl+), a
   00BD 72                 3639 	ld	(hl), d
   00BE 2B                 3640 	dec	hl
   00BF 5E                 3641 	ld	e, (hl)
   00C0 23                 3642 	inc	hl
   00C1 56                 3643 	ld	d, (hl)
   00C2 1A                 3644 	ld	a,(de)
   00C3 23                 3645 	inc	hl
   00C4 22                 3646 	ld	(hl+), a
   00C5 13                 3647 	inc	de
   00C6 1A                 3648 	ld	a, (de)
   00C7 77                 3649 	ld	(hl), a
   00C8 F8 02              3650 	ldhl	sp,	#2
   00CA 2A                 3651 	ld	a, (hl+)
   00CB A6                 3652 	and	a, (hl)
   00CC 3C                 3653 	inc	a
   00CD 20 20              3654 	jr	NZ,00106$
   00CF F8 06              3655 	ldhl	sp,	#6
   00D1 7E                 3656 	ld	a, (hl)
   00D2 D6 00              3657 	sub	a, #0x00
   00D4 23                 3658 	inc	hl
   00D5 7E                 3659 	ld	a, (hl)
   00D6 DE 00              3660 	sbc	a, #0x00
   00D8 56                 3661 	ld	d, (hl)
   00D9 3E 00              3662 	ld	a, #0x00
   00DB 5F                 3663 	ld	e, a
   00DC CB 7B              3664 	bit	7, e
   00DE 28 07              3665 	jr	Z,00149$
   00E0 CB 7A              3666 	bit	7, d
   00E2 20 08              3667 	jr	NZ,00150$
   00E4 BF                 3668 	cp	a, a
   00E5 18 05              3669 	jr	00150$
   00E7                    3670 00149$:
   00E7 CB 7A              3671 	bit	7, d
   00E9 28 01              3672 	jr	Z,00150$
   00EB 37                 3673 	scf
   00EC                    3674 00150$:
   00EC DAr80r01           3675 	jp	C, 00102$
   00EF                    3676 00106$:
                           3677 ;./src/./sprites.c:28: !(sprite->col.direction.x ==  1 && sprite->speed.x > 0)){
   00EF F8 02              3678 	ldhl	sp,	#2
   00F1 7E                 3679 	ld	a, (hl)
   00F2 3D                 3680 	dec	a
   00F3 23                 3681 	inc	hl
   00F4 B6                 3682 	or	a, (hl)
   00F5 20 20              3683 	jr	NZ,00101$
   00F7 F8 06              3684 	ldhl	sp,	#6
   00F9 3E 00              3685 	ld	a, #0x00
   00FB 96                 3686 	sub	a, (hl)
   00FC 23                 3687 	inc	hl
   00FD 3E 00              3688 	ld	a, #0x00
   00FF 9E                 3689 	sbc	a, (hl)
   0100 3E 00              3690 	ld	a, #0x00
   0102 57                 3691 	ld	d, a
   0103 5E                 3692 	ld	e, (hl)
   0104 CB 7B              3693 	bit	7, e
   0106 28 07              3694 	jr	Z,00153$
   0108 CB 7A              3695 	bit	7, d
   010A 20 08              3696 	jr	NZ,00154$
   010C BF                 3697 	cp	a, a
   010D 18 05              3698 	jr	00154$
   010F                    3699 00153$:
   010F CB 7A              3700 	bit	7, d
   0111 28 01              3701 	jr	Z,00154$
   0113 37                 3702 	scf
   0114                    3703 00154$:
   0114 DAr80r01           3704 	jp	C, 00102$
   0117                    3705 00101$:
                           3706 ;./src/./sprites.c:30: sprite->position.x = FROUNDU(FADD(UTOF(sprite->position.x), sprite->speed.x));
   0117 F8 00              3707 	ldhl	sp,	#0
   0119 2A                 3708 	ld	a, (hl+)
   011A 5E                 3709 	ld	e, (hl)
   011B 23                 3710 	inc	hl
   011C 22                 3711 	ld	(hl+), a
   011D 73                 3712 	ld	(hl), e
   011E D1                 3713 	pop	de
   011F D5                 3714 	push	de
   0120 1A                 3715 	ld	a,(de)
   0121 4F                 3716 	ld	c, a
   0122 06 00              3717 	ld	b, #0x00
   0124 CB 21              3718 	sla	c
   0126 CB 10              3719 	rl	b
   0128 CB 21              3720 	sla	c
   012A CB 10              3721 	rl	b
   012C CB 21              3722 	sla	c
   012E CB 10              3723 	rl	b
   0130 CB 21              3724 	sla	c
   0132 CB 10              3725 	rl	b
   0134 F8 06              3726 	ldhl	sp,	#6
   0136 2A                 3727 	ld	a, (hl+)
   0137 66                 3728 	ld	h, (hl)
   0138 6F                 3729 	ld	l, a
   0139 09                 3730 	add	hl, bc
   013A 7D                 3731 	ld	a, l
   013B 54                 3732 	ld	d, h
   013C F8 04              3733 	ldhl	sp,	#4
   013E 22                 3734 	ld	(hl+), a
   013F 72                 3735 	ld	(hl), d
   0140 2B                 3736 	dec	hl
   0141 5E                 3737 	ld	e, (hl)
   0142 23                 3738 	inc	hl
   0143 56                 3739 	ld	d, (hl)
   0144 21 08 00           3740 	ld	hl, #0x0008
   0147 19                 3741 	add	hl, de
   0148 4D                 3742 	ld	c, l
   0149 44                 3743 	ld	b, h
   014A F8 06              3744 	ldhl	sp,	#6
   014C 71                 3745 	ld	(hl), c
   014D 23                 3746 	inc	hl
   014E 70                 3747 	ld	(hl), b
   014F CB 78              3748 	bit	7, b
   0151 28 10              3749 	jr	Z,00115$
   0153 2B                 3750 	dec	hl
   0154 2B                 3751 	dec	hl
   0155 2B                 3752 	dec	hl
   0156 5E                 3753 	ld	e, (hl)
   0157 23                 3754 	inc	hl
   0158 56                 3755 	ld	d, (hl)
   0159 21 17 00           3756 	ld	hl, #0x0017
   015C 19                 3757 	add	hl, de
   015D 7D                 3758 	ld	a, l
   015E 54                 3759 	ld	d, h
   015F F8 06              3760 	ldhl	sp,	#6
   0161 22                 3761 	ld	(hl+), a
   0162 72                 3762 	ld	(hl), d
   0163                    3763 00115$:
   0163 F8 06              3764 	ldhl	sp,#(7 - 1)
   0165 4E                 3765 	ld	c, (hl)
   0166 23                 3766 	inc	hl
   0167 46                 3767 	ld	b, (hl)
   0168 CB 28              3768 	sra	b
   016A CB 19              3769 	rr	c
   016C CB 28              3770 	sra	b
   016E CB 19              3771 	rr	c
   0170 CB 28              3772 	sra	b
   0172 CB 19              3773 	rr	c
   0174 CB 28              3774 	sra	b
   0176 CB 19              3775 	rr	c
   0178 F8 02              3776 	ldhl	sp,	#2
   017A 2A                 3777 	ld	a, (hl+)
   017B 66                 3778 	ld	h, (hl)
   017C 6F                 3779 	ld	l, a
   017D 71                 3780 	ld	(hl), c
   017E 18 08              3781 	jr	00103$
   0180                    3782 00102$:
                           3783 ;./src/./sprites.c:33: sprite->speed.x = 0;
   0180 F8 04              3784 	ldhl	sp,	#4
   0182 2A                 3785 	ld	a, (hl+)
   0183 66                 3786 	ld	h, (hl)
   0184 6F                 3787 	ld	l, a
   0185 AF                 3788 	xor	a, a
   0186 22                 3789 	ld	(hl+), a
   0187 77                 3790 	ld	(hl), a
   0188                    3791 00103$:
                           3792 ;./src/./sprites.c:36: if(!(sprite->col.direction.y == -1 && sprite->speed.y < 0) &&
   0188 D1                 3793 	pop	de
   0189 D5                 3794 	push	de
   018A 21 0C 00           3795 	ld	hl, #0x000c
   018D 19                 3796 	add	hl, de
   018E 4D                 3797 	ld	c, l
   018F 44                 3798 	ld	b, h
   0190 59                 3799 	ld	e, c
   0191 50                 3800 	ld	d, b
   0192 1A                 3801 	ld	a,(de)
   0193 F8 04              3802 	ldhl	sp,	#4
   0195 22                 3803 	ld	(hl+), a
   0196 13                 3804 	inc	de
   0197 1A                 3805 	ld	a, (de)
   0198 77                 3806 	ld	(hl), a
   0199 D1                 3807 	pop	de
   019A D5                 3808 	push	de
   019B 21 07 00           3809 	ld	hl, #0x0007
   019E 19                 3810 	add	hl, de
   019F 7D                 3811 	ld	a, l
   01A0 54                 3812 	ld	d, h
   01A1 F8 06              3813 	ldhl	sp,	#6
   01A3 22                 3814 	ld	(hl+), a
   01A4 72                 3815 	ld	(hl), d
   01A5 2B                 3816 	dec	hl
   01A6 5E                 3817 	ld	e, (hl)
   01A7 23                 3818 	inc	hl
   01A8 56                 3819 	ld	d, (hl)
   01A9 1A                 3820 	ld	a,(de)
   01AA 4F                 3821 	ld	c, a
   01AB 13                 3822 	inc	de
   01AC 1A                 3823 	ld	a,(de)
   01AD 47                 3824 	ld	b, a
   01AE F8 04              3825 	ldhl	sp,	#4
   01B0 2A                 3826 	ld	a, (hl+)
   01B1 A6                 3827 	and	a, (hl)
   01B2 3C                 3828 	inc	a
   01B3 20 05              3829 	jr	NZ,00112$
   01B5 CB 78              3830 	bit	7, b
   01B7 C2r50r02           3831 	jp	NZ, 00108$
   01BA                    3832 00112$:
                           3833 ;./src/./sprites.c:37: !(sprite->col.direction.y ==  1 && sprite->speed.y > 0)){
   01BA F8 04              3834 	ldhl	sp,	#4
   01BC 7E                 3835 	ld	a, (hl)
   01BD 3D                 3836 	dec	a
   01BE 23                 3837 	inc	hl
   01BF B6                 3838 	or	a, (hl)
   01C0 20 1B              3839 	jr	NZ,00107$
   01C2 78                 3840 	ld	a, b
   01C3 5F                 3841 	ld	e, a
   01C4 3E 00              3842 	ld	a, #0x00
   01C6 57                 3843 	ld	d, a
   01C7 AF                 3844 	xor	a, a
   01C8 B9                 3845 	cp	a, c
   01C9 98                 3846 	sbc	a, b
   01CA CB 7B              3847 	bit	7, e
   01CC 28 07              3848 	jr	Z,00161$
   01CE CB 7A              3849 	bit	7, d
   01D0 20 08              3850 	jr	NZ,00162$
   01D2 BF                 3851 	cp	a, a
   01D3 18 05              3852 	jr	00162$
   01D5                    3853 00161$:
   01D5 CB 7A              3854 	bit	7, d
   01D7 28 01              3855 	jr	Z,00162$
   01D9 37                 3856 	scf
   01DA                    3857 00162$:
   01DA DAr50r02           3858 	jp	C, 00108$
   01DD                    3859 00107$:
                           3860 ;./src/./sprites.c:38: sprite->position.y = FROUNDU(FADD(UTOF(sprite->position.y), sprite->speed.y));
   01DD D1                 3861 	pop	de
   01DE D5                 3862 	push	de
   01DF 21 01 00           3863 	ld	hl, #0x0001
   01E2 19                 3864 	add	hl, de
   01E3 7D                 3865 	ld	a, l
   01E4 54                 3866 	ld	d, h
   01E5 F8 06              3867 	ldhl	sp,	#6
   01E7 22                 3868 	ld	(hl+), a
   01E8 72                 3869 	ld	(hl), d
   01E9 2B                 3870 	dec	hl
   01EA 5E                 3871 	ld	e, (hl)
   01EB 23                 3872 	inc	hl
   01EC 56                 3873 	ld	d, (hl)
   01ED 1A                 3874 	ld	a,(de)
   01EE 5F                 3875 	ld	e, a
   01EF 16 00              3876 	ld	d, #0x00
   01F1 CB 23              3877 	sla	e
   01F3 CB 12              3878 	rl	d
   01F5 CB 23              3879 	sla	e
   01F7 CB 12              3880 	rl	d
   01F9 CB 23              3881 	sla	e
   01FB CB 12              3882 	rl	d
   01FD CB 23              3883 	sla	e
   01FF CB 12              3884 	rl	d
   0201 F8 04              3885 	ldhl	sp,	#4
   0203 73                 3886 	ld	(hl), e
   0204 23                 3887 	inc	hl
   0205 72                 3888 	ld	(hl), d
   0206 2B                 3889 	dec	hl
   0207 2A                 3890 	ld	a, (hl+)
   0208 66                 3891 	ld	h, (hl)
   0209 6F                 3892 	ld	l, a
   020A 09                 3893 	add	hl, bc
   020B 7D                 3894 	ld	a, l
   020C 54                 3895 	ld	d, h
   020D F8 02              3896 	ldhl	sp,	#2
   020F 22                 3897 	ld	(hl+), a
   0210 72                 3898 	ld	(hl), d
   0211 2B                 3899 	dec	hl
   0212 5E                 3900 	ld	e, (hl)
   0213 23                 3901 	inc	hl
   0214 56                 3902 	ld	d, (hl)
   0215 21 08 00           3903 	ld	hl, #0x0008
   0218 19                 3904 	add	hl, de
   0219 4D                 3905 	ld	c, l
   021A 44                 3906 	ld	b, h
   021B F8 04              3907 	ldhl	sp,	#4
   021D 71                 3908 	ld	(hl), c
   021E 23                 3909 	inc	hl
   021F 70                 3910 	ld	(hl), b
   0220 CB 78              3911 	bit	7, b
   0222 28 10              3912 	jr	Z,00116$
   0224 2B                 3913 	dec	hl
   0225 2B                 3914 	dec	hl
   0226 2B                 3915 	dec	hl
   0227 5E                 3916 	ld	e, (hl)
   0228 23                 3917 	inc	hl
   0229 56                 3918 	ld	d, (hl)
   022A 21 17 00           3919 	ld	hl, #0x0017
   022D 19                 3920 	add	hl, de
   022E 7D                 3921 	ld	a, l
   022F 54                 3922 	ld	d, h
   0230 F8 04              3923 	ldhl	sp,	#4
   0232 22                 3924 	ld	(hl+), a
   0233 72                 3925 	ld	(hl), d
   0234                    3926 00116$:
   0234 F8 04              3927 	ldhl	sp,#(5 - 1)
   0236 4E                 3928 	ld	c, (hl)
   0237 23                 3929 	inc	hl
   0238 46                 3930 	ld	b, (hl)
   0239 CB 28              3931 	sra	b
   023B CB 19              3932 	rr	c
   023D CB 28              3933 	sra	b
   023F CB 19              3934 	rr	c
   0241 CB 28              3935 	sra	b
   0243 CB 19              3936 	rr	c
   0245 CB 28              3937 	sra	b
   0247 CB 19              3938 	rr	c
   0249 23                 3939 	inc	hl
   024A 2A                 3940 	ld	a, (hl+)
   024B 66                 3941 	ld	h, (hl)
   024C 6F                 3942 	ld	l, a
   024D 71                 3943 	ld	(hl), c
   024E 18 08              3944 	jr	00113$
   0250                    3945 00108$:
                           3946 ;./src/./sprites.c:41: sprite->speed.y = 0;
   0250 F8 06              3947 	ldhl	sp,	#6
   0252 2A                 3948 	ld	a, (hl+)
   0253 66                 3949 	ld	h, (hl)
   0254 6F                 3950 	ld	l, a
   0255 AF                 3951 	xor	a, a
   0256 22                 3952 	ld	(hl+), a
   0257 77                 3953 	ld	(hl), a
   0258                    3954 00113$:
                           3955 ;./src/./sprites.c:43: }
   0258 E8 08              3956 	add	sp, #8
   025A C9                 3957 	ret
                           3958 ;./src/./sprites.c:45: void update_position_split(UINT16 x, UINT16 y){
                           3959 ;	---------------------------------
                           3960 ; Function update_position_split
                           3961 ; ---------------------------------
   025B                    3962 _update_position_split::
                           3963 ;./src/./sprites.c:46: }
   025B C9                 3964 	ret
                           3965 ;./src/./player.c:9: void next_animation(MSprite* sprite){
                           3966 ;	---------------------------------
                           3967 ; Function next_animation
                           3968 ; ---------------------------------
   025C                    3969 _next_animation::
   025C E8 FB              3970 	add	sp, #-5
                           3971 ;./src/./player.c:10: ++(sprite->animation_index);
   025E F8 07              3972 	ldhl	sp,	#7
   0260 2A                 3973 	ld	a, (hl+)
   0261 5E                 3974 	ld	e, (hl)
   0262 F8 00              3975 	ldhl	sp,	#0
   0264 22                 3976 	ld	(hl+), a
   0265 73                 3977 	ld	(hl), e
   0266 C1                 3978 	pop	bc
   0267 C5                 3979 	push	bc
   0268 03                 3980 	inc	bc
   0269 03                 3981 	inc	bc
   026A 0A                 3982 	ld	a, (bc)
   026B 3C                 3983 	inc	a
   026C 23                 3984 	inc	hl
   026D 77                 3985 	ld	(hl),a
   026E 02                 3986 	ld	(bc), a
                           3987 ;./src/./player.c:11: if(sprite->animation_index == sprite->max_animations){
   026F D1                 3988 	pop	de
   0270 D5                 3989 	push	de
   0271 21 03 00           3990 	ld	hl, #0x0003
   0274 19                 3991 	add	hl, de
   0275 7D                 3992 	ld	a, l
   0276 54                 3993 	ld	d, h
   0277 F8 03              3994 	ldhl	sp,	#3
   0279 22                 3995 	ld	(hl+), a
   027A 72                 3996 	ld	(hl), d
   027B 2B                 3997 	dec	hl
   027C 5E                 3998 	ld	e, (hl)
   027D 23                 3999 	inc	hl
   027E 56                 4000 	ld	d, (hl)
   027F 1A                 4001 	ld	a,(de)
   0280 32                 4002 	ld	(hl-), a
   0281 2B                 4003 	dec	hl
   0282 2A                 4004 	ld	a, (hl+)
   0283 23                 4005 	inc	hl
   0284 96                 4006 	sub	a, (hl)
   0285 20 02              4007 	jr	NZ,00102$
                           4008 ;./src/./player.c:12: sprite->animation_index = 0;
   0287 AF                 4009 	xor	a, a
   0288 02                 4010 	ld	(bc), a
   0289                    4011 00102$:
                           4012 ;./src/./player.c:14: set_sprite_tile(sprite->sprite_number, sprite->animation_index);
   0289 0A                 4013 	ld	a, (bc)
   028A 47                 4014 	ld	b, a
   028B D1                 4015 	pop	de
   028C D5                 4016 	push	de
   028D 21 04 00           4017 	ld	hl, #0x0004
   0290 19                 4018 	add	hl, de
   0291 4D                 4019 	ld	c,l
   0292 7C                 4020 	ld	a,h
   0293 7E                 4021 	ld	a, (hl)
   0294 C5                 4022 	push	bc
   0295 33                 4023 	inc	sp
   0296 F5                 4024 	push	af
   0297 33                 4025 	inc	sp
   0298 CDr00r00           4026 	call	_set_sprite_tile
   029B E8 02              4027 	add	sp, #2
                           4028 ;./src/./player.c:15: }
   029D E8 05              4029 	add	sp, #5
   029F C9                 4030 	ret
                           4031 ;./src/./player.c:17: void player_movement(MPlayer* player)
                           4032 ;	---------------------------------
                           4033 ; Function player_movement
                           4034 ; ---------------------------------
   02A0                    4035 _player_movement::
   02A0 E8 F8              4036 	add	sp, #-8
                           4037 ;./src/./player.c:20: if(JOYPAD_DOWN_PAD_L){
   02A2 CDr00r00           4038 	call	_joypad
   02A5 F8 07              4039 	ldhl	sp,	#7
   02A7 73                 4040 	ld	(hl), e
                           4041 ;./src/./player.c:25: player->sprite.speed.x = ITOF(-movement_speed);  //FSUB(player->sprite.speed.x, FDIV(movement_speed.x,FPS));
   02A8 F8 0A              4042 	ldhl	sp,	#10
   02AA 2A                 4043 	ld	a, (hl+)
   02AB 5E                 4044 	ld	e, (hl)
   02AC F8 00              4045 	ldhl	sp,	#0
   02AE 22                 4046 	ld	(hl+), a
   02AF 73                 4047 	ld	(hl), e
   02B0 D1                 4048 	pop	de
   02B1 D5                 4049 	push	de
   02B2 21 05 00           4050 	ld	hl, #0x0005
   02B5 19                 4051 	add	hl, de
   02B6 4D                 4052 	ld	c, l
   02B7 44                 4053 	ld	b, h
                           4054 ;./src/./player.c:20: if(JOYPAD_DOWN_PAD_L){
   02B8 F8 07              4055 	ldhl	sp,	#7
   02BA CB 4E              4056 	bit	1, (hl)
   02BC 28 17              4057 	jr	Z,00108$
                           4058 ;./src/./player.c:24: teleporter_active = true;
   02BE 21rF5r02           4059 	ld	hl, #_teleporter_active
   02C1 36 01              4060 	ld	(hl), #0x01
                           4061 ;./src/./player.c:25: player->sprite.speed.x = ITOF(-movement_speed);  //FSUB(player->sprite.speed.x, FDIV(movement_speed.x,FPS));
   02C3 3E B0              4062 	ld	a, #0xb0
   02C5 02                 4063 	ld	(bc), a
   02C6 03                 4064 	inc	bc
   02C7 3E FF              4065 	ld	a, #0xff
   02C9 02                 4066 	ld	(bc), a
                           4067 ;./src/./player.c:27: next_animation(&(player->sprite));
   02CA E1                 4068 	pop	hl
   02CB E5                 4069 	push	hl
   02CC E5                 4070 	push	hl
   02CD CDr5Cr02           4071 	call	_next_animation
   02D0 E8 02              4072 	add	sp, #2
   02D2 C3rADr03           4073 	jp	00109$
   02D5                    4074 00108$:
                           4075 ;./src/./player.c:29: else if(JOYPAD_DOWN_PAD_R){
   02D5 C5                 4076 	push	bc
   02D6 CDr00r00           4077 	call	_joypad
   02D9 7B                 4078 	ld	a, e
   02DA C1                 4079 	pop	bc
   02DB 0F                 4080 	rrca
   02DC D2r97r03           4081 	jp	NC,00105$
                           4082 ;./src/./player.c:33: teleporter_active = true;
   02DF 21rF5r02           4083 	ld	hl, #_teleporter_active
   02E2 36 01              4084 	ld	(hl), #0x01
                           4085 ;./src/./player.c:34: player->sprite.speed.x = ITOF(movement_speed);//movement_speed.x;// FADD(player->sprite.speed.x, FDIV(movement_speed.x,FPS));
   02E4 69                 4086 	ld	l, c
   02E5 60                 4087 	ld	h, b
   02E6 36 50              4088 	ld	(hl), #0x50
   02E8 23                 4089 	inc	hl
   02E9 36 00              4090 	ld	(hl), #0x00
                           4091 ;./src/./player.c:35: DEBUG_LOG_MESSAGE("speed: %d -> %d.%d",
   02EB 59                 4092 	ld	e, c
   02EC 50                 4093 	ld	d, b
   02ED 1A                 4094 	ld	a,(de)
   02EE F8 02              4095 	ldhl	sp,	#2
   02F0 22                 4096 	ld	(hl+), a
   02F1 13                 4097 	inc	de
   02F2 1A                 4098 	ld	a, (de)
   02F3 32                 4099 	ld	(hl-), a
   02F4 7E                 4100 	ld	a, (hl)
   02F5 E6 0F              4101 	and	a, #0x0f
   02F7 4F                 4102 	ld	c, a
   02F8 06 00              4103 	ld	b, #0x00
   02FA 69                 4104 	ld	l, c
   02FB 60                 4105 	ld	h, b
   02FC 29                 4106 	add	hl, hl
   02FD 29                 4107 	add	hl, hl
   02FE 09                 4108 	add	hl, bc
   02FF 29                 4109 	add	hl, hl
   0300 4D                 4110 	ld	c, l
   0301 44                 4111 	ld	b, h
   0302 F8 06              4112 	ldhl	sp,	#6
   0304 71                 4113 	ld	(hl), c
   0305 23                 4114 	inc	hl
   0306 70                 4115 	ld	(hl), b
   0307 CB 78              4116 	bit	7, b
   0309 28 0A              4117 	jr	Z,00115$
   030B 21 0F 00           4118 	ld	hl, #0x000f
   030E 09                 4119 	add	hl, bc
   030F 7D                 4120 	ld	a, l
   0310 54                 4121 	ld	d, h
   0311 F8 06              4122 	ldhl	sp,	#6
   0313 22                 4123 	ld	(hl+), a
   0314 72                 4124 	ld	(hl), d
   0315                    4125 00115$:
   0315 F8 06              4126 	ldhl	sp,	#6
   0317 3A                 4127 	ld	a, (hl-)
   0318 2B                 4128 	dec	hl
   0319 77                 4129 	ld	(hl), a
   031A F8 07              4130 	ldhl	sp,	#7
   031C 3A                 4131 	ld	a, (hl-)
   031D 2B                 4132 	dec	hl
   031E 77                 4133 	ld	(hl), a
   031F CB 2E              4134 	sra	(hl)
   0321 2B                 4135 	dec	hl
   0322 CB 1E              4136 	rr	(hl)
   0324 23                 4137 	inc	hl
   0325 CB 2E              4138 	sra	(hl)
   0327 2B                 4139 	dec	hl
   0328 CB 1E              4140 	rr	(hl)
   032A 23                 4141 	inc	hl
   032B CB 2E              4142 	sra	(hl)
   032D 2B                 4143 	dec	hl
   032E CB 1E              4144 	rr	(hl)
   0330 23                 4145 	inc	hl
   0331 CB 2E              4146 	sra	(hl)
   0333 2B                 4147 	dec	hl
   0334 CB 1E              4148 	rr	(hl)
   0336 2B                 4149 	dec	hl
   0337 2B                 4150 	dec	hl
   0338 4E                 4151 	ld	c, (hl)
   0339 23                 4152 	inc	hl
   033A 46                 4153 	ld	b, (hl)
   033B CB 28              4154 	sra	b
   033D CB 19              4155 	rr	c
   033F CB 28              4156 	sra	b
   0341 CB 19              4157 	rr	c
   0343 CB 28              4158 	sra	b
   0345 CB 19              4159 	rr	c
   0347 CB 28              4160 	sra	b
   0349 CB 19              4161 	rr	c
   034B 2B                 4162 	dec	hl
   034C 5E                 4163 	ld	e, (hl)
   034D 23                 4164 	inc	hl
   034E 56                 4165 	ld	d, (hl)
   034F 21 08 00           4166 	ld	hl, #0x0008
   0352 19                 4167 	add	hl, de
   0353 7D                 4168 	ld	a, l
   0354 54                 4169 	ld	d, h
   0355 F8 06              4170 	ldhl	sp,	#6
   0357 22                 4171 	ld	(hl+), a
   0358 72                 4172 	ld	(hl), d
   0359 2B                 4173 	dec	hl
   035A 5E                 4174 	ld	e, (hl)
   035B 23                 4175 	inc	hl
   035C 56                 4176 	ld	d, (hl)
   035D CB 2A              4177 	sra	d
   035F CB 1B              4178 	rr	e
   0361 CB 2A              4179 	sra	d
   0363 CB 1B              4180 	rr	e
   0365 CB 2A              4181 	sra	d
   0367 CB 1B              4182 	rr	e
   0369 CB 2A              4183 	sra	d
   036B CB 1B              4184 	rr	e
   036D F8 04              4185 	ldhl	sp,	#4
   036F 2A                 4186 	ld	a, (hl+)
   0370 66                 4187 	ld	h, (hl)
   0371 6F                 4188 	ld	l, a
   0372 E5                 4189 	push	hl
   0373 C5                 4190 	push	bc
   0374 D5                 4191 	push	de
   0375 21rCBr03           4192 	ld	hl, #___str_0
   0378 E5                 4193 	push	hl
   0379 21rF5r00           4194 	ld	hl, #_debug_buffer
   037C E5                 4195 	push	hl
   037D CDr00r00           4196 	call	_sprintf
   0380 E8 0A              4197 	add	sp, #10
   0382 52                 4198 	ld d, d 
   0383 18 08              4199 	jr 3800$ 
   0385 64 64              4200 	.dw 0x6464 
   0387 01 00              4201 	.dw 0x0001 
   0389rF5r00              4202 	.dw #_debug_buffer 
   038B 00 00              4203 	.dw 0 
   038D                    4204 	 3800$:
                           4205 ;./src/./player.c:39: next_animation(&(player->sprite));
   038D E1                 4206 	pop	hl
   038E E5                 4207 	push	hl
   038F E5                 4208 	push	hl
   0390 CDr5Cr02           4209 	call	_next_animation
   0393 E8 02              4210 	add	sp, #2
   0395 18 16              4211 	jr	00109$
   0397                    4212 00105$:
                           4213 ;./src/./player.c:42: else if(JOYPAD_UP_PAD_L && JOYPAD_UP_PAD_R){
   0397 C5                 4214 	push	bc
   0398 CDr00r00           4215 	call	_joypad
   039B C1                 4216 	pop	bc
   039C CB 4B              4217 	bit	1, e
   039E 20 0D              4218 	jr	NZ,00109$
   03A0 C5                 4219 	push	bc
   03A1 CDr00r00           4220 	call	_joypad
   03A4 7B                 4221 	ld	a, e
   03A5 C1                 4222 	pop	bc
   03A6 0F                 4223 	rrca
   03A7 38 04              4224 	jr	C,00109$
                           4225 ;./src/./player.c:43: player->sprite.speed.x = 0;
   03A9 AF                 4226 	xor	a, a
   03AA 02                 4227 	ld	(bc), a
   03AB 03                 4228 	inc	bc
   03AC 02                 4229 	ld	(bc), a
   03AD                    4230 00109$:
                           4231 ;./src/./player.c:54: if(JOYPAD_DOWN_PAD_D){
   03AD CDr00r00           4232 	call	_joypad
   03B0 CB 5B              4233 	bit	3, e
   03B2 28 14              4234 	jr	Z,00113$
                           4235 ;./src/./player.c:55: teleporter_active = true;
   03B4 21rF5r02           4236 	ld	hl, #_teleporter_active
   03B7 36 01              4237 	ld	(hl), #0x01
                           4238 ;./src/./player.c:56: player->sprite.speed.y = ITOF(movement_speed);//FADD(player->sprite.speed.y, FDIV(movement_speed.y, FPS));
   03B9 D1                 4239 	pop	de
   03BA D5                 4240 	push	de
   03BB 21 07 00           4241 	ld	hl, #0x0007
   03BE 19                 4242 	add	hl, de
   03BF 4D                 4243 	ld	c, l
   03C0 44                 4244 	ld	b, h
   03C1 3E 50              4245 	ld	a, #0x50
   03C3 02                 4246 	ld	(bc), a
   03C4 03                 4247 	inc	bc
   03C5 3E 00              4248 	ld	a, #0x00
   03C7 02                 4249 	ld	(bc), a
                           4250 ;./src/./player.c:58: else if(JOYPAD_RELEASED_PAD_D){
   03C8                    4251 00113$:
                           4252 ;./src/./player.c:61: }
   03C8 E8 08              4253 	add	sp, #8
   03CA C9                 4254 	ret
   03CB                    4255 ___str_0:
   03CB 73 70 65 65 64 3A  4256 	.ascii "speed: %d -> %d.%d"
        20 25 64 20 2D 3E
        20 25 64 2E 25 64
   03DD 00                 4257 	.db 0x00
                           4258 ;./src/./player.c:63: void jump(MPlayer* player){
                           4259 ;	---------------------------------
                           4260 ; Function jump
                           4261 ; ---------------------------------
   03DE                    4262 _jump::
   03DE E8 FA              4263 	add	sp, #-6
                           4264 ;./src/./player.c:64: if(JOYPAD_DOWN_A && player->sprite.col.has_collided){
   03E0 CDr00r00           4265 	call	_joypad
   03E3 CB 63              4266 	bit	4, e
   03E5 CAr85r04           4267 	jp	Z,00114$
   03E8 F8 08              4268 	ldhl	sp,	#8
   03EA 2A                 4269 	ld	a, (hl+)
   03EB 5E                 4270 	ld	e, (hl)
   03EC F8 00              4271 	ldhl	sp,	#0
   03EE 22                 4272 	ld	(hl+), a
   03EF 73                 4273 	ld	(hl), e
   03F0 D1                 4274 	pop	de
   03F1 D5                 4275 	push	de
   03F2 21 09 00           4276 	ld	hl, #0x0009
   03F5 19                 4277 	add	hl, de
   03F6 4D                 4278 	ld	c, l
   03F7 44                 4279 	ld	b, h
   03F8 0A                 4280 	ld	a, (bc)
   03F9 CB 47              4281 	bit	0, a
   03FB CAr85r04           4282 	jp	Z, 00114$
                           4283 ;./src/./player.c:66: if(player->sprite.col.direction.y == -1){
   03FE D1                 4284 	pop	de
   03FF D5                 4285 	push	de
   0400 21 0A 00           4286 	ld	hl, #0x000a
   0403 19                 4287 	add	hl, de
   0404 7D                 4288 	ld	a, l
   0405 54                 4289 	ld	d, h
   0406 F8 02              4290 	ldhl	sp,	#2
   0408 22                 4291 	ld	(hl+), a
   0409 72                 4292 	ld	(hl), d
   040A D1                 4293 	pop	de
   040B D5                 4294 	push	de
   040C 21 0C 00           4295 	ld	hl, #0x000c
   040F 19                 4296 	add	hl, de
   0410 4D                 4297 	ld	c, l
   0411 44                 4298 	ld	b, h
   0412 59                 4299 	ld	e, c
   0413 50                 4300 	ld	d, b
   0414 1A                 4301 	ld	a,(de)
   0415 F8 04              4302 	ldhl	sp,	#4
   0417 22                 4303 	ld	(hl+), a
   0418 13                 4304 	inc	de
   0419 1A                 4305 	ld	a, (de)
   041A 32                 4306 	ld	(hl-), a
   041B 2A                 4307 	ld	a, (hl+)
   041C A6                 4308 	and	a, (hl)
   041D 3C                 4309 	inc	a
   041E CAr85r04           4310 	jp	Z,00114$
   0421 18 03              4311 	jr	00102$
                           4312 ;./src/./player.c:67: return;
   0423 C3r85r04           4313 	jp	00114$
   0426                    4314 00102$:
                           4315 ;./src/./player.c:69: teleporter_active = true;
   0426 21rF5r02           4316 	ld	hl, #_teleporter_active
   0429 36 01              4317 	ld	(hl), #0x01
                           4318 ;./src/./player.c:70: if((player->sprite.col.direction.y == 1 ||
   042B 69                 4319 	ld	l, c
   042C 60                 4320 	ld	h, b
   042D 4E                 4321 	ld	c, (hl)
   042E 23                 4322 	inc	hl
   042F 46                 4323 	ld	b, (hl)
   0430 79                 4324 	ld	a, c
   0431 3D                 4325 	dec	a
   0432 B0                 4326 	or	a, b
   0433 28 0C              4327 	jr	Z,00103$
                           4328 ;./src/./player.c:71: player->sprite.col.direction.x != 0)){
   0435 F8 02              4329 	ldhl	sp,#(3 - 1)
   0437 5E                 4330 	ld	e, (hl)
   0438 23                 4331 	inc	hl
   0439 56                 4332 	ld	d, (hl)
   043A 1A                 4333 	ld	a,(de)
   043B 4F                 4334 	ld	c, a
   043C 13                 4335 	inc	de
   043D 1A                 4336 	ld	a,(de)
   043E B1                 4337 	or	a, c
   043F 28 0F              4338 	jr	Z,00104$
   0441                    4339 00103$:
                           4340 ;./src/./player.c:72: player->sprite.speed.y = ITOF(-6);
   0441 D1                 4341 	pop	de
   0442 D5                 4342 	push	de
   0443 21 07 00           4343 	ld	hl, #0x0007
   0446 19                 4344 	add	hl, de
   0447 4D                 4345 	ld	c, l
   0448 44                 4346 	ld	b, h
   0449 3E A0              4347 	ld	a, #0xa0
   044B 02                 4348 	ld	(bc), a
   044C 03                 4349 	inc	bc
   044D 3E FF              4350 	ld	a, #0xff
   044F 02                 4351 	ld	(bc), a
   0450                    4352 00104$:
                           4353 ;./src/./player.c:75: if(player->sprite.col.direction.x == -1){
   0450 F8 02              4354 	ldhl	sp,#(3 - 1)
   0452 5E                 4355 	ld	e, (hl)
   0453 23                 4356 	inc	hl
   0454 56                 4357 	ld	d, (hl)
   0455 1A                 4358 	ld	a,(de)
   0456 4F                 4359 	ld	c, a
   0457 13                 4360 	inc	de
   0458 1A                 4361 	ld	a,(de)
   0459 47                 4362 	ld	b, a
                           4363 ;./src/./player.c:76: player->sprite.speed.x = ITOF(7);
   045A D1                 4364 	pop	de
   045B D5                 4365 	push	de
   045C 21 05 00           4366 	ld	hl, #0x0005
   045F 19                 4367 	add	hl, de
   0460 7D                 4368 	ld	a, l
   0461 54                 4369 	ld	d, h
   0462 F8 04              4370 	ldhl	sp,	#4
   0464 22                 4371 	ld	(hl+), a
   0465 72                 4372 	ld	(hl), d
                           4373 ;./src/./player.c:75: if(player->sprite.col.direction.x == -1){
   0466 79                 4374 	ld	a, c
   0467 A0                 4375 	and	a, b
   0468 3C                 4376 	inc	a
   0469 20 0B              4377 	jr	NZ,00109$
                           4378 ;./src/./player.c:76: player->sprite.speed.x = ITOF(7);
   046B 2B                 4379 	dec	hl
   046C 2A                 4380 	ld	a, (hl+)
   046D 66                 4381 	ld	h, (hl)
   046E 6F                 4382 	ld	l, a
   046F 36 70              4383 	ld	(hl), #0x70
   0471 23                 4384 	inc	hl
   0472 36 00              4385 	ld	(hl), #0x00
   0474 18 0F              4386 	jr	00114$
   0476                    4387 00109$:
                           4388 ;./src/./player.c:78: else if (player->sprite.col.direction.x == 1){
   0476 79                 4389 	ld	a, c
   0477 3D                 4390 	dec	a
   0478 B0                 4391 	or	a, b
   0479 20 0A              4392 	jr	NZ,00114$
                           4393 ;./src/./player.c:79: player->sprite.speed.x = ITOF(-7);
   047B F8 04              4394 	ldhl	sp,	#4
   047D 2A                 4395 	ld	a, (hl+)
   047E 66                 4396 	ld	h, (hl)
   047F 6F                 4397 	ld	l, a
   0480 36 90              4398 	ld	(hl), #0x90
   0482 23                 4399 	inc	hl
   0483 36 FF              4400 	ld	(hl), #0xff
   0485                    4401 00114$:
                           4402 ;./src/./player.c:82: }
   0485 E8 06              4403 	add	sp, #6
   0487 C9                 4404 	ret
                           4405 ;./src/./maps.c:22: UINT16 get_world_to_map(UINT16 x, UINT16 y){
                           4406 ;	---------------------------------
                           4407 ; Function get_world_to_map
                           4408 ; ---------------------------------
   0488                    4409 _get_world_to_map::
   0488 E8 FE              4410 	add	sp, #-2
                           4411 ;./src/./maps.c:23: return ((x - 8 ) >> 3) + ((y - 16) >> 3 )* 20;
   048A F8 04              4412 	ldhl	sp,#(5 - 1)
   048C 5E                 4413 	ld	e, (hl)
   048D 23                 4414 	inc	hl
   048E 56                 4415 	ld	d, (hl)
   048F 21 08 00           4416 	ld	hl, #0x0008
   0492 7B                 4417 	ld	a, e
   0493 95                 4418 	sub	a, l
   0494 5F                 4419 	ld	e, a
   0495 7A                 4420 	ld	a, d
   0496 9C                 4421 	sbc	a, h
   0497 47                 4422 	ld	b, a
   0498 4B                 4423 	ld	c, e
   0499 F8 00              4424 	ldhl	sp,	#0
   049B 71                 4425 	ld	(hl), c
   049C 23                 4426 	inc	hl
   049D 70                 4427 	ld	(hl), b
   049E CB 3E              4428 	srl	(hl)
   04A0 2B                 4429 	dec	hl
   04A1 CB 1E              4430 	rr	(hl)
   04A3 23                 4431 	inc	hl
   04A4 CB 3E              4432 	srl	(hl)
   04A6 2B                 4433 	dec	hl
   04A7 CB 1E              4434 	rr	(hl)
   04A9 23                 4435 	inc	hl
   04AA CB 3E              4436 	srl	(hl)
   04AC 2B                 4437 	dec	hl
   04AD CB 1E              4438 	rr	(hl)
   04AF F8 06              4439 	ldhl	sp,#(7 - 1)
   04B1 5E                 4440 	ld	e, (hl)
   04B2 23                 4441 	inc	hl
   04B3 56                 4442 	ld	d, (hl)
   04B4 21 10 00           4443 	ld	hl, #0x0010
   04B7 7B                 4444 	ld	a, e
   04B8 95                 4445 	sub	a, l
   04B9 5F                 4446 	ld	e, a
   04BA 7A                 4447 	ld	a, d
   04BB 9C                 4448 	sbc	a, h
   04BC 47                 4449 	ld	b, a
   04BD 4B                 4450 	ld	c, e
   04BE CB 38              4451 	srl	b
   04C0 CB 19              4452 	rr	c
   04C2 CB 38              4453 	srl	b
   04C4 CB 19              4454 	rr	c
   04C6 CB 38              4455 	srl	b
   04C8 CB 19              4456 	rr	c
   04CA 69                 4457 	ld	l, c
   04CB 60                 4458 	ld	h, b
   04CC 29                 4459 	add	hl, hl
   04CD 29                 4460 	add	hl, hl
   04CE 09                 4461 	add	hl, bc
   04CF 29                 4462 	add	hl, hl
   04D0 29                 4463 	add	hl, hl
   04D1 4D                 4464 	ld	c, l
   04D2 44                 4465 	ld	b, h
   04D3 E1                 4466 	pop	hl
   04D4 E5                 4467 	push	hl
   04D5 09                 4468 	add	hl, bc
   04D6 4D                 4469 	ld	c, l
   04D7 44                 4470 	ld	b, h
   04D8 59                 4471 	ld	e, c
   04D9 50                 4472 	ld	d, b
                           4473 ;./src/./maps.c:24: }
   04DA E8 02              4474 	add	sp, #2
   04DC C9                 4475 	ret
   04DD                    4476 _you_win_data:
   04DD FF                 4477 	.db #0xff	; 255
   04DE 00                 4478 	.db #0x00	; 0
   04DF FF                 4479 	.db #0xff	; 255
   04E0 00                 4480 	.db #0x00	; 0
   04E1 FF                 4481 	.db #0xff	; 255
   04E2 00                 4482 	.db #0x00	; 0
   04E3 FF                 4483 	.db #0xff	; 255
   04E4 00                 4484 	.db #0x00	; 0
   04E5 FF                 4485 	.db #0xff	; 255
   04E6 00                 4486 	.db #0x00	; 0
   04E7 FF                 4487 	.db #0xff	; 255
   04E8 00                 4488 	.db #0x00	; 0
   04E9 FF                 4489 	.db #0xff	; 255
   04EA 00                 4490 	.db #0x00	; 0
   04EB FF                 4491 	.db #0xff	; 255
   04EC 00                 4492 	.db #0x00	; 0
   04ED FF                 4493 	.db #0xff	; 255
   04EE 70                 4494 	.db #0x70	; 112	'p'
   04EF FF                 4495 	.db #0xff	; 255
   04F0 78                 4496 	.db #0x78	; 120	'x'
   04F1 FF                 4497 	.db #0xff	; 255
   04F2 78                 4498 	.db #0x78	; 120	'x'
   04F3 FF                 4499 	.db #0xff	; 255
   04F4 7C                 4500 	.db #0x7c	; 124
   04F5 FF                 4501 	.db #0xff	; 255
   04F6 7C                 4502 	.db #0x7c	; 124
   04F7 FE                 4503 	.db #0xfe	; 254
   04F8 7F                 4504 	.db #0x7f	; 127
   04F9 FE                 4505 	.db #0xfe	; 254
   04FA 7F                 4506 	.db #0x7f	; 127
   04FB FF                 4507 	.db #0xff	; 255
   04FC 7F                 4508 	.db #0x7f	; 127
   04FD CF                 4509 	.db #0xcf	; 207
   04FE 30                 4510 	.db #0x30	; 48	'0'
   04FF 87                 4511 	.db #0x87	; 135
   0500 78                 4512 	.db #0x78	; 120	'x'
   0501 87                 4513 	.db #0x87	; 135
   0502 78                 4514 	.db #0x78	; 120	'x'
   0503 03                 4515 	.db #0x03	; 3
   0504 FC                 4516 	.db #0xfc	; 252
   0505 03                 4517 	.db #0x03	; 3
   0506 FC                 4518 	.db #0xfc	; 252
   0507 01                 4519 	.db #0x01	; 1
   0508 FF                 4520 	.db #0xff	; 255
   0509 01                 4521 	.db #0x01	; 1
   050A FF                 4522 	.db #0xff	; 255
   050B 03                 4523 	.db #0x03	; 3
   050C FF                 4524 	.db #0xff	; 255
   050D FF                 4525 	.db #0xff	; 255
   050E 30                 4526 	.db #0x30	; 48	'0'
   050F FF                 4527 	.db #0xff	; 255
   0510 78                 4528 	.db #0x78	; 120	'x'
   0511 FF                 4529 	.db #0xff	; 255
   0512 78                 4530 	.db #0x78	; 120	'x'
   0513 FF                 4531 	.db #0xff	; 255
   0514 FC                 4532 	.db #0xfc	; 252
   0515 FF                 4533 	.db #0xff	; 255
   0516 FC                 4534 	.db #0xfc	; 252
   0517 FE                 4535 	.db #0xfe	; 254
   0518 FF                 4536 	.db #0xff	; 255
   0519 FE                 4537 	.db #0xfe	; 254
   051A FF                 4538 	.db #0xff	; 255
   051B FF                 4539 	.db #0xff	; 255
   051C FF                 4540 	.db #0xff	; 255
   051D FF                 4541 	.db #0xff	; 255
   051E 3C                 4542 	.db #0x3c	; 60
   051F FF                 4543 	.db #0xff	; 255
   0520 7C                 4544 	.db #0x7c	; 124
   0521 FF                 4545 	.db #0xff	; 255
   0522 7C                 4546 	.db #0x7c	; 124
   0523 FF                 4547 	.db #0xff	; 255
   0524 FC                 4548 	.db #0xfc	; 252
   0525 FF                 4549 	.db #0xff	; 255
   0526 FC                 4550 	.db #0xfc	; 252
   0527 FF                 4551 	.db #0xff	; 255
   0528 FC                 4552 	.db #0xfc	; 252
   0529 FF                 4553 	.db #0xff	; 255
   052A FC                 4554 	.db #0xfc	; 252
   052B FF                 4555 	.db #0xff	; 255
   052C FC                 4556 	.db #0xfc	; 252
   052D FF                 4557 	.db #0xff	; 255
   052E 00                 4558 	.db #0x00	; 0
   052F FF                 4559 	.db #0xff	; 255
   0530 00                 4560 	.db #0x00	; 0
   0531 FF                 4561 	.db #0xff	; 255
   0532 00                 4562 	.db #0x00	; 0
   0533 FF                 4563 	.db #0xff	; 255
   0534 00                 4564 	.db #0x00	; 0
   0535 FF                 4565 	.db #0xff	; 255
   0536 00                 4566 	.db #0x00	; 0
   0537 FF                 4567 	.db #0xff	; 255
   0538 00                 4568 	.db #0x00	; 0
   0539 FF                 4569 	.db #0xff	; 255
   053A 00                 4570 	.db #0x00	; 0
   053B FF                 4571 	.db #0xff	; 255
   053C 07                 4572 	.db #0x07	; 7
   053D FF                 4573 	.db #0xff	; 255
   053E 00                 4574 	.db #0x00	; 0
   053F FF                 4575 	.db #0xff	; 255
   0540 00                 4576 	.db #0x00	; 0
   0541 FF                 4577 	.db #0xff	; 255
   0542 00                 4578 	.db #0x00	; 0
   0543 FF                 4579 	.db #0xff	; 255
   0544 00                 4580 	.db #0x00	; 0
   0545 FF                 4581 	.db #0xff	; 255
   0546 00                 4582 	.db #0x00	; 0
   0547 FF                 4583 	.db #0xff	; 255
   0548 00                 4584 	.db #0x00	; 0
   0549 FF                 4585 	.db #0xff	; 255
   054A 00                 4586 	.db #0x00	; 0
   054B FF                 4587 	.db #0xff	; 255
   054C E0                 4588 	.db #0xe0	; 224
   054D FF                 4589 	.db #0xff	; 255
   054E 00                 4590 	.db #0x00	; 0
   054F FF                 4591 	.db #0xff	; 255
   0550 00                 4592 	.db #0x00	; 0
   0551 FF                 4593 	.db #0xff	; 255
   0552 00                 4594 	.db #0x00	; 0
   0553 FF                 4595 	.db #0xff	; 255
   0554 00                 4596 	.db #0x00	; 0
   0555 FF                 4597 	.db #0xff	; 255
   0556 00                 4598 	.db #0x00	; 0
   0557 FF                 4599 	.db #0xff	; 255
   0558 00                 4600 	.db #0x00	; 0
   0559 FF                 4601 	.db #0xff	; 255
   055A 00                 4602 	.db #0x00	; 0
   055B FF                 4603 	.db #0xff	; 255
   055C 7E                 4604 	.db #0x7e	; 126
   055D FF                 4605 	.db #0xff	; 255
   055E 00                 4606 	.db #0x00	; 0
   055F FF                 4607 	.db #0xff	; 255
   0560 00                 4608 	.db #0x00	; 0
   0561 FF                 4609 	.db #0xff	; 255
   0562 00                 4610 	.db #0x00	; 0
   0563 FF                 4611 	.db #0xff	; 255
   0564 00                 4612 	.db #0x00	; 0
   0565 FF                 4613 	.db #0xff	; 255
   0566 00                 4614 	.db #0x00	; 0
   0567 FF                 4615 	.db #0xff	; 255
   0568 00                 4616 	.db #0x00	; 0
   0569 FF                 4617 	.db #0xff	; 255
   056A 00                 4618 	.db #0x00	; 0
   056B FF                 4619 	.db #0xff	; 255
   056C FF                 4620 	.db #0xff	; 255
   056D FF                 4621 	.db #0xff	; 255
   056E 00                 4622 	.db #0x00	; 0
   056F FF                 4623 	.db #0xff	; 255
   0570 00                 4624 	.db #0x00	; 0
   0571 FF                 4625 	.db #0xff	; 255
   0572 00                 4626 	.db #0x00	; 0
   0573 FF                 4627 	.db #0xff	; 255
   0574 00                 4628 	.db #0x00	; 0
   0575 FF                 4629 	.db #0xff	; 255
   0576 00                 4630 	.db #0x00	; 0
   0577 FF                 4631 	.db #0xff	; 255
   0578 00                 4632 	.db #0x00	; 0
   0579 FF                 4633 	.db #0xff	; 255
   057A 00                 4634 	.db #0x00	; 0
   057B FF                 4635 	.db #0xff	; 255
   057C 03                 4636 	.db #0x03	; 3
   057D FF                 4637 	.db #0xff	; 255
   057E 00                 4638 	.db #0x00	; 0
   057F FF                 4639 	.db #0xff	; 255
   0580 00                 4640 	.db #0x00	; 0
   0581 FF                 4641 	.db #0xff	; 255
   0582 00                 4642 	.db #0x00	; 0
   0583 FF                 4643 	.db #0xff	; 255
   0584 00                 4644 	.db #0x00	; 0
   0585 FF                 4645 	.db #0xff	; 255
   0586 00                 4646 	.db #0x00	; 0
   0587 FF                 4647 	.db #0xff	; 255
   0588 00                 4648 	.db #0x00	; 0
   0589 FF                 4649 	.db #0xff	; 255
   058A 00                 4650 	.db #0x00	; 0
   058B FF                 4651 	.db #0xff	; 255
   058C F0                 4652 	.db #0xf0	; 240
   058D FF                 4653 	.db #0xff	; 255
   058E 7F                 4654 	.db #0x7f	; 127
   058F FF                 4655 	.db #0xff	; 255
   0590 7F                 4656 	.db #0x7f	; 127
   0591 FF                 4657 	.db #0xff	; 255
   0592 7F                 4658 	.db #0x7f	; 127
   0593 FF                 4659 	.db #0xff	; 255
   0594 7F                 4660 	.db #0x7f	; 127
   0595 FF                 4661 	.db #0xff	; 255
   0596 7F                 4662 	.db #0x7f	; 127
   0597 FF                 4663 	.db #0xff	; 255
   0598 7F                 4664 	.db #0x7f	; 127
   0599 FF                 4665 	.db #0xff	; 255
   059A 7F                 4666 	.db #0x7f	; 127
   059B FF                 4667 	.db #0xff	; 255
   059C 7F                 4668 	.db #0x7f	; 127
   059D 03                 4669 	.db #0x03	; 3
   059E FF                 4670 	.db #0xff	; 255
   059F 87                 4671 	.db #0x87	; 135
   05A0 FF                 4672 	.db #0xff	; 255
   05A1 87                 4673 	.db #0x87	; 135
   05A2 FF                 4674 	.db #0xff	; 255
   05A3 CF                 4675 	.db #0xcf	; 207
   05A4 FF                 4676 	.db #0xff	; 255
   05A5 CF                 4677 	.db #0xcf	; 207
   05A6 FF                 4678 	.db #0xff	; 255
   05A7 FF                 4679 	.db #0xff	; 255
   05A8 FF                 4680 	.db #0xff	; 255
   05A9 FF                 4681 	.db #0xff	; 255
   05AA FF                 4682 	.db #0xff	; 255
   05AB FF                 4683 	.db #0xff	; 255
   05AC FF                 4684 	.db #0xff	; 255
   05AD FF                 4685 	.db #0xff	; 255
   05AE FF                 4686 	.db #0xff	; 255
   05AF FF                 4687 	.db #0xff	; 255
   05B0 FF                 4688 	.db #0xff	; 255
   05B1 FF                 4689 	.db #0xff	; 255
   05B2 FF                 4690 	.db #0xff	; 255
   05B3 FF                 4691 	.db #0xff	; 255
   05B4 FF                 4692 	.db #0xff	; 255
   05B5 FF                 4693 	.db #0xff	; 255
   05B6 FF                 4694 	.db #0xff	; 255
   05B7 FF                 4695 	.db #0xff	; 255
   05B8 FF                 4696 	.db #0xff	; 255
   05B9 FF                 4697 	.db #0xff	; 255
   05BA FF                 4698 	.db #0xff	; 255
   05BB FF                 4699 	.db #0xff	; 255
   05BC FF                 4700 	.db #0xff	; 255
   05BD FF                 4701 	.db #0xff	; 255
   05BE FC                 4702 	.db #0xfc	; 252
   05BF FF                 4703 	.db #0xff	; 255
   05C0 FC                 4704 	.db #0xfc	; 252
   05C1 FF                 4705 	.db #0xff	; 255
   05C2 FC                 4706 	.db #0xfc	; 252
   05C3 FF                 4707 	.db #0xff	; 255
   05C4 FC                 4708 	.db #0xfc	; 252
   05C5 FF                 4709 	.db #0xff	; 255
   05C6 FC                 4710 	.db #0xfc	; 252
   05C7 FF                 4711 	.db #0xff	; 255
   05C8 FC                 4712 	.db #0xfc	; 252
   05C9 FF                 4713 	.db #0xff	; 255
   05CA FC                 4714 	.db #0xfc	; 252
   05CB FF                 4715 	.db #0xff	; 255
   05CC FC                 4716 	.db #0xfc	; 252
   05CD FF                 4717 	.db #0xff	; 255
   05CE 07                 4718 	.db #0x07	; 7
   05CF FF                 4719 	.db #0xff	; 255
   05D0 07                 4720 	.db #0x07	; 7
   05D1 FF                 4721 	.db #0xff	; 255
   05D2 07                 4722 	.db #0x07	; 7
   05D3 FF                 4723 	.db #0xff	; 255
   05D4 07                 4724 	.db #0x07	; 7
   05D5 FF                 4725 	.db #0xff	; 255
   05D6 07                 4726 	.db #0x07	; 7
   05D7 FF                 4727 	.db #0xff	; 255
   05D8 07                 4728 	.db #0x07	; 7
   05D9 FF                 4729 	.db #0xff	; 255
   05DA 00                 4730 	.db #0x00	; 0
   05DB FF                 4731 	.db #0xff	; 255
   05DC 00                 4732 	.db #0x00	; 0
   05DD FF                 4733 	.db #0xff	; 255
   05DE E0                 4734 	.db #0xe0	; 224
   05DF FF                 4735 	.db #0xff	; 255
   05E0 E0                 4736 	.db #0xe0	; 224
   05E1 FF                 4737 	.db #0xff	; 255
   05E2 E0                 4738 	.db #0xe0	; 224
   05E3 FF                 4739 	.db #0xff	; 255
   05E4 E0                 4740 	.db #0xe0	; 224
   05E5 FF                 4741 	.db #0xff	; 255
   05E6 E0                 4742 	.db #0xe0	; 224
   05E7 FF                 4743 	.db #0xff	; 255
   05E8 E0                 4744 	.db #0xe0	; 224
   05E9 FF                 4745 	.db #0xff	; 255
   05EA FF                 4746 	.db #0xff	; 255
   05EB FF                 4747 	.db #0xff	; 255
   05EC FF                 4748 	.db #0xff	; 255
   05ED FF                 4749 	.db #0xff	; 255
   05EE 7E                 4750 	.db #0x7e	; 126
   05EF FF                 4751 	.db #0xff	; 255
   05F0 7E                 4752 	.db #0x7e	; 126
   05F1 FF                 4753 	.db #0xff	; 255
   05F2 7E                 4754 	.db #0x7e	; 126
   05F3 FF                 4755 	.db #0xff	; 255
   05F4 7E                 4756 	.db #0x7e	; 126
   05F5 FF                 4757 	.db #0xff	; 255
   05F6 7E                 4758 	.db #0x7e	; 126
   05F7 FF                 4759 	.db #0xff	; 255
   05F8 7E                 4760 	.db #0x7e	; 126
   05F9 FF                 4761 	.db #0xff	; 255
   05FA F0                 4762 	.db #0xf0	; 240
   05FB FF                 4763 	.db #0xff	; 255
   05FC F0                 4764 	.db #0xf0	; 240
   05FD FF                 4765 	.db #0xff	; 255
   05FE 07                 4766 	.db #0x07	; 7
   05FF FF                 4767 	.db #0xff	; 255
   0600 07                 4768 	.db #0x07	; 7
   0601 FF                 4769 	.db #0xff	; 255
   0602 7F                 4770 	.db #0x7f	; 127
   0603 FF                 4771 	.db #0xff	; 255
   0604 7F                 4772 	.db #0x7f	; 127
   0605 FF                 4773 	.db #0xff	; 255
   0606 7F                 4774 	.db #0x7f	; 127
   0607 FF                 4775 	.db #0xff	; 255
   0608 7F                 4776 	.db #0x7f	; 127
   0609 FF                 4777 	.db #0xff	; 255
   060A 7F                 4778 	.db #0x7f	; 127
   060B FF                 4779 	.db #0xff	; 255
   060C 7F                 4780 	.db #0x7f	; 127
   060D FF                 4781 	.db #0xff	; 255
   060E FF                 4782 	.db #0xff	; 255
   060F FF                 4783 	.db #0xff	; 255
   0610 FF                 4784 	.db #0xff	; 255
   0611 FF                 4785 	.db #0xff	; 255
   0612 00                 4786 	.db #0x00	; 0
   0613 FF                 4787 	.db #0xff	; 255
   0614 00                 4788 	.db #0x00	; 0
   0615 FF                 4789 	.db #0xff	; 255
   0616 00                 4790 	.db #0x00	; 0
   0617 FF                 4791 	.db #0xff	; 255
   0618 00                 4792 	.db #0x00	; 0
   0619 FF                 4793 	.db #0xff	; 255
   061A 00                 4794 	.db #0x00	; 0
   061B FF                 4795 	.db #0xff	; 255
   061C 00                 4796 	.db #0x00	; 0
   061D FF                 4797 	.db #0xff	; 255
   061E E0                 4798 	.db #0xe0	; 224
   061F FF                 4799 	.db #0xff	; 255
   0620 E0                 4800 	.db #0xe0	; 224
   0621 FF                 4801 	.db #0xff	; 255
   0622 FC                 4802 	.db #0xfc	; 252
   0623 FF                 4803 	.db #0xff	; 255
   0624 FC                 4804 	.db #0xfc	; 252
   0625 FF                 4805 	.db #0xff	; 255
   0626 FC                 4806 	.db #0xfc	; 252
   0627 FF                 4807 	.db #0xff	; 255
   0628 FC                 4808 	.db #0xfc	; 252
   0629 FF                 4809 	.db #0xff	; 255
   062A FC                 4810 	.db #0xfc	; 252
   062B FF                 4811 	.db #0xff	; 255
   062C FC                 4812 	.db #0xfc	; 252
   062D FF                 4813 	.db #0xff	; 255
   062E E0                 4814 	.db #0xe0	; 224
   062F FF                 4815 	.db #0xff	; 255
   0630 E0                 4816 	.db #0xe0	; 224
   0631 FF                 4817 	.db #0xff	; 255
   0632 E0                 4818 	.db #0xe0	; 224
   0633 FF                 4819 	.db #0xff	; 255
   0634 E0                 4820 	.db #0xe0	; 224
   0635 FF                 4821 	.db #0xff	; 255
   0636 E0                 4822 	.db #0xe0	; 224
   0637 FF                 4823 	.db #0xff	; 255
   0638 E0                 4824 	.db #0xe0	; 224
   0639 FF                 4825 	.db #0xff	; 255
   063A E0                 4826 	.db #0xe0	; 224
   063B FF                 4827 	.db #0xff	; 255
   063C E0                 4828 	.db #0xe0	; 224
   063D FF                 4829 	.db #0xff	; 255
   063E 03                 4830 	.db #0x03	; 3
   063F FF                 4831 	.db #0xff	; 255
   0640 03                 4832 	.db #0x03	; 3
   0641 FF                 4833 	.db #0xff	; 255
   0642 03                 4834 	.db #0x03	; 3
   0643 FF                 4835 	.db #0xff	; 255
   0644 03                 4836 	.db #0x03	; 3
   0645 FF                 4837 	.db #0xff	; 255
   0646 03                 4838 	.db #0x03	; 3
   0647 FF                 4839 	.db #0xff	; 255
   0648 03                 4840 	.db #0x03	; 3
   0649 FF                 4841 	.db #0xff	; 255
   064A 03                 4842 	.db #0x03	; 3
   064B FF                 4843 	.db #0xff	; 255
   064C 03                 4844 	.db #0x03	; 3
   064D FF                 4845 	.db #0xff	; 255
   064E F0                 4846 	.db #0xf0	; 240
   064F FF                 4847 	.db #0xff	; 255
   0650 F0                 4848 	.db #0xf0	; 240
   0651 FF                 4849 	.db #0xff	; 255
   0652 F0                 4850 	.db #0xf0	; 240
   0653 FF                 4851 	.db #0xff	; 255
   0654 F0                 4852 	.db #0xf0	; 240
   0655 FF                 4853 	.db #0xff	; 255
   0656 F0                 4854 	.db #0xf0	; 240
   0657 FF                 4855 	.db #0xff	; 255
   0658 F0                 4856 	.db #0xf0	; 240
   0659 FF                 4857 	.db #0xff	; 255
   065A F0                 4858 	.db #0xf0	; 240
   065B FF                 4859 	.db #0xff	; 255
   065C F0                 4860 	.db #0xf0	; 240
   065D FF                 4861 	.db #0xff	; 255
   065E FF                 4862 	.db #0xff	; 255
   065F FF                 4863 	.db #0xff	; 255
   0660 FF                 4864 	.db #0xff	; 255
   0661 FF                 4865 	.db #0xff	; 255
   0662 1F                 4866 	.db #0x1f	; 31
   0663 FF                 4867 	.db #0xff	; 255
   0664 1F                 4868 	.db #0x1f	; 31
   0665 FF                 4869 	.db #0xff	; 255
   0666 1F                 4870 	.db #0x1f	; 31
   0667 FF                 4871 	.db #0xff	; 255
   0668 1F                 4872 	.db #0x1f	; 31
   0669 FF                 4873 	.db #0xff	; 255
   066A 1F                 4874 	.db #0x1f	; 31
   066B FF                 4875 	.db #0xff	; 255
   066C 1F                 4876 	.db #0x1f	; 31
   066D FF                 4877 	.db #0xff	; 255
   066E F0                 4878 	.db #0xf0	; 240
   066F FF                 4879 	.db #0xff	; 255
   0670 F0                 4880 	.db #0xf0	; 240
   0671 FF                 4881 	.db #0xff	; 255
   0672 80                 4882 	.db #0x80	; 128
   0673 FF                 4883 	.db #0xff	; 255
   0674 80                 4884 	.db #0x80	; 128
   0675 FF                 4885 	.db #0xff	; 255
   0676 80                 4886 	.db #0x80	; 128
   0677 FF                 4887 	.db #0xff	; 255
   0678 80                 4888 	.db #0x80	; 128
   0679 FF                 4889 	.db #0xff	; 255
   067A 80                 4890 	.db #0x80	; 128
   067B FF                 4891 	.db #0xff	; 255
   067C 80                 4892 	.db #0x80	; 128
   067D FF                 4893 	.db #0xff	; 255
   067E 03                 4894 	.db #0x03	; 3
   067F FF                 4895 	.db #0xff	; 255
   0680 03                 4896 	.db #0x03	; 3
   0681 FF                 4897 	.db #0xff	; 255
   0682 03                 4898 	.db #0x03	; 3
   0683 FF                 4899 	.db #0xff	; 255
   0684 03                 4900 	.db #0x03	; 3
   0685 FF                 4901 	.db #0xff	; 255
   0686 03                 4902 	.db #0x03	; 3
   0687 FF                 4903 	.db #0xff	; 255
   0688 3F                 4904 	.db #0x3f	; 63
   0689 FF                 4905 	.db #0xff	; 255
   068A 3F                 4906 	.db #0x3f	; 63
   068B FF                 4907 	.db #0xff	; 255
   068C 3F                 4908 	.db #0x3f	; 63
   068D FF                 4909 	.db #0xff	; 255
   068E 7F                 4910 	.db #0x7f	; 127
   068F FF                 4911 	.db #0xff	; 255
   0690 7F                 4912 	.db #0x7f	; 127
   0691 FF                 4913 	.db #0xff	; 255
   0692 7F                 4914 	.db #0x7f	; 127
   0693 FF                 4915 	.db #0xff	; 255
   0694 7F                 4916 	.db #0x7f	; 127
   0695 FF                 4917 	.db #0xff	; 255
   0696 00                 4918 	.db #0x00	; 0
   0697 FF                 4919 	.db #0xff	; 255
   0698 00                 4920 	.db #0x00	; 0
   0699 FF                 4921 	.db #0xff	; 255
   069A 00                 4922 	.db #0x00	; 0
   069B FF                 4923 	.db #0xff	; 255
   069C 7F                 4924 	.db #0x7f	; 127
   069D FF                 4925 	.db #0xff	; 255
   069E FF                 4926 	.db #0xff	; 255
   069F FF                 4927 	.db #0xff	; 255
   06A0 FF                 4928 	.db #0xff	; 255
   06A1 FF                 4929 	.db #0xff	; 255
   06A2 FF                 4930 	.db #0xff	; 255
   06A3 FF                 4931 	.db #0xff	; 255
   06A4 FF                 4932 	.db #0xff	; 255
   06A5 FF                 4933 	.db #0xff	; 255
   06A6 00                 4934 	.db #0x00	; 0
   06A7 FF                 4935 	.db #0xff	; 255
   06A8 00                 4936 	.db #0x00	; 0
   06A9 FF                 4937 	.db #0xff	; 255
   06AA 00                 4938 	.db #0x00	; 0
   06AB FF                 4939 	.db #0xff	; 255
   06AC FF                 4940 	.db #0xff	; 255
   06AD FF                 4941 	.db #0xff	; 255
   06AE FC                 4942 	.db #0xfc	; 252
   06AF FF                 4943 	.db #0xff	; 255
   06B0 FC                 4944 	.db #0xfc	; 252
   06B1 FF                 4945 	.db #0xff	; 255
   06B2 FC                 4946 	.db #0xfc	; 252
   06B3 FF                 4947 	.db #0xff	; 255
   06B4 FC                 4948 	.db #0xfc	; 252
   06B5 FF                 4949 	.db #0xff	; 255
   06B6 00                 4950 	.db #0x00	; 0
   06B7 FF                 4951 	.db #0xff	; 255
   06B8 00                 4952 	.db #0x00	; 0
   06B9 FF                 4953 	.db #0xff	; 255
   06BA 00                 4954 	.db #0x00	; 0
   06BB FF                 4955 	.db #0xff	; 255
   06BC FC                 4956 	.db #0xfc	; 252
   06BD FF                 4957 	.db #0xff	; 255
   06BE 1F                 4958 	.db #0x1f	; 31
   06BF FF                 4959 	.db #0xff	; 255
   06C0 1F                 4960 	.db #0x1f	; 31
   06C1 FF                 4961 	.db #0xff	; 255
   06C2 1F                 4962 	.db #0x1f	; 31
   06C3 FF                 4963 	.db #0xff	; 255
   06C4 1F                 4964 	.db #0x1f	; 31
   06C5 FF                 4965 	.db #0xff	; 255
   06C6 00                 4966 	.db #0x00	; 0
   06C7 FF                 4967 	.db #0xff	; 255
   06C8 00                 4968 	.db #0x00	; 0
   06C9 FF                 4969 	.db #0xff	; 255
   06CA 00                 4970 	.db #0x00	; 0
   06CB FF                 4971 	.db #0xff	; 255
   06CC 00                 4972 	.db #0x00	; 0
   06CD FF                 4973 	.db #0xff	; 255
   06CE 80                 4974 	.db #0x80	; 128
   06CF FF                 4975 	.db #0xff	; 255
   06D0 80                 4976 	.db #0x80	; 128
   06D1 FF                 4977 	.db #0xff	; 255
   06D2 80                 4978 	.db #0x80	; 128
   06D3 FF                 4979 	.db #0xff	; 255
   06D4 80                 4980 	.db #0x80	; 128
   06D5 FF                 4981 	.db #0xff	; 255
   06D6 00                 4982 	.db #0x00	; 0
   06D7 FF                 4983 	.db #0xff	; 255
   06D8 00                 4984 	.db #0x00	; 0
   06D9 FF                 4985 	.db #0xff	; 255
   06DA 00                 4986 	.db #0x00	; 0
   06DB FF                 4987 	.db #0xff	; 255
   06DC 00                 4988 	.db #0x00	; 0
   06DD FF                 4989 	.db #0xff	; 255
   06DE 07                 4990 	.db #0x07	; 7
   06DF FF                 4991 	.db #0xff	; 255
   06E0 07                 4992 	.db #0x07	; 7
   06E1 FF                 4993 	.db #0xff	; 255
   06E2 07                 4994 	.db #0x07	; 7
   06E3 FF                 4995 	.db #0xff	; 255
   06E4 07                 4996 	.db #0x07	; 7
   06E5 FF                 4997 	.db #0xff	; 255
   06E6 00                 4998 	.db #0x00	; 0
   06E7 FF                 4999 	.db #0xff	; 255
   06E8 00                 5000 	.db #0x00	; 0
   06E9 FF                 5001 	.db #0xff	; 255
   06EA 00                 5002 	.db #0x00	; 0
   06EB FF                 5003 	.db #0xff	; 255
   06EC 00                 5004 	.db #0x00	; 0
   06ED FF                 5005 	.db #0xff	; 255
   06EE FF                 5006 	.db #0xff	; 255
   06EF FF                 5007 	.db #0xff	; 255
   06F0 FF                 5008 	.db #0xff	; 255
   06F1 FF                 5009 	.db #0xff	; 255
   06F2 FF                 5010 	.db #0xff	; 255
   06F3 FF                 5011 	.db #0xff	; 255
   06F4 FF                 5012 	.db #0xff	; 255
   06F5 FF                 5013 	.db #0xff	; 255
   06F6 00                 5014 	.db #0x00	; 0
   06F7 FF                 5015 	.db #0xff	; 255
   06F8 00                 5016 	.db #0x00	; 0
   06F9 FF                 5017 	.db #0xff	; 255
   06FA 00                 5018 	.db #0x00	; 0
   06FB FF                 5019 	.db #0xff	; 255
   06FC 00                 5020 	.db #0x00	; 0
   06FD FF                 5021 	.db #0xff	; 255
   06FE E0                 5022 	.db #0xe0	; 224
   06FF FF                 5023 	.db #0xff	; 255
   0700 E0                 5024 	.db #0xe0	; 224
   0701 FF                 5025 	.db #0xff	; 255
   0702 E0                 5026 	.db #0xe0	; 224
   0703 FF                 5027 	.db #0xff	; 255
   0704 E0                 5028 	.db #0xe0	; 224
   0705 FF                 5029 	.db #0xff	; 255
   0706 00                 5030 	.db #0x00	; 0
   0707 FF                 5031 	.db #0xff	; 255
   0708 00                 5032 	.db #0x00	; 0
   0709 FF                 5033 	.db #0xff	; 255
   070A 00                 5034 	.db #0x00	; 0
   070B FF                 5035 	.db #0xff	; 255
   070C 00                 5036 	.db #0x00	; 0
   070D FF                 5037 	.db #0xff	; 255
   070E E0                 5038 	.db #0xe0	; 224
   070F FF                 5039 	.db #0xff	; 255
   0710 1F                 5040 	.db #0x1f	; 31
   0711 FF                 5041 	.db #0xff	; 255
   0712 1F                 5042 	.db #0x1f	; 31
   0713 FF                 5043 	.db #0xff	; 255
   0714 1F                 5044 	.db #0x1f	; 31
   0715 FF                 5045 	.db #0xff	; 255
   0716 00                 5046 	.db #0x00	; 0
   0717 FF                 5047 	.db #0xff	; 255
   0718 00                 5048 	.db #0x00	; 0
   0719 FF                 5049 	.db #0xff	; 255
   071A 00                 5050 	.db #0x00	; 0
   071B FF                 5051 	.db #0xff	; 255
   071C 00                 5052 	.db #0x00	; 0
   071D FF                 5053 	.db #0xff	; 255
   071E 3F                 5054 	.db #0x3f	; 63
   071F FF                 5055 	.db #0xff	; 255
   0720 FF                 5056 	.db #0xff	; 255
   0721 FF                 5057 	.db #0xff	; 255
   0722 FF                 5058 	.db #0xff	; 255
   0723 FF                 5059 	.db #0xff	; 255
   0724 FF                 5060 	.db #0xff	; 255
   0725 FF                 5061 	.db #0xff	; 255
   0726 00                 5062 	.db #0x00	; 0
   0727 FF                 5063 	.db #0xff	; 255
   0728 00                 5064 	.db #0x00	; 0
   0729 FF                 5065 	.db #0xff	; 255
   072A 00                 5066 	.db #0x00	; 0
   072B FF                 5067 	.db #0xff	; 255
   072C 00                 5068 	.db #0x00	; 0
   072D FF                 5069 	.db #0xff	; 255
   072E F0                 5070 	.db #0xf0	; 240
   072F FF                 5071 	.db #0xff	; 255
   0730 80                 5072 	.db #0x80	; 128
   0731 FF                 5073 	.db #0xff	; 255
   0732 80                 5074 	.db #0x80	; 128
   0733 FF                 5075 	.db #0xff	; 255
   0734 80                 5076 	.db #0x80	; 128
   0735 FF                 5077 	.db #0xff	; 255
   0736 00                 5078 	.db #0x00	; 0
   0737 FF                 5079 	.db #0xff	; 255
   0738 00                 5080 	.db #0x00	; 0
   0739 FF                 5081 	.db #0xff	; 255
   073A 00                 5082 	.db #0x00	; 0
   073B FF                 5083 	.db #0xff	; 255
   073C 00                 5084 	.db #0x00	; 0
   073D FF                 5085 	.db #0xff	; 255
   073E FF                 5086 	.db #0xff	; 255
   073F FF                 5087 	.db #0xff	; 255
   0740 FF                 5088 	.db #0xff	; 255
   0741 FF                 5089 	.db #0xff	; 255
   0742 FF                 5090 	.db #0xff	; 255
   0743 F0                 5091 	.db #0xf0	; 240
   0744 FF                 5092 	.db #0xff	; 255
   0745 F0                 5093 	.db #0xf0	; 240
   0746 FF                 5094 	.db #0xff	; 255
   0747 F0                 5095 	.db #0xf0	; 240
   0748 FF                 5096 	.db #0xff	; 255
   0749 F0                 5097 	.db #0xf0	; 240
   074A FF                 5098 	.db #0xff	; 255
   074B F0                 5099 	.db #0xf0	; 240
   074C FF                 5100 	.db #0xff	; 255
   074D FF                 5101 	.db #0xff	; 255
   074E FF                 5102 	.db #0xff	; 255
   074F FF                 5103 	.db #0xff	; 255
   0750 FF                 5104 	.db #0xff	; 255
   0751 FF                 5105 	.db #0xff	; 255
   0752 FF                 5106 	.db #0xff	; 255
   0753 00                 5107 	.db #0x00	; 0
   0754 FF                 5108 	.db #0xff	; 255
   0755 00                 5109 	.db #0x00	; 0
   0756 FF                 5110 	.db #0xff	; 255
   0757 00                 5111 	.db #0x00	; 0
   0758 FF                 5112 	.db #0xff	; 255
   0759 00                 5113 	.db #0x00	; 0
   075A FF                 5114 	.db #0xff	; 255
   075B 00                 5115 	.db #0x00	; 0
   075C FF                 5116 	.db #0xff	; 255
   075D FF                 5117 	.db #0xff	; 255
   075E FF                 5118 	.db #0xff	; 255
   075F FF                 5119 	.db #0xff	; 255
   0760 FF                 5120 	.db #0xff	; 255
   0761 FF                 5121 	.db #0xff	; 255
   0762 FF                 5122 	.db #0xff	; 255
   0763 1F                 5123 	.db #0x1f	; 31
   0764 E0                 5124 	.db #0xe0	; 224
   0765 1F                 5125 	.db #0x1f	; 31
   0766 E0                 5126 	.db #0xe0	; 224
   0767 1F                 5127 	.db #0x1f	; 31
   0768 E0                 5128 	.db #0xe0	; 224
   0769 1F                 5129 	.db #0x1f	; 31
   076A E0                 5130 	.db #0xe0	; 224
   076B 1F                 5131 	.db #0x1f	; 31
   076C E0                 5132 	.db #0xe0	; 224
   076D FF                 5133 	.db #0xff	; 255
   076E FF                 5134 	.db #0xff	; 255
   076F FF                 5135 	.db #0xff	; 255
   0770 FF                 5136 	.db #0xff	; 255
   0771 FF                 5137 	.db #0xff	; 255
   0772 FF                 5138 	.db #0xff	; 255
   0773 FC                 5139 	.db #0xfc	; 252
   0774 03                 5140 	.db #0x03	; 3
   0775 FC                 5141 	.db #0xfc	; 252
   0776 03                 5142 	.db #0x03	; 3
   0777 FC                 5143 	.db #0xfc	; 252
   0778 03                 5144 	.db #0x03	; 3
   0779 FC                 5145 	.db #0xfc	; 252
   077A 03                 5146 	.db #0x03	; 3
   077B FC                 5147 	.db #0xfc	; 252
   077C 03                 5148 	.db #0x03	; 3
   077D FF                 5149 	.db #0xff	; 255
   077E FF                 5150 	.db #0xff	; 255
   077F FF                 5151 	.db #0xff	; 255
   0780 FF                 5152 	.db #0xff	; 255
   0781 FF                 5153 	.db #0xff	; 255
   0782 FF                 5154 	.db #0xff	; 255
   0783 7F                 5155 	.db #0x7f	; 127
   0784 FF                 5156 	.db #0xff	; 255
   0785 7F                 5157 	.db #0x7f	; 127
   0786 FF                 5158 	.db #0xff	; 255
   0787 7F                 5159 	.db #0x7f	; 127
   0788 FF                 5160 	.db #0xff	; 255
   0789 7F                 5161 	.db #0x7f	; 127
   078A FF                 5162 	.db #0xff	; 255
   078B 7F                 5163 	.db #0x7f	; 127
   078C FF                 5164 	.db #0xff	; 255
   078D FF                 5165 	.db #0xff	; 255
   078E 00                 5166 	.db #0x00	; 0
   078F FF                 5167 	.db #0xff	; 255
   0790 00                 5168 	.db #0x00	; 0
   0791 FF                 5169 	.db #0xff	; 255
   0792 07                 5170 	.db #0x07	; 7
   0793 FF                 5171 	.db #0xff	; 255
   0794 07                 5172 	.db #0x07	; 7
   0795 FF                 5173 	.db #0xff	; 255
   0796 07                 5174 	.db #0x07	; 7
   0797 FF                 5175 	.db #0xff	; 255
   0798 07                 5176 	.db #0x07	; 7
   0799 FF                 5177 	.db #0xff	; 255
   079A 07                 5178 	.db #0x07	; 7
   079B FF                 5179 	.db #0xff	; 255
   079C 07                 5180 	.db #0x07	; 7
   079D FF                 5181 	.db #0xff	; 255
   079E 00                 5182 	.db #0x00	; 0
   079F FF                 5183 	.db #0xff	; 255
   07A0 00                 5184 	.db #0x00	; 0
   07A1 FF                 5185 	.db #0xff	; 255
   07A2 80                 5186 	.db #0x80	; 128
   07A3 FF                 5187 	.db #0xff	; 255
   07A4 80                 5188 	.db #0x80	; 128
   07A5 FF                 5189 	.db #0xff	; 255
   07A6 80                 5190 	.db #0x80	; 128
   07A7 FF                 5191 	.db #0xff	; 255
   07A8 80                 5192 	.db #0x80	; 128
   07A9 FF                 5193 	.db #0xff	; 255
   07AA 80                 5194 	.db #0x80	; 128
   07AB FF                 5195 	.db #0xff	; 255
   07AC 80                 5196 	.db #0x80	; 128
   07AD FF                 5197 	.db #0xff	; 255
   07AE 00                 5198 	.db #0x00	; 0
   07AF FF                 5199 	.db #0xff	; 255
   07B0 00                 5200 	.db #0x00	; 0
   07B1 FF                 5201 	.db #0xff	; 255
   07B2 1F                 5202 	.db #0x1f	; 31
   07B3 FF                 5203 	.db #0xff	; 255
   07B4 1F                 5204 	.db #0x1f	; 31
   07B5 FF                 5205 	.db #0xff	; 255
   07B6 1F                 5206 	.db #0x1f	; 31
   07B7 FF                 5207 	.db #0xff	; 255
   07B8 1F                 5208 	.db #0x1f	; 31
   07B9 FF                 5209 	.db #0xff	; 255
   07BA 1F                 5210 	.db #0x1f	; 31
   07BB FF                 5211 	.db #0xff	; 255
   07BC 1F                 5212 	.db #0x1f	; 31
   07BD FF                 5213 	.db #0xff	; 255
   07BE 00                 5214 	.db #0x00	; 0
   07BF FF                 5215 	.db #0xff	; 255
   07C0 00                 5216 	.db #0x00	; 0
   07C1 FF                 5217 	.db #0xff	; 255
   07C2 C0                 5218 	.db #0xc0	; 192
   07C3 FF                 5219 	.db #0xff	; 255
   07C4 C0                 5220 	.db #0xc0	; 192
   07C5 FF                 5221 	.db #0xff	; 255
   07C6 C0                 5222 	.db #0xc0	; 192
   07C7 FF                 5223 	.db #0xff	; 255
   07C8 CF                 5224 	.db #0xcf	; 207
   07C9 FF                 5225 	.db #0xff	; 255
   07CA CF                 5226 	.db #0xcf	; 207
   07CB FF                 5227 	.db #0xff	; 255
   07CC CF                 5228 	.db #0xcf	; 207
   07CD FF                 5229 	.db #0xff	; 255
   07CE 00                 5230 	.db #0x00	; 0
   07CF FF                 5231 	.db #0xff	; 255
   07D0 00                 5232 	.db #0x00	; 0
   07D1 FF                 5233 	.db #0xff	; 255
   07D2 FF                 5234 	.db #0xff	; 255
   07D3 FF                 5235 	.db #0xff	; 255
   07D4 FF                 5236 	.db #0xff	; 255
   07D5 FF                 5237 	.db #0xff	; 255
   07D6 FF                 5238 	.db #0xff	; 255
   07D7 FF                 5239 	.db #0xff	; 255
   07D8 E0                 5240 	.db #0xe0	; 224
   07D9 FF                 5241 	.db #0xff	; 255
   07DA E0                 5242 	.db #0xe0	; 224
   07DB FF                 5243 	.db #0xff	; 255
   07DC E0                 5244 	.db #0xe0	; 224
   07DD FF                 5245 	.db #0xff	; 255
   07DE 00                 5246 	.db #0x00	; 0
   07DF FF                 5247 	.db #0xff	; 255
   07E0 00                 5248 	.db #0x00	; 0
   07E1 FF                 5249 	.db #0xff	; 255
   07E2 FC                 5250 	.db #0xfc	; 252
   07E3 FF                 5251 	.db #0xff	; 255
   07E4 FC                 5252 	.db #0xfc	; 252
   07E5 FF                 5253 	.db #0xff	; 255
   07E6 FC                 5254 	.db #0xfc	; 252
   07E7 FF                 5255 	.db #0xff	; 255
   07E8 1F                 5256 	.db #0x1f	; 31
   07E9 FF                 5257 	.db #0xff	; 255
   07EA 1F                 5258 	.db #0x1f	; 31
   07EB FF                 5259 	.db #0xff	; 255
   07EC 1F                 5260 	.db #0x1f	; 31
   07ED FF                 5261 	.db #0xff	; 255
   07EE 00                 5262 	.db #0x00	; 0
   07EF FF                 5263 	.db #0xff	; 255
   07F0 00                 5264 	.db #0x00	; 0
   07F1 FF                 5265 	.db #0xff	; 255
   07F2 1C                 5266 	.db #0x1c	; 28
   07F3 FF                 5267 	.db #0xff	; 255
   07F4 1C                 5268 	.db #0x1c	; 28
   07F5 FF                 5269 	.db #0xff	; 255
   07F6 1C                 5270 	.db #0x1c	; 28
   07F7 FF                 5271 	.db #0xff	; 255
   07F8 9C                 5272 	.db #0x9c	; 156
   07F9 FF                 5273 	.db #0xff	; 255
   07FA 9F                 5274 	.db #0x9f	; 159
   07FB FF                 5275 	.db #0xff	; 255
   07FC 9F                 5276 	.db #0x9f	; 159
   07FD FF                 5277 	.db #0xff	; 255
   07FE 00                 5278 	.db #0x00	; 0
   07FF FF                 5279 	.db #0xff	; 255
   0800 00                 5280 	.db #0x00	; 0
   0801 FF                 5281 	.db #0xff	; 255
   0802 00                 5282 	.db #0x00	; 0
   0803 FF                 5283 	.db #0xff	; 255
   0804 00                 5284 	.db #0x00	; 0
   0805 FF                 5285 	.db #0xff	; 255
   0806 00                 5286 	.db #0x00	; 0
   0807 FF                 5287 	.db #0xff	; 255
   0808 00                 5288 	.db #0x00	; 0
   0809 FF                 5289 	.db #0xff	; 255
   080A C0                 5290 	.db #0xc0	; 192
   080B FF                 5291 	.db #0xff	; 255
   080C C0                 5292 	.db #0xc0	; 192
   080D FF                 5293 	.db #0xff	; 255
   080E 00                 5294 	.db #0x00	; 0
   080F FF                 5295 	.db #0xff	; 255
   0810 00                 5296 	.db #0x00	; 0
   0811 FF                 5297 	.db #0xff	; 255
   0812 7F                 5298 	.db #0x7f	; 127
   0813 FF                 5299 	.db #0xff	; 255
   0814 7F                 5300 	.db #0x7f	; 127
   0815 FF                 5301 	.db #0xff	; 255
   0816 7F                 5302 	.db #0x7f	; 127
   0817 FF                 5303 	.db #0xff	; 255
   0818 7F                 5304 	.db #0x7f	; 127
   0819 FF                 5305 	.db #0xff	; 255
   081A 7F                 5306 	.db #0x7f	; 127
   081B FF                 5307 	.db #0xff	; 255
   081C 7F                 5308 	.db #0x7f	; 127
   081D F0                 5309 	.db #0xf0	; 240
   081E FF                 5310 	.db #0xff	; 255
   081F F0                 5311 	.db #0xf0	; 240
   0820 FF                 5312 	.db #0xff	; 255
   0821 F0                 5313 	.db #0xf0	; 240
   0822 FF                 5314 	.db #0xff	; 255
   0823 F0                 5315 	.db #0xf0	; 240
   0824 FF                 5316 	.db #0xff	; 255
   0825 F0                 5317 	.db #0xf0	; 240
   0826 FF                 5318 	.db #0xff	; 255
   0827 F0                 5319 	.db #0xf0	; 240
   0828 FF                 5320 	.db #0xff	; 255
   0829 F0                 5321 	.db #0xf0	; 240
   082A FF                 5322 	.db #0xff	; 255
   082B F0                 5323 	.db #0xf0	; 240
   082C FF                 5324 	.db #0xff	; 255
   082D 00                 5325 	.db #0x00	; 0
   082E FF                 5326 	.db #0xff	; 255
   082F 00                 5327 	.db #0x00	; 0
   0830 FF                 5328 	.db #0xff	; 255
   0831 00                 5329 	.db #0x00	; 0
   0832 FF                 5330 	.db #0xff	; 255
   0833 00                 5331 	.db #0x00	; 0
   0834 FF                 5332 	.db #0xff	; 255
   0835 00                 5333 	.db #0x00	; 0
   0836 FF                 5334 	.db #0xff	; 255
   0837 00                 5335 	.db #0x00	; 0
   0838 FF                 5336 	.db #0xff	; 255
   0839 00                 5337 	.db #0x00	; 0
   083A FF                 5338 	.db #0xff	; 255
   083B 00                 5339 	.db #0x00	; 0
   083C FF                 5340 	.db #0xff	; 255
   083D 1F                 5341 	.db #0x1f	; 31
   083E E0                 5342 	.db #0xe0	; 224
   083F 1F                 5343 	.db #0x1f	; 31
   0840 E0                 5344 	.db #0xe0	; 224
   0841 1F                 5345 	.db #0x1f	; 31
   0842 E0                 5346 	.db #0xe0	; 224
   0843 1F                 5347 	.db #0x1f	; 31
   0844 E0                 5348 	.db #0xe0	; 224
   0845 1F                 5349 	.db #0x1f	; 31
   0846 E0                 5350 	.db #0xe0	; 224
   0847 1F                 5351 	.db #0x1f	; 31
   0848 E0                 5352 	.db #0xe0	; 224
   0849 1F                 5353 	.db #0x1f	; 31
   084A E0                 5354 	.db #0xe0	; 224
   084B 1F                 5355 	.db #0x1f	; 31
   084C E0                 5356 	.db #0xe0	; 224
   084D FC                 5357 	.db #0xfc	; 252
   084E 03                 5358 	.db #0x03	; 3
   084F FC                 5359 	.db #0xfc	; 252
   0850 03                 5360 	.db #0x03	; 3
   0851 FC                 5361 	.db #0xfc	; 252
   0852 03                 5362 	.db #0x03	; 3
   0853 FC                 5363 	.db #0xfc	; 252
   0854 03                 5364 	.db #0x03	; 3
   0855 FC                 5365 	.db #0xfc	; 252
   0856 03                 5366 	.db #0x03	; 3
   0857 FC                 5367 	.db #0xfc	; 252
   0858 03                 5368 	.db #0x03	; 3
   0859 FC                 5369 	.db #0xfc	; 252
   085A 03                 5370 	.db #0x03	; 3
   085B FC                 5371 	.db #0xfc	; 252
   085C 03                 5372 	.db #0x03	; 3
   085D 7F                 5373 	.db #0x7f	; 127
   085E FF                 5374 	.db #0xff	; 255
   085F 7F                 5375 	.db #0x7f	; 127
   0860 FF                 5376 	.db #0xff	; 255
   0861 7F                 5377 	.db #0x7f	; 127
   0862 FF                 5378 	.db #0xff	; 255
   0863 7F                 5379 	.db #0x7f	; 127
   0864 FF                 5380 	.db #0xff	; 255
   0865 7F                 5381 	.db #0x7f	; 127
   0866 FF                 5382 	.db #0xff	; 255
   0867 7F                 5383 	.db #0x7f	; 127
   0868 FF                 5384 	.db #0xff	; 255
   0869 7F                 5385 	.db #0x7f	; 127
   086A FF                 5386 	.db #0xff	; 255
   086B 7F                 5387 	.db #0x7f	; 127
   086C FF                 5388 	.db #0xff	; 255
   086D FF                 5389 	.db #0xff	; 255
   086E 07                 5390 	.db #0x07	; 7
   086F FF                 5391 	.db #0xff	; 255
   0870 07                 5392 	.db #0x07	; 7
   0871 FF                 5393 	.db #0xff	; 255
   0872 07                 5394 	.db #0x07	; 7
   0873 FF                 5395 	.db #0xff	; 255
   0874 07                 5396 	.db #0x07	; 7
   0875 FF                 5397 	.db #0xff	; 255
   0876 07                 5398 	.db #0x07	; 7
   0877 FF                 5399 	.db #0xff	; 255
   0878 07                 5400 	.db #0x07	; 7
   0879 FF                 5401 	.db #0xff	; 255
   087A 07                 5402 	.db #0x07	; 7
   087B FF                 5403 	.db #0xff	; 255
   087C 07                 5404 	.db #0x07	; 7
   087D FF                 5405 	.db #0xff	; 255
   087E 80                 5406 	.db #0x80	; 128
   087F FF                 5407 	.db #0xff	; 255
   0880 8F                 5408 	.db #0x8f	; 143
   0881 FF                 5409 	.db #0xff	; 255
   0882 8F                 5410 	.db #0x8f	; 143
   0883 FF                 5411 	.db #0xff	; 255
   0884 8F                 5412 	.db #0x8f	; 143
   0885 FF                 5413 	.db #0xff	; 255
   0886 8F                 5414 	.db #0x8f	; 143
   0887 FF                 5415 	.db #0xff	; 255
   0888 FF                 5416 	.db #0xff	; 255
   0889 FF                 5417 	.db #0xff	; 255
   088A FF                 5418 	.db #0xff	; 255
   088B FF                 5419 	.db #0xff	; 255
   088C FF                 5420 	.db #0xff	; 255
   088D FF                 5421 	.db #0xff	; 255
   088E 1F                 5422 	.db #0x1f	; 31
   088F FF                 5423 	.db #0xff	; 255
   0890 1F                 5424 	.db #0x1f	; 31
   0891 FF                 5425 	.db #0xff	; 255
   0892 1F                 5426 	.db #0x1f	; 31
   0893 FF                 5427 	.db #0xff	; 255
   0894 1F                 5428 	.db #0x1f	; 31
   0895 FF                 5429 	.db #0xff	; 255
   0896 1F                 5430 	.db #0x1f	; 31
   0897 FF                 5431 	.db #0xff	; 255
   0898 FF                 5432 	.db #0xff	; 255
   0899 FF                 5433 	.db #0xff	; 255
   089A FF                 5434 	.db #0xff	; 255
   089B FF                 5435 	.db #0xff	; 255
   089C FF                 5436 	.db #0xff	; 255
   089D FF                 5437 	.db #0xff	; 255
   089E CF                 5438 	.db #0xcf	; 207
   089F FF                 5439 	.db #0xff	; 255
   08A0 CF                 5440 	.db #0xcf	; 207
   08A1 FF                 5441 	.db #0xff	; 255
   08A2 CF                 5442 	.db #0xcf	; 207
   08A3 FF                 5443 	.db #0xff	; 255
   08A4 CF                 5444 	.db #0xcf	; 207
   08A5 FF                 5445 	.db #0xff	; 255
   08A6 CF                 5446 	.db #0xcf	; 207
   08A7 FF                 5447 	.db #0xff	; 255
   08A8 CF                 5448 	.db #0xcf	; 207
   08A9 FF                 5449 	.db #0xff	; 255
   08AA CF                 5450 	.db #0xcf	; 207
   08AB FF                 5451 	.db #0xff	; 255
   08AC CF                 5452 	.db #0xcf	; 207
   08AD FF                 5453 	.db #0xff	; 255
   08AE 1F                 5454 	.db #0x1f	; 31
   08AF FF                 5455 	.db #0xff	; 255
   08B0 1F                 5456 	.db #0x1f	; 31
   08B1 FF                 5457 	.db #0xff	; 255
   08B2 1F                 5458 	.db #0x1f	; 31
   08B3 FF                 5459 	.db #0xff	; 255
   08B4 1F                 5460 	.db #0x1f	; 31
   08B5 FF                 5461 	.db #0xff	; 255
   08B6 1F                 5462 	.db #0x1f	; 31
   08B7 FF                 5463 	.db #0xff	; 255
   08B8 1F                 5464 	.db #0x1f	; 31
   08B9 FF                 5465 	.db #0xff	; 255
   08BA 1F                 5466 	.db #0x1f	; 31
   08BB FF                 5467 	.db #0xff	; 255
   08BC 1F                 5468 	.db #0x1f	; 31
   08BD FF                 5469 	.db #0xff	; 255
   08BE 9F                 5470 	.db #0x9f	; 159
   08BF FF                 5471 	.db #0xff	; 255
   08C0 9F                 5472 	.db #0x9f	; 159
   08C1 FF                 5473 	.db #0xff	; 255
   08C2 9F                 5474 	.db #0x9f	; 159
   08C3 FF                 5475 	.db #0xff	; 255
   08C4 9F                 5476 	.db #0x9f	; 159
   08C5 FF                 5477 	.db #0xff	; 255
   08C6 9F                 5478 	.db #0x9f	; 159
   08C7 FF                 5479 	.db #0xff	; 255
   08C8 9C                 5480 	.db #0x9c	; 156
   08C9 FF                 5481 	.db #0xff	; 255
   08CA 9C                 5482 	.db #0x9c	; 156
   08CB FF                 5483 	.db #0xff	; 255
   08CC 9C                 5484 	.db #0x9c	; 156
   08CD FF                 5485 	.db #0xff	; 255
   08CE C0                 5486 	.db #0xc0	; 192
   08CF FF                 5487 	.db #0xff	; 255
   08D0 F8                 5488 	.db #0xf8	; 248
   08D1 FF                 5489 	.db #0xff	; 255
   08D2 F8                 5490 	.db #0xf8	; 248
   08D3 FF                 5491 	.db #0xff	; 255
   08D4 F8                 5492 	.db #0xf8	; 248
   08D5 FF                 5493 	.db #0xff	; 255
   08D6 F8                 5494 	.db #0xf8	; 248
   08D7 FF                 5495 	.db #0xff	; 255
   08D8 3F                 5496 	.db #0x3f	; 63
   08D9 FF                 5497 	.db #0xff	; 255
   08DA 3F                 5498 	.db #0x3f	; 63
   08DB FF                 5499 	.db #0xff	; 255
   08DC 3F                 5500 	.db #0x3f	; 63
   08DD FF                 5501 	.db #0xff	; 255
   08DE 7F                 5502 	.db #0x7f	; 127
   08DF FF                 5503 	.db #0xff	; 255
   08E0 7F                 5504 	.db #0x7f	; 127
   08E1 FF                 5505 	.db #0xff	; 255
   08E2 7F                 5506 	.db #0x7f	; 127
   08E3 FF                 5507 	.db #0xff	; 255
   08E4 7F                 5508 	.db #0x7f	; 127
   08E5 FF                 5509 	.db #0xff	; 255
   08E6 7F                 5510 	.db #0x7f	; 127
   08E7 FF                 5511 	.db #0xff	; 255
   08E8 FF                 5512 	.db #0xff	; 255
   08E9 FF                 5513 	.db #0xff	; 255
   08EA FF                 5514 	.db #0xff	; 255
   08EB FF                 5515 	.db #0xff	; 255
   08EC FF                 5516 	.db #0xff	; 255
   08ED FF                 5517 	.db #0xff	; 255
   08EE 07                 5518 	.db #0x07	; 7
   08EF FF                 5519 	.db #0xff	; 255
   08F0 07                 5520 	.db #0x07	; 7
   08F1 FF                 5521 	.db #0xff	; 255
   08F2 07                 5522 	.db #0x07	; 7
   08F3 FF                 5523 	.db #0xff	; 255
   08F4 07                 5524 	.db #0x07	; 7
   08F5 FF                 5525 	.db #0xff	; 255
   08F6 07                 5526 	.db #0x07	; 7
   08F7 FF                 5527 	.db #0xff	; 255
   08F8 07                 5528 	.db #0x07	; 7
   08F9 FF                 5529 	.db #0xff	; 255
   08FA 07                 5530 	.db #0x07	; 7
   08FB FF                 5531 	.db #0xff	; 255
   08FC 00                 5532 	.db #0x00	; 0
   08FD FF                 5533 	.db #0xff	; 255
   08FE FF                 5534 	.db #0xff	; 255
   08FF FF                 5535 	.db #0xff	; 255
   0900 F0                 5536 	.db #0xf0	; 240
   0901 FF                 5537 	.db #0xff	; 255
   0902 F0                 5538 	.db #0xf0	; 240
   0903 FF                 5539 	.db #0xff	; 255
   0904 F0                 5540 	.db #0xf0	; 240
   0905 FF                 5541 	.db #0xff	; 255
   0906 80                 5542 	.db #0x80	; 128
   0907 FF                 5543 	.db #0xff	; 255
   0908 80                 5544 	.db #0x80	; 128
   0909 FF                 5545 	.db #0xff	; 255
   090A 80                 5546 	.db #0x80	; 128
   090B FF                 5547 	.db #0xff	; 255
   090C 00                 5548 	.db #0x00	; 0
   090D FF                 5549 	.db #0xff	; 255
   090E FF                 5550 	.db #0xff	; 255
   090F FF                 5551 	.db #0xff	; 255
   0910 FF                 5552 	.db #0xff	; 255
   0911 FF                 5553 	.db #0xff	; 255
   0912 FF                 5554 	.db #0xff	; 255
   0913 FF                 5555 	.db #0xff	; 255
   0914 FF                 5556 	.db #0xff	; 255
   0915 FF                 5557 	.db #0xff	; 255
   0916 1F                 5558 	.db #0x1f	; 31
   0917 FF                 5559 	.db #0xff	; 255
   0918 1F                 5560 	.db #0x1f	; 31
   0919 FF                 5561 	.db #0xff	; 255
   091A 1F                 5562 	.db #0x1f	; 31
   091B FF                 5563 	.db #0xff	; 255
   091C 00                 5564 	.db #0x00	; 0
   091D FF                 5565 	.db #0xff	; 255
   091E CF                 5566 	.db #0xcf	; 207
   091F FF                 5567 	.db #0xff	; 255
   0920 CF                 5568 	.db #0xcf	; 207
   0921 FF                 5569 	.db #0xff	; 255
   0922 CF                 5570 	.db #0xcf	; 207
   0923 FF                 5571 	.db #0xff	; 255
   0924 C0                 5572 	.db #0xc0	; 192
   0925 FF                 5573 	.db #0xff	; 255
   0926 C0                 5574 	.db #0xc0	; 192
   0927 FF                 5575 	.db #0xff	; 255
   0928 C0                 5576 	.db #0xc0	; 192
   0929 FF                 5577 	.db #0xff	; 255
   092A C0                 5578 	.db #0xc0	; 192
   092B FF                 5579 	.db #0xff	; 255
   092C 00                 5580 	.db #0x00	; 0
   092D FF                 5581 	.db #0xff	; 255
   092E E0                 5582 	.db #0xe0	; 224
   092F FF                 5583 	.db #0xff	; 255
   0930 E0                 5584 	.db #0xe0	; 224
   0931 FF                 5585 	.db #0xff	; 255
   0932 E0                 5586 	.db #0xe0	; 224
   0933 FF                 5587 	.db #0xff	; 255
   0934 FF                 5588 	.db #0xff	; 255
   0935 FF                 5589 	.db #0xff	; 255
   0936 FF                 5590 	.db #0xff	; 255
   0937 FF                 5591 	.db #0xff	; 255
   0938 FF                 5592 	.db #0xff	; 255
   0939 FF                 5593 	.db #0xff	; 255
   093A FF                 5594 	.db #0xff	; 255
   093B FF                 5595 	.db #0xff	; 255
   093C 00                 5596 	.db #0x00	; 0
   093D FF                 5597 	.db #0xff	; 255
   093E 1F                 5598 	.db #0x1f	; 31
   093F FF                 5599 	.db #0xff	; 255
   0940 1F                 5600 	.db #0x1f	; 31
   0941 FF                 5601 	.db #0xff	; 255
   0942 1F                 5602 	.db #0x1f	; 31
   0943 FF                 5603 	.db #0xff	; 255
   0944 FC                 5604 	.db #0xfc	; 252
   0945 FF                 5605 	.db #0xff	; 255
   0946 FC                 5606 	.db #0xfc	; 252
   0947 FF                 5607 	.db #0xff	; 255
   0948 FC                 5608 	.db #0xfc	; 252
   0949 FF                 5609 	.db #0xff	; 255
   094A FC                 5610 	.db #0xfc	; 252
   094B FF                 5611 	.db #0xff	; 255
   094C 00                 5612 	.db #0x00	; 0
   094D FF                 5613 	.db #0xff	; 255
   094E 9C                 5614 	.db #0x9c	; 156
   094F FF                 5615 	.db #0xff	; 255
   0950 9C                 5616 	.db #0x9c	; 156
   0951 FF                 5617 	.db #0xff	; 255
   0952 9C                 5618 	.db #0x9c	; 156
   0953 FF                 5619 	.db #0xff	; 255
   0954 1C                 5620 	.db #0x1c	; 28
   0955 FF                 5621 	.db #0xff	; 255
   0956 1C                 5622 	.db #0x1c	; 28
   0957 FF                 5623 	.db #0xff	; 255
   0958 1C                 5624 	.db #0x1c	; 28
   0959 FF                 5625 	.db #0xff	; 255
   095A 1C                 5626 	.db #0x1c	; 28
   095B FF                 5627 	.db #0xff	; 255
   095C 00                 5628 	.db #0x00	; 0
   095D FF                 5629 	.db #0xff	; 255
   095E 3F                 5630 	.db #0x3f	; 63
   095F FF                 5631 	.db #0xff	; 255
   0960 03                 5632 	.db #0x03	; 3
   0961 FF                 5633 	.db #0xff	; 255
   0962 03                 5634 	.db #0x03	; 3
   0963 FF                 5635 	.db #0xff	; 255
   0964 03                 5636 	.db #0x03	; 3
   0965 FF                 5637 	.db #0xff	; 255
   0966 00                 5638 	.db #0x00	; 0
   0967 FF                 5639 	.db #0xff	; 255
   0968 00                 5640 	.db #0x00	; 0
   0969 FF                 5641 	.db #0xff	; 255
   096A 00                 5642 	.db #0x00	; 0
   096B FF                 5643 	.db #0xff	; 255
   096C 00                 5644 	.db #0x00	; 0
   096D FF                 5645 	.db #0xff	; 255
   096E FF                 5646 	.db #0xff	; 255
   096F FF                 5647 	.db #0xff	; 255
   0970 FF                 5648 	.db #0xff	; 255
   0971 FF                 5649 	.db #0xff	; 255
   0972 FF                 5650 	.db #0xff	; 255
   0973 FF                 5651 	.db #0xff	; 255
   0974 FF                 5652 	.db #0xff	; 255
   0975 FF                 5653 	.db #0xff	; 255
   0976 7F                 5654 	.db #0x7f	; 127
   0977 FF                 5655 	.db #0xff	; 255
   0978 7F                 5656 	.db #0x7f	; 127
   0979 FF                 5657 	.db #0xff	; 255
   097A 7F                 5658 	.db #0x7f	; 127
   097B FF                 5659 	.db #0xff	; 255
   097C 00                 5660 	.db #0x00	; 0
   097D F0                 5661 	.db #0xf0	; 240
   097E FF                 5662 	.db #0xff	; 255
   097F FF                 5663 	.db #0xff	; 255
   0980 F0                 5664 	.db #0xf0	; 240
   0981 FF                 5665 	.db #0xff	; 255
   0982 F0                 5666 	.db #0xf0	; 240
   0983 FF                 5667 	.db #0xff	; 255
   0984 F0                 5668 	.db #0xf0	; 240
   0985 FF                 5669 	.db #0xff	; 255
   0986 F0                 5670 	.db #0xf0	; 240
   0987 FF                 5671 	.db #0xff	; 255
   0988 F0                 5672 	.db #0xf0	; 240
   0989 FF                 5673 	.db #0xff	; 255
   098A F0                 5674 	.db #0xf0	; 240
   098B FF                 5675 	.db #0xff	; 255
   098C F0                 5676 	.db #0xf0	; 240
   098D 00                 5677 	.db #0x00	; 0
   098E FF                 5678 	.db #0xff	; 255
   098F FF                 5679 	.db #0xff	; 255
   0990 00                 5680 	.db #0x00	; 0
   0991 FF                 5681 	.db #0xff	; 255
   0992 00                 5682 	.db #0x00	; 0
   0993 FF                 5683 	.db #0xff	; 255
   0994 00                 5684 	.db #0x00	; 0
   0995 FF                 5685 	.db #0xff	; 255
   0996 00                 5686 	.db #0x00	; 0
   0997 FF                 5687 	.db #0xff	; 255
   0998 00                 5688 	.db #0x00	; 0
   0999 FF                 5689 	.db #0xff	; 255
   099A 00                 5690 	.db #0x00	; 0
   099B FF                 5691 	.db #0xff	; 255
   099C 00                 5692 	.db #0x00	; 0
   099D 1F                 5693 	.db #0x1f	; 31
   099E E0                 5694 	.db #0xe0	; 224
   099F FF                 5695 	.db #0xff	; 255
   09A0 1F                 5696 	.db #0x1f	; 31
   09A1 FF                 5697 	.db #0xff	; 255
   09A2 1F                 5698 	.db #0x1f	; 31
   09A3 FF                 5699 	.db #0xff	; 255
   09A4 1F                 5700 	.db #0x1f	; 31
   09A5 FF                 5701 	.db #0xff	; 255
   09A6 1F                 5702 	.db #0x1f	; 31
   09A7 FF                 5703 	.db #0xff	; 255
   09A8 1F                 5704 	.db #0x1f	; 31
   09A9 FF                 5705 	.db #0xff	; 255
   09AA 1F                 5706 	.db #0x1f	; 31
   09AB FF                 5707 	.db #0xff	; 255
   09AC 1F                 5708 	.db #0x1f	; 31
   09AD FC                 5709 	.db #0xfc	; 252
   09AE 03                 5710 	.db #0x03	; 3
   09AF FF                 5711 	.db #0xff	; 255
   09B0 FC                 5712 	.db #0xfc	; 252
   09B1 FF                 5713 	.db #0xff	; 255
   09B2 FC                 5714 	.db #0xfc	; 252
   09B3 FF                 5715 	.db #0xff	; 255
   09B4 FC                 5716 	.db #0xfc	; 252
   09B5 FF                 5717 	.db #0xff	; 255
   09B6 FC                 5718 	.db #0xfc	; 252
   09B7 FF                 5719 	.db #0xff	; 255
   09B8 FC                 5720 	.db #0xfc	; 252
   09B9 FF                 5721 	.db #0xff	; 255
   09BA FC                 5722 	.db #0xfc	; 252
   09BB FF                 5723 	.db #0xff	; 255
   09BC FC                 5724 	.db #0xfc	; 252
   09BD 7F                 5725 	.db #0x7f	; 127
   09BE FF                 5726 	.db #0xff	; 255
   09BF FF                 5727 	.db #0xff	; 255
   09C0 7F                 5728 	.db #0x7f	; 127
   09C1 FF                 5729 	.db #0xff	; 255
   09C2 7F                 5730 	.db #0x7f	; 127
   09C3 FF                 5731 	.db #0xff	; 255
   09C4 7F                 5732 	.db #0x7f	; 127
   09C5 FF                 5733 	.db #0xff	; 255
   09C6 7F                 5734 	.db #0x7f	; 127
   09C7 FF                 5735 	.db #0xff	; 255
   09C8 7F                 5736 	.db #0x7f	; 127
   09C9 FF                 5737 	.db #0xff	; 255
   09CA 7F                 5738 	.db #0x7f	; 127
   09CB FF                 5739 	.db #0xff	; 255
   09CC 7F                 5740 	.db #0x7f	; 127
   09CD FF                 5741 	.db #0xff	; 255
   09CE F0                 5742 	.db #0xf0	; 240
   09CF FF                 5743 	.db #0xff	; 255
   09D0 F0                 5744 	.db #0xf0	; 240
   09D1 FF                 5745 	.db #0xff	; 255
   09D2 F0                 5746 	.db #0xf0	; 240
   09D3 FF                 5747 	.db #0xff	; 255
   09D4 F0                 5748 	.db #0xf0	; 240
   09D5 FF                 5749 	.db #0xff	; 255
   09D6 FF                 5750 	.db #0xff	; 255
   09D7 FF                 5751 	.db #0xff	; 255
   09D8 FF                 5752 	.db #0xff	; 255
   09D9 FF                 5753 	.db #0xff	; 255
   09DA FF                 5754 	.db #0xff	; 255
   09DB FF                 5755 	.db #0xff	; 255
   09DC FF                 5756 	.db #0xff	; 255
   09DD FF                 5757 	.db #0xff	; 255
   09DE 00                 5758 	.db #0x00	; 0
   09DF FF                 5759 	.db #0xff	; 255
   09E0 00                 5760 	.db #0x00	; 0
   09E1 FF                 5761 	.db #0xff	; 255
   09E2 00                 5762 	.db #0x00	; 0
   09E3 FF                 5763 	.db #0xff	; 255
   09E4 00                 5764 	.db #0x00	; 0
   09E5 FF                 5765 	.db #0xff	; 255
   09E6 FF                 5766 	.db #0xff	; 255
   09E7 FF                 5767 	.db #0xff	; 255
   09E8 FF                 5768 	.db #0xff	; 255
   09E9 FF                 5769 	.db #0xff	; 255
   09EA FF                 5770 	.db #0xff	; 255
   09EB FF                 5771 	.db #0xff	; 255
   09EC FF                 5772 	.db #0xff	; 255
   09ED FF                 5773 	.db #0xff	; 255
   09EE 1F                 5774 	.db #0x1f	; 31
   09EF FF                 5775 	.db #0xff	; 255
   09F0 1F                 5776 	.db #0x1f	; 31
   09F1 FF                 5777 	.db #0xff	; 255
   09F2 1F                 5778 	.db #0x1f	; 31
   09F3 FF                 5779 	.db #0xff	; 255
   09F4 1F                 5780 	.db #0x1f	; 31
   09F5 FF                 5781 	.db #0xff	; 255
   09F6 FF                 5782 	.db #0xff	; 255
   09F7 FF                 5783 	.db #0xff	; 255
   09F8 FF                 5784 	.db #0xff	; 255
   09F9 FF                 5785 	.db #0xff	; 255
   09FA FF                 5786 	.db #0xff	; 255
   09FB FF                 5787 	.db #0xff	; 255
   09FC FF                 5788 	.db #0xff	; 255
   09FD FF                 5789 	.db #0xff	; 255
   09FE FC                 5790 	.db #0xfc	; 252
   09FF FF                 5791 	.db #0xff	; 255
   0A00 FC                 5792 	.db #0xfc	; 252
   0A01 FF                 5793 	.db #0xff	; 255
   0A02 FC                 5794 	.db #0xfc	; 252
   0A03 FF                 5795 	.db #0xff	; 255
   0A04 FC                 5796 	.db #0xfc	; 252
   0A05 FF                 5797 	.db #0xff	; 255
   0A06 FF                 5798 	.db #0xff	; 255
   0A07 FF                 5799 	.db #0xff	; 255
   0A08 FF                 5800 	.db #0xff	; 255
   0A09 FF                 5801 	.db #0xff	; 255
   0A0A FF                 5802 	.db #0xff	; 255
   0A0B FF                 5803 	.db #0xff	; 255
   0A0C FF                 5804 	.db #0xff	; 255
   0A0D FF                 5805 	.db #0xff	; 255
   0A0E 7F                 5806 	.db #0x7f	; 127
   0A0F FF                 5807 	.db #0xff	; 255
   0A10 7F                 5808 	.db #0x7f	; 127
   0A11 FF                 5809 	.db #0xff	; 255
   0A12 7F                 5810 	.db #0x7f	; 127
   0A13 FF                 5811 	.db #0xff	; 255
   0A14 7F                 5812 	.db #0x7f	; 127
   0A15 FF                 5813 	.db #0xff	; 255
   0A16 FF                 5814 	.db #0xff	; 255
   0A17 FF                 5815 	.db #0xff	; 255
   0A18 FF                 5816 	.db #0xff	; 255
   0A19 FF                 5817 	.db #0xff	; 255
   0A1A FF                 5818 	.db #0xff	; 255
   0A1B FF                 5819 	.db #0xff	; 255
   0A1C FF                 5820 	.db #0xff	; 255
   0A1D FF                 5821 	.db #0xff	; 255
   0A1E 00                 5822 	.db #0x00	; 0
   0A1F FF                 5823 	.db #0xff	; 255
   0A20 00                 5824 	.db #0x00	; 0
   0A21 FF                 5825 	.db #0xff	; 255
   0A22 01                 5826 	.db #0x01	; 1
   0A23 FF                 5827 	.db #0xff	; 255
   0A24 01                 5828 	.db #0x01	; 1
   0A25 FF                 5829 	.db #0xff	; 255
   0A26 01                 5830 	.db #0x01	; 1
   0A27 FF                 5831 	.db #0xff	; 255
   0A28 01                 5832 	.db #0x01	; 1
   0A29 FF                 5833 	.db #0xff	; 255
   0A2A 01                 5834 	.db #0x01	; 1
   0A2B FF                 5835 	.db #0xff	; 255
   0A2C 01                 5836 	.db #0x01	; 1
   0A2D FF                 5837 	.db #0xff	; 255
   0A2E 00                 5838 	.db #0x00	; 0
   0A2F FF                 5839 	.db #0xff	; 255
   0A30 00                 5840 	.db #0x00	; 0
   0A31 FF                 5841 	.db #0xff	; 255
   0A32 FF                 5842 	.db #0xff	; 255
   0A33 FF                 5843 	.db #0xff	; 255
   0A34 FF                 5844 	.db #0xff	; 255
   0A35 FF                 5845 	.db #0xff	; 255
   0A36 FF                 5846 	.db #0xff	; 255
   0A37 FF                 5847 	.db #0xff	; 255
   0A38 FF                 5848 	.db #0xff	; 255
   0A39 FF                 5849 	.db #0xff	; 255
   0A3A FF                 5850 	.db #0xff	; 255
   0A3B FF                 5851 	.db #0xff	; 255
   0A3C FF                 5852 	.db #0xff	; 255
   0A3D FF                 5853 	.db #0xff	; 255
   0A3E 00                 5854 	.db #0x00	; 0
   0A3F FF                 5855 	.db #0xff	; 255
   0A40 00                 5856 	.db #0x00	; 0
   0A41 FF                 5857 	.db #0xff	; 255
   0A42 F3                 5858 	.db #0xf3	; 243
   0A43 FF                 5859 	.db #0xff	; 255
   0A44 F3                 5860 	.db #0xf3	; 243
   0A45 FF                 5861 	.db #0xff	; 255
   0A46 F3                 5862 	.db #0xf3	; 243
   0A47 FF                 5863 	.db #0xff	; 255
   0A48 F3                 5864 	.db #0xf3	; 243
   0A49 FF                 5865 	.db #0xff	; 255
   0A4A F3                 5866 	.db #0xf3	; 243
   0A4B FF                 5867 	.db #0xff	; 255
   0A4C F3                 5868 	.db #0xf3	; 243
   0A4D FF                 5869 	.db #0xff	; 255
   0A4E 00                 5870 	.db #0x00	; 0
   0A4F FF                 5871 	.db #0xff	; 255
   0A50 00                 5872 	.db #0x00	; 0
   0A51 FF                 5873 	.db #0xff	; 255
   0A52 E7                 5874 	.db #0xe7	; 231
   0A53 FF                 5875 	.db #0xff	; 255
   0A54 E7                 5876 	.db #0xe7	; 231
   0A55 FF                 5877 	.db #0xff	; 255
   0A56 E7                 5878 	.db #0xe7	; 231
   0A57 FF                 5879 	.db #0xff	; 255
   0A58 E7                 5880 	.db #0xe7	; 231
   0A59 FF                 5881 	.db #0xff	; 255
   0A5A E7                 5882 	.db #0xe7	; 231
   0A5B FF                 5883 	.db #0xff	; 255
   0A5C E7                 5884 	.db #0xe7	; 231
   0A5D FF                 5885 	.db #0xff	; 255
   0A5E 00                 5886 	.db #0x00	; 0
   0A5F FF                 5887 	.db #0xff	; 255
   0A60 00                 5888 	.db #0x00	; 0
   0A61 FF                 5889 	.db #0xff	; 255
   0A62 C0                 5890 	.db #0xc0	; 192
   0A63 FF                 5891 	.db #0xff	; 255
   0A64 C0                 5892 	.db #0xc0	; 192
   0A65 FF                 5893 	.db #0xff	; 255
   0A66 C0                 5894 	.db #0xc0	; 192
   0A67 FF                 5895 	.db #0xff	; 255
   0A68 C0                 5896 	.db #0xc0	; 192
   0A69 FF                 5897 	.db #0xff	; 255
   0A6A C0                 5898 	.db #0xc0	; 192
   0A6B FF                 5899 	.db #0xff	; 255
   0A6C C0                 5900 	.db #0xc0	; 192
   0A6D FF                 5901 	.db #0xff	; 255
   0A6E 01                 5902 	.db #0x01	; 1
   0A6F FF                 5903 	.db #0xff	; 255
   0A70 01                 5904 	.db #0x01	; 1
   0A71 FF                 5905 	.db #0xff	; 255
   0A72 01                 5906 	.db #0x01	; 1
   0A73 FF                 5907 	.db #0xff	; 255
   0A74 01                 5908 	.db #0x01	; 1
   0A75 FF                 5909 	.db #0xff	; 255
   0A76 01                 5910 	.db #0x01	; 1
   0A77 FF                 5911 	.db #0xff	; 255
   0A78 01                 5912 	.db #0x01	; 1
   0A79 FF                 5913 	.db #0xff	; 255
   0A7A 01                 5914 	.db #0x01	; 1
   0A7B FF                 5915 	.db #0xff	; 255
   0A7C 01                 5916 	.db #0x01	; 1
   0A7D FF                 5917 	.db #0xff	; 255
   0A7E F3                 5918 	.db #0xf3	; 243
   0A7F FF                 5919 	.db #0xff	; 255
   0A80 F3                 5920 	.db #0xf3	; 243
   0A81 FF                 5921 	.db #0xff	; 255
   0A82 F3                 5922 	.db #0xf3	; 243
   0A83 FF                 5923 	.db #0xff	; 255
   0A84 F3                 5924 	.db #0xf3	; 243
   0A85 FF                 5925 	.db #0xff	; 255
   0A86 F3                 5926 	.db #0xf3	; 243
   0A87 FF                 5927 	.db #0xff	; 255
   0A88 F3                 5928 	.db #0xf3	; 243
   0A89 FF                 5929 	.db #0xff	; 255
   0A8A F3                 5930 	.db #0xf3	; 243
   0A8B FF                 5931 	.db #0xff	; 255
   0A8C F3                 5932 	.db #0xf3	; 243
   0A8D FF                 5933 	.db #0xff	; 255
   0A8E E7                 5934 	.db #0xe7	; 231
   0A8F FF                 5935 	.db #0xff	; 255
   0A90 E7                 5936 	.db #0xe7	; 231
   0A91 FF                 5937 	.db #0xff	; 255
   0A92 E7                 5938 	.db #0xe7	; 231
   0A93 FF                 5939 	.db #0xff	; 255
   0A94 E7                 5940 	.db #0xe7	; 231
   0A95 FF                 5941 	.db #0xff	; 255
   0A96 E7                 5942 	.db #0xe7	; 231
   0A97 FF                 5943 	.db #0xff	; 255
   0A98 E7                 5944 	.db #0xe7	; 231
   0A99 FF                 5945 	.db #0xff	; 255
   0A9A E7                 5946 	.db #0xe7	; 231
   0A9B FF                 5947 	.db #0xff	; 255
   0A9C E7                 5948 	.db #0xe7	; 231
   0A9D FF                 5949 	.db #0xff	; 255
   0A9E C0                 5950 	.db #0xc0	; 192
   0A9F FF                 5951 	.db #0xff	; 255
   0AA0 C0                 5952 	.db #0xc0	; 192
   0AA1 FF                 5953 	.db #0xff	; 255
   0AA2 C0                 5954 	.db #0xc0	; 192
   0AA3 FF                 5955 	.db #0xff	; 255
   0AA4 C0                 5956 	.db #0xc0	; 192
   0AA5 FF                 5957 	.db #0xff	; 255
   0AA6 C0                 5958 	.db #0xc0	; 192
   0AA7 FF                 5959 	.db #0xff	; 255
   0AA8 C0                 5960 	.db #0xc0	; 192
   0AA9 FF                 5961 	.db #0xff	; 255
   0AAA C0                 5962 	.db #0xc0	; 192
   0AAB FF                 5963 	.db #0xff	; 255
   0AAC C0                 5964 	.db #0xc0	; 192
   0AAD FF                 5965 	.db #0xff	; 255
   0AAE 7F                 5966 	.db #0x7f	; 127
   0AAF FF                 5967 	.db #0xff	; 255
   0AB0 00                 5968 	.db #0x00	; 0
   0AB1 FF                 5969 	.db #0xff	; 255
   0AB2 00                 5970 	.db #0x00	; 0
   0AB3 FF                 5971 	.db #0xff	; 255
   0AB4 00                 5972 	.db #0x00	; 0
   0AB5 FF                 5973 	.db #0xff	; 255
   0AB6 00                 5974 	.db #0x00	; 0
   0AB7 FF                 5975 	.db #0xff	; 255
   0AB8 00                 5976 	.db #0x00	; 0
   0AB9 FF                 5977 	.db #0xff	; 255
   0ABA 00                 5978 	.db #0x00	; 0
   0ABB FF                 5979 	.db #0xff	; 255
   0ABC 00                 5980 	.db #0x00	; 0
   0ABD FF                 5981 	.db #0xff	; 255
   0ABE FF                 5982 	.db #0xff	; 255
   0ABF FF                 5983 	.db #0xff	; 255
   0AC0 0F                 5984 	.db #0x0f	; 15
   0AC1 FF                 5985 	.db #0xff	; 255
   0AC2 0F                 5986 	.db #0x0f	; 15
   0AC3 FF                 5987 	.db #0xff	; 255
   0AC4 0F                 5988 	.db #0x0f	; 15
   0AC5 FF                 5989 	.db #0xff	; 255
   0AC6 0F                 5990 	.db #0x0f	; 15
   0AC7 FF                 5991 	.db #0xff	; 255
   0AC8 0F                 5992 	.db #0x0f	; 15
   0AC9 FF                 5993 	.db #0xff	; 255
   0ACA 0F                 5994 	.db #0x0f	; 15
   0ACB FF                 5995 	.db #0xff	; 255
   0ACC 0F                 5996 	.db #0x0f	; 15
   0ACD FF                 5997 	.db #0xff	; 255
   0ACE FF                 5998 	.db #0xff	; 255
   0ACF FF                 5999 	.db #0xff	; 255
   0AD0 E0                 6000 	.db #0xe0	; 224
   0AD1 FF                 6001 	.db #0xff	; 255
   0AD2 E0                 6002 	.db #0xe0	; 224
   0AD3 FF                 6003 	.db #0xff	; 255
   0AD4 E0                 6004 	.db #0xe0	; 224
   0AD5 FF                 6005 	.db #0xff	; 255
   0AD6 E0                 6006 	.db #0xe0	; 224
   0AD7 FF                 6007 	.db #0xff	; 255
   0AD8 E0                 6008 	.db #0xe0	; 224
   0AD9 FF                 6009 	.db #0xff	; 255
   0ADA E0                 6010 	.db #0xe0	; 224
   0ADB FF                 6011 	.db #0xff	; 255
   0ADC E0                 6012 	.db #0xe0	; 224
   0ADD FF                 6013 	.db #0xff	; 255
   0ADE FF                 6014 	.db #0xff	; 255
   0ADF FF                 6015 	.db #0xff	; 255
   0AE0 03                 6016 	.db #0x03	; 3
   0AE1 FF                 6017 	.db #0xff	; 255
   0AE2 03                 6018 	.db #0x03	; 3
   0AE3 FF                 6019 	.db #0xff	; 255
   0AE4 03                 6020 	.db #0x03	; 3
   0AE5 FF                 6021 	.db #0xff	; 255
   0AE6 03                 6022 	.db #0x03	; 3
   0AE7 FF                 6023 	.db #0xff	; 255
   0AE8 03                 6024 	.db #0x03	; 3
   0AE9 FF                 6025 	.db #0xff	; 255
   0AEA 03                 6026 	.db #0x03	; 3
   0AEB FF                 6027 	.db #0xff	; 255
   0AEC 03                 6028 	.db #0x03	; 3
   0AED FF                 6029 	.db #0xff	; 255
   0AEE 00                 6030 	.db #0x00	; 0
   0AEF FF                 6031 	.db #0xff	; 255
   0AF0 00                 6032 	.db #0x00	; 0
   0AF1 FF                 6033 	.db #0xff	; 255
   0AF2 00                 6034 	.db #0x00	; 0
   0AF3 FF                 6035 	.db #0xff	; 255
   0AF4 01                 6036 	.db #0x01	; 1
   0AF5 FF                 6037 	.db #0xff	; 255
   0AF6 01                 6038 	.db #0x01	; 1
   0AF7 FF                 6039 	.db #0xff	; 255
   0AF8 01                 6040 	.db #0x01	; 1
   0AF9 FF                 6041 	.db #0xff	; 255
   0AFA 01                 6042 	.db #0x01	; 1
   0AFB FF                 6043 	.db #0xff	; 255
   0AFC 00                 6044 	.db #0x00	; 0
   0AFD FF                 6045 	.db #0xff	; 255
   0AFE 00                 6046 	.db #0x00	; 0
   0AFF FF                 6047 	.db #0xff	; 255
   0B00 00                 6048 	.db #0x00	; 0
   0B01 FF                 6049 	.db #0xff	; 255
   0B02 00                 6050 	.db #0x00	; 0
   0B03 FF                 6051 	.db #0xff	; 255
   0B04 FF                 6052 	.db #0xff	; 255
   0B05 FF                 6053 	.db #0xff	; 255
   0B06 FF                 6054 	.db #0xff	; 255
   0B07 FF                 6055 	.db #0xff	; 255
   0B08 FF                 6056 	.db #0xff	; 255
   0B09 FF                 6057 	.db #0xff	; 255
   0B0A FF                 6058 	.db #0xff	; 255
   0B0B FF                 6059 	.db #0xff	; 255
   0B0C 00                 6060 	.db #0x00	; 0
   0B0D FF                 6061 	.db #0xff	; 255
   0B0E 00                 6062 	.db #0x00	; 0
   0B0F FF                 6063 	.db #0xff	; 255
   0B10 00                 6064 	.db #0x00	; 0
   0B11 FF                 6065 	.db #0xff	; 255
   0B12 00                 6066 	.db #0x00	; 0
   0B13 FF                 6067 	.db #0xff	; 255
   0B14 F3                 6068 	.db #0xf3	; 243
   0B15 FF                 6069 	.db #0xff	; 255
   0B16 F3                 6070 	.db #0xf3	; 243
   0B17 FF                 6071 	.db #0xff	; 255
   0B18 F3                 6072 	.db #0xf3	; 243
   0B19 FF                 6073 	.db #0xff	; 255
   0B1A F3                 6074 	.db #0xf3	; 243
   0B1B FF                 6075 	.db #0xff	; 255
   0B1C 00                 6076 	.db #0x00	; 0
   0B1D FF                 6077 	.db #0xff	; 255
   0B1E 00                 6078 	.db #0x00	; 0
   0B1F FF                 6079 	.db #0xff	; 255
   0B20 00                 6080 	.db #0x00	; 0
   0B21 FF                 6081 	.db #0xff	; 255
   0B22 00                 6082 	.db #0x00	; 0
   0B23 FF                 6083 	.db #0xff	; 255
   0B24 E7                 6084 	.db #0xe7	; 231
   0B25 FF                 6085 	.db #0xff	; 255
   0B26 E7                 6086 	.db #0xe7	; 231
   0B27 FF                 6087 	.db #0xff	; 255
   0B28 E7                 6088 	.db #0xe7	; 231
   0B29 FF                 6089 	.db #0xff	; 255
   0B2A E7                 6090 	.db #0xe7	; 231
   0B2B FF                 6091 	.db #0xff	; 255
   0B2C 00                 6092 	.db #0x00	; 0
   0B2D FF                 6093 	.db #0xff	; 255
   0B2E 00                 6094 	.db #0x00	; 0
   0B2F FF                 6095 	.db #0xff	; 255
   0B30 00                 6096 	.db #0x00	; 0
   0B31 FF                 6097 	.db #0xff	; 255
   0B32 00                 6098 	.db #0x00	; 0
   0B33 FF                 6099 	.db #0xff	; 255
   0B34 C0                 6100 	.db #0xc0	; 192
   0B35 FF                 6101 	.db #0xff	; 255
   0B36 C0                 6102 	.db #0xc0	; 192
   0B37 FF                 6103 	.db #0xff	; 255
   0B38 C0                 6104 	.db #0xc0	; 192
   0B39 FF                 6105 	.db #0xff	; 255
   0B3A C0                 6106 	.db #0xc0	; 192
   0B3B FF                 6107 	.db #0xff	; 255
   0B3C 00                 6108 	.db #0x00	; 0
   0B3D FF                 6109 	.db #0xff	; 255
   0B3E 0F                 6110 	.db #0x0f	; 15
   0B3F FF                 6111 	.db #0xff	; 255
   0B40 0F                 6112 	.db #0x0f	; 15
   0B41 FF                 6113 	.db #0xff	; 255
   0B42 0F                 6114 	.db #0x0f	; 15
   0B43 FF                 6115 	.db #0xff	; 255
   0B44 0F                 6116 	.db #0x0f	; 15
   0B45 FF                 6117 	.db #0xff	; 255
   0B46 0F                 6118 	.db #0x0f	; 15
   0B47 FF                 6119 	.db #0xff	; 255
   0B48 0F                 6120 	.db #0x0f	; 15
   0B49 FF                 6121 	.db #0xff	; 255
   0B4A 0F                 6122 	.db #0x0f	; 15
   0B4B FF                 6123 	.db #0xff	; 255
   0B4C 0F                 6124 	.db #0x0f	; 15
   0B4D FF                 6125 	.db #0xff	; 255
   0B4E 0F                 6126 	.db #0x0f	; 15
   0B4F FF                 6127 	.db #0xff	; 255
   0B50 0F                 6128 	.db #0x0f	; 15
   0B51 FF                 6129 	.db #0xff	; 255
   0B52 0F                 6130 	.db #0x0f	; 15
   0B53 FF                 6131 	.db #0xff	; 255
   0B54 0F                 6132 	.db #0x0f	; 15
   0B55 FF                 6133 	.db #0xff	; 255
   0B56 00                 6134 	.db #0x00	; 0
   0B57 FF                 6135 	.db #0xff	; 255
   0B58 00                 6136 	.db #0x00	; 0
   0B59 FF                 6137 	.db #0xff	; 255
   0B5A 00                 6138 	.db #0x00	; 0
   0B5B FF                 6139 	.db #0xff	; 255
   0B5C 00                 6140 	.db #0x00	; 0
   0B5D FF                 6141 	.db #0xff	; 255
   0B5E 03                 6142 	.db #0x03	; 3
   0B5F FF                 6143 	.db #0xff	; 255
   0B60 03                 6144 	.db #0x03	; 3
   0B61 FF                 6145 	.db #0xff	; 255
   0B62 03                 6146 	.db #0x03	; 3
   0B63 FF                 6147 	.db #0xff	; 255
   0B64 03                 6148 	.db #0x03	; 3
   0B65 FF                 6149 	.db #0xff	; 255
   0B66 00                 6150 	.db #0x00	; 0
   0B67 FF                 6151 	.db #0xff	; 255
   0B68 00                 6152 	.db #0x00	; 0
   0B69 FF                 6153 	.db #0xff	; 255
   0B6A 00                 6154 	.db #0x00	; 0
   0B6B FF                 6155 	.db #0xff	; 255
   0B6C 00                 6156 	.db #0x00	; 0
   0B6D FF                 6157 	.db #0xff	; 255
   0B6E FC                 6158 	.db #0xfc	; 252
   0B6F FF                 6159 	.db #0xff	; 255
   0B70 FC                 6160 	.db #0xfc	; 252
   0B71 FF                 6161 	.db #0xff	; 255
   0B72 FC                 6162 	.db #0xfc	; 252
   0B73 FF                 6163 	.db #0xff	; 255
   0B74 FC                 6164 	.db #0xfc	; 252
   0B75 FF                 6165 	.db #0xff	; 255
   0B76 00                 6166 	.db #0x00	; 0
   0B77 FF                 6167 	.db #0xff	; 255
   0B78 00                 6168 	.db #0x00	; 0
   0B79 FF                 6169 	.db #0xff	; 255
   0B7A 00                 6170 	.db #0x00	; 0
   0B7B FF                 6171 	.db #0xff	; 255
   0B7C 00                 6172 	.db #0x00	; 0
   0B7D                    6173 _you_win_map:
   0B7D 00                 6174 	.db #0x00	; 0
   0B7E 00                 6175 	.db #0x00	; 0
   0B7F 00                 6176 	.db #0x00	; 0
   0B80 00                 6177 	.db #0x00	; 0
   0B81 00                 6178 	.db #0x00	; 0
   0B82 00                 6179 	.db #0x00	; 0
   0B83 00                 6180 	.db #0x00	; 0
   0B84 00                 6181 	.db #0x00	; 0
   0B85 00                 6182 	.db #0x00	; 0
   0B86 00                 6183 	.db #0x00	; 0
   0B87 00                 6184 	.db #0x00	; 0
   0B88 00                 6185 	.db #0x00	; 0
   0B89 00                 6186 	.db #0x00	; 0
   0B8A 00                 6187 	.db #0x00	; 0
   0B8B 00                 6188 	.db #0x00	; 0
   0B8C 00                 6189 	.db #0x00	; 0
   0B8D 00                 6190 	.db #0x00	; 0
   0B8E 00                 6191 	.db #0x00	; 0
   0B8F 00                 6192 	.db #0x00	; 0
   0B90 00                 6193 	.db #0x00	; 0
   0B91 00                 6194 	.db #0x00	; 0
   0B92 01                 6195 	.db #0x01	; 1
   0B93 02                 6196 	.db #0x02	; 2
   0B94 03                 6197 	.db #0x03	; 3
   0B95 02                 6198 	.db #0x02	; 2
   0B96 03                 6199 	.db #0x03	; 3
   0B97 02                 6200 	.db #0x02	; 2
   0B98 03                 6201 	.db #0x03	; 3
   0B99 02                 6202 	.db #0x02	; 2
   0B9A 04                 6203 	.db #0x04	; 4
   0B9B 05                 6204 	.db #0x05	; 5
   0B9C 06                 6205 	.db #0x06	; 6
   0B9D 07                 6206 	.db #0x07	; 7
   0B9E 05                 6207 	.db #0x05	; 5
   0B9F 08                 6208 	.db #0x08	; 8
   0BA0 06                 6209 	.db #0x06	; 6
   0BA1 06                 6210 	.db #0x06	; 6
   0BA2 09                 6211 	.db #0x09	; 9
   0BA3 0A                 6212 	.db #0x0a	; 10
   0BA4 00                 6213 	.db #0x00	; 0
   0BA5 00                 6214 	.db #0x00	; 0
   0BA6 0B                 6215 	.db #0x0b	; 11
   0BA7 0C                 6216 	.db #0x0c	; 12
   0BA8 0D                 6217 	.db #0x0d	; 13
   0BA9 0C                 6218 	.db #0x0c	; 12
   0BAA 0D                 6219 	.db #0x0d	; 13
   0BAB 0C                 6220 	.db #0x0c	; 12
   0BAC 0D                 6221 	.db #0x0d	; 13
   0BAD 0C                 6222 	.db #0x0c	; 12
   0BAE 0E                 6223 	.db #0x0e	; 14
   0BAF 0F                 6224 	.db #0x0f	; 15
   0BB0 10                 6225 	.db #0x10	; 16
   0BB1 11                 6226 	.db #0x11	; 17
   0BB2 12                 6227 	.db #0x12	; 18
   0BB3 13                 6228 	.db #0x13	; 19
   0BB4 14                 6229 	.db #0x14	; 20
   0BB5 15                 6230 	.db #0x15	; 21
   0BB6 16                 6231 	.db #0x16	; 22
   0BB7 17                 6232 	.db #0x17	; 23
   0BB8 00                 6233 	.db #0x00	; 0
   0BB9 00                 6234 	.db #0x00	; 0
   0BBA 0B                 6235 	.db #0x0b	; 11
   0BBB 0D                 6236 	.db #0x0d	; 13
   0BBC 0D                 6237 	.db #0x0d	; 13
   0BBD 0D                 6238 	.db #0x0d	; 13
   0BBE 0D                 6239 	.db #0x0d	; 13
   0BBF 0D                 6240 	.db #0x0d	; 13
   0BC0 0D                 6241 	.db #0x0d	; 13
   0BC1 0D                 6242 	.db #0x0d	; 13
   0BC2 0E                 6243 	.db #0x0e	; 14
   0BC3 00                 6244 	.db #0x00	; 0
   0BC4 18                 6245 	.db #0x18	; 24
   0BC5 19                 6246 	.db #0x19	; 25
   0BC6 0B                 6247 	.db #0x0b	; 11
   0BC7 00                 6248 	.db #0x00	; 0
   0BC8 0E                 6249 	.db #0x0e	; 14
   0BC9 15                 6250 	.db #0x15	; 21
   0BCA 1A                 6251 	.db #0x1a	; 26
   0BCB 17                 6252 	.db #0x17	; 23
   0BCC 00                 6253 	.db #0x00	; 0
   0BCD 00                 6254 	.db #0x00	; 0
   0BCE 1B                 6255 	.db #0x1b	; 27
   0BCF 1C                 6256 	.db #0x1c	; 28
   0BD0 1C                 6257 	.db #0x1c	; 28
   0BD1 1C                 6258 	.db #0x1c	; 28
   0BD2 1C                 6259 	.db #0x1c	; 28
   0BD3 1C                 6260 	.db #0x1c	; 28
   0BD4 1C                 6261 	.db #0x1c	; 28
   0BD5 1C                 6262 	.db #0x1c	; 28
   0BD6 1D                 6263 	.db #0x1d	; 29
   0BD7 00                 6264 	.db #0x00	; 0
   0BD8 1E                 6265 	.db #0x1e	; 30
   0BD9 1F                 6266 	.db #0x1f	; 31
   0BDA 20                 6267 	.db #0x20	; 32
   0BDB 21                 6268 	.db #0x21	; 33
   0BDC 22                 6269 	.db #0x22	; 34
   0BDD 23                 6270 	.db #0x23	; 35
   0BDE 24                 6271 	.db #0x24	; 36
   0BDF 25                 6272 	.db #0x25	; 37
   0BE0 00                 6273 	.db #0x00	; 0
   0BE1 00                 6274 	.db #0x00	; 0
   0BE2 0B                 6275 	.db #0x0b	; 11
   0BE3 0D                 6276 	.db #0x0d	; 13
   0BE4 0D                 6277 	.db #0x0d	; 13
   0BE5 0D                 6278 	.db #0x0d	; 13
   0BE6 0D                 6279 	.db #0x0d	; 13
   0BE7 0D                 6280 	.db #0x0d	; 13
   0BE8 0D                 6281 	.db #0x0d	; 13
   0BE9 0D                 6282 	.db #0x0d	; 13
   0BEA 0E                 6283 	.db #0x0e	; 14
   0BEB 00                 6284 	.db #0x00	; 0
   0BEC 00                 6285 	.db #0x00	; 0
   0BED 00                 6286 	.db #0x00	; 0
   0BEE 00                 6287 	.db #0x00	; 0
   0BEF 00                 6288 	.db #0x00	; 0
   0BF0 00                 6289 	.db #0x00	; 0
   0BF1 00                 6290 	.db #0x00	; 0
   0BF2 00                 6291 	.db #0x00	; 0
   0BF3 00                 6292 	.db #0x00	; 0
   0BF4 00                 6293 	.db #0x00	; 0
   0BF5 00                 6294 	.db #0x00	; 0
   0BF6 0B                 6295 	.db #0x0b	; 11
   0BF7 26                 6296 	.db #0x26	; 38
   0BF8 27                 6297 	.db #0x27	; 39
   0BF9 27                 6298 	.db #0x27	; 39
   0BFA 28                 6299 	.db #0x28	; 40
   0BFB 29                 6300 	.db #0x29	; 41
   0BFC 27                 6301 	.db #0x27	; 39
   0BFD 2A                 6302 	.db #0x2a	; 42
   0BFE 0E                 6303 	.db #0x0e	; 14
   0BFF 2B                 6304 	.db #0x2b	; 43
   0C00 2C                 6305 	.db #0x2c	; 44
   0C01 2D                 6306 	.db #0x2d	; 45
   0C02 2E                 6307 	.db #0x2e	; 46
   0C03 2F                 6308 	.db #0x2f	; 47
   0C04 30                 6309 	.db #0x30	; 48	'0'
   0C05 31                 6310 	.db #0x31	; 49	'1'
   0C06 32                 6311 	.db #0x32	; 50	'2'
   0C07 33                 6312 	.db #0x33	; 51	'3'
   0C08 00                 6313 	.db #0x00	; 0
   0C09 00                 6314 	.db #0x00	; 0
   0C0A 0B                 6315 	.db #0x0b	; 11
   0C0B 34                 6316 	.db #0x34	; 52	'4'
   0C0C 35                 6317 	.db #0x35	; 53	'5'
   0C0D 35                 6318 	.db #0x35	; 53	'5'
   0C0E 36                 6319 	.db #0x36	; 54	'6'
   0C0F 37                 6320 	.db #0x37	; 55	'7'
   0C10 35                 6321 	.db #0x35	; 53	'5'
   0C11 38                 6322 	.db #0x38	; 56	'8'
   0C12 0E                 6323 	.db #0x0e	; 14
   0C13 39                 6324 	.db #0x39	; 57	'9'
   0C14 3A                 6325 	.db #0x3a	; 58
   0C15 3B                 6326 	.db #0x3b	; 59
   0C16 3C                 6327 	.db #0x3c	; 60
   0C17 15                 6328 	.db #0x15	; 21
   0C18 3D                 6329 	.db #0x3d	; 61
   0C19 3E                 6330 	.db #0x3e	; 62
   0C1A 3F                 6331 	.db #0x3f	; 63
   0C1B 40                 6332 	.db #0x40	; 64
   0C1C 00                 6333 	.db #0x00	; 0
   0C1D 00                 6334 	.db #0x00	; 0
   0C1E 0B                 6335 	.db #0x0b	; 11
   0C1F 34                 6336 	.db #0x34	; 52	'4'
   0C20 35                 6337 	.db #0x35	; 53	'5'
   0C21 35                 6338 	.db #0x35	; 53	'5'
   0C22 36                 6339 	.db #0x36	; 54	'6'
   0C23 37                 6340 	.db #0x37	; 55	'7'
   0C24 35                 6341 	.db #0x35	; 53	'5'
   0C25 38                 6342 	.db #0x38	; 56	'8'
   0C26 0E                 6343 	.db #0x0e	; 14
   0C27 41                 6344 	.db #0x41	; 65	'A'
   0C28 42                 6345 	.db #0x42	; 66	'B'
   0C29 43                 6346 	.db #0x43	; 67	'C'
   0C2A 44                 6347 	.db #0x44	; 68	'D'
   0C2B 45                 6348 	.db #0x45	; 69	'E'
   0C2C 46                 6349 	.db #0x46	; 70	'F'
   0C2D 47                 6350 	.db #0x47	; 71	'G'
   0C2E 48                 6351 	.db #0x48	; 72	'H'
   0C2F 49                 6352 	.db #0x49	; 73	'I'
   0C30 00                 6353 	.db #0x00	; 0
   0C31 00                 6354 	.db #0x00	; 0
   0C32 0B                 6355 	.db #0x0b	; 11
   0C33 4A                 6356 	.db #0x4a	; 74	'J'
   0C34 4B                 6357 	.db #0x4b	; 75	'K'
   0C35 4B                 6358 	.db #0x4b	; 75	'K'
   0C36 4C                 6359 	.db #0x4c	; 76	'L'
   0C37 4D                 6360 	.db #0x4d	; 77	'M'
   0C38 4B                 6361 	.db #0x4b	; 75	'K'
   0C39 4E                 6362 	.db #0x4e	; 78	'N'
   0C3A 0E                 6363 	.db #0x0e	; 14
   0C3B 00                 6364 	.db #0x00	; 0
   0C3C 00                 6365 	.db #0x00	; 0
   0C3D 00                 6366 	.db #0x00	; 0
   0C3E 00                 6367 	.db #0x00	; 0
   0C3F 00                 6368 	.db #0x00	; 0
   0C40 00                 6369 	.db #0x00	; 0
   0C41 00                 6370 	.db #0x00	; 0
   0C42 00                 6371 	.db #0x00	; 0
   0C43 00                 6372 	.db #0x00	; 0
   0C44 00                 6373 	.db #0x00	; 0
   0C45 00                 6374 	.db #0x00	; 0
   0C46 0B                 6375 	.db #0x0b	; 11
   0C47 4F                 6376 	.db #0x4f	; 79	'O'
   0C48 50                 6377 	.db #0x50	; 80	'P'
   0C49 50                 6378 	.db #0x50	; 80	'P'
   0C4A 51                 6379 	.db #0x51	; 81	'Q'
   0C4B 52                 6380 	.db #0x52	; 82	'R'
   0C4C 50                 6381 	.db #0x50	; 80	'P'
   0C4D 53                 6382 	.db #0x53	; 83	'S'
   0C4E 0E                 6383 	.db #0x0e	; 14
   0C4F 00                 6384 	.db #0x00	; 0
   0C50 54                 6385 	.db #0x54	; 84	'T'
   0C51 55                 6386 	.db #0x55	; 85	'U'
   0C52 56                 6387 	.db #0x56	; 86	'V'
   0C53 55                 6388 	.db #0x55	; 85	'U'
   0C54 57                 6389 	.db #0x57	; 87	'W'
   0C55 55                 6390 	.db #0x55	; 85	'U'
   0C56 58                 6391 	.db #0x58	; 88	'X'
   0C57 00                 6392 	.db #0x00	; 0
   0C58 00                 6393 	.db #0x00	; 0
   0C59 00                 6394 	.db #0x00	; 0
   0C5A 0B                 6395 	.db #0x0b	; 11
   0C5B 0D                 6396 	.db #0x0d	; 13
   0C5C 0D                 6397 	.db #0x0d	; 13
   0C5D 0D                 6398 	.db #0x0d	; 13
   0C5E 0D                 6399 	.db #0x0d	; 13
   0C5F 0D                 6400 	.db #0x0d	; 13
   0C60 0D                 6401 	.db #0x0d	; 13
   0C61 0D                 6402 	.db #0x0d	; 13
   0C62 0E                 6403 	.db #0x0e	; 14
   0C63 00                 6404 	.db #0x00	; 0
   0C64 59                 6405 	.db #0x59	; 89	'Y'
   0C65 0D                 6406 	.db #0x0d	; 13
   0C66 5A                 6407 	.db #0x5a	; 90	'Z'
   0C67 0D                 6408 	.db #0x0d	; 13
   0C68 5B                 6409 	.db #0x5b	; 91
   0C69 0D                 6410 	.db #0x0d	; 13
   0C6A 5C                 6411 	.db #0x5c	; 92
   0C6B 00                 6412 	.db #0x00	; 0
   0C6C 00                 6413 	.db #0x00	; 0
   0C6D 00                 6414 	.db #0x00	; 0
   0C6E 5D                 6415 	.db #0x5d	; 93
   0C6F 5E                 6416 	.db #0x5e	; 94
   0C70 0D                 6417 	.db #0x0d	; 13
   0C71 0D                 6418 	.db #0x0d	; 13
   0C72 5F                 6419 	.db #0x5f	; 95
   0C73 60                 6420 	.db #0x60	; 96
   0C74 0D                 6421 	.db #0x0d	; 13
   0C75 0D                 6422 	.db #0x0d	; 13
   0C76 0E                 6423 	.db #0x0e	; 14
   0C77 00                 6424 	.db #0x00	; 0
   0C78 61                 6425 	.db #0x61	; 97	'a'
   0C79 62                 6426 	.db #0x62	; 98	'b'
   0C7A 63                 6427 	.db #0x63	; 99	'c'
   0C7B 62                 6428 	.db #0x62	; 98	'b'
   0C7C 64                 6429 	.db #0x64	; 100	'd'
   0C7D 62                 6430 	.db #0x62	; 98	'b'
   0C7E 65                 6431 	.db #0x65	; 101	'e'
   0C7F 00                 6432 	.db #0x00	; 0
   0C80 00                 6433 	.db #0x00	; 0
   0C81 00                 6434 	.db #0x00	; 0
   0C82 00                 6435 	.db #0x00	; 0
   0C83 66                 6436 	.db #0x66	; 102	'f'
   0C84 0D                 6437 	.db #0x0d	; 13
   0C85 0D                 6438 	.db #0x0d	; 13
   0C86 15                 6439 	.db #0x15	; 21
   0C87 16                 6440 	.db #0x16	; 22
   0C88 0D                 6441 	.db #0x0d	; 13
   0C89 0D                 6442 	.db #0x0d	; 13
   0C8A 0E                 6443 	.db #0x0e	; 14
   0C8B 00                 6444 	.db #0x00	; 0
   0C8C 00                 6445 	.db #0x00	; 0
   0C8D 00                 6446 	.db #0x00	; 0
   0C8E 00                 6447 	.db #0x00	; 0
   0C8F 00                 6448 	.db #0x00	; 0
   0C90 00                 6449 	.db #0x00	; 0
   0C91 00                 6450 	.db #0x00	; 0
   0C92 00                 6451 	.db #0x00	; 0
   0C93 00                 6452 	.db #0x00	; 0
   0C94 00                 6453 	.db #0x00	; 0
   0C95 00                 6454 	.db #0x00	; 0
   0C96 00                 6455 	.db #0x00	; 0
   0C97 66                 6456 	.db #0x66	; 102	'f'
   0C98 0D                 6457 	.db #0x0d	; 13
   0C99 0D                 6458 	.db #0x0d	; 13
   0C9A 15                 6459 	.db #0x15	; 21
   0C9B 16                 6460 	.db #0x16	; 22
   0C9C 0D                 6461 	.db #0x0d	; 13
   0C9D 0D                 6462 	.db #0x0d	; 13
   0C9E 0E                 6463 	.db #0x0e	; 14
   0C9F 00                 6464 	.db #0x00	; 0
   0CA0 00                 6465 	.db #0x00	; 0
   0CA1 00                 6466 	.db #0x00	; 0
   0CA2 00                 6467 	.db #0x00	; 0
   0CA3 00                 6468 	.db #0x00	; 0
   0CA4 00                 6469 	.db #0x00	; 0
   0CA5 00                 6470 	.db #0x00	; 0
   0CA6 00                 6471 	.db #0x00	; 0
   0CA7 00                 6472 	.db #0x00	; 0
   0CA8 00                 6473 	.db #0x00	; 0
   0CA9 00                 6474 	.db #0x00	; 0
   0CAA 00                 6475 	.db #0x00	; 0
   0CAB 66                 6476 	.db #0x66	; 102	'f'
   0CAC 0D                 6477 	.db #0x0d	; 13
   0CAD 0D                 6478 	.db #0x0d	; 13
   0CAE 15                 6479 	.db #0x15	; 21
   0CAF 16                 6480 	.db #0x16	; 22
   0CB0 0D                 6481 	.db #0x0d	; 13
   0CB1 0D                 6482 	.db #0x0d	; 13
   0CB2 0E                 6483 	.db #0x0e	; 14
   0CB3 00                 6484 	.db #0x00	; 0
   0CB4 00                 6485 	.db #0x00	; 0
   0CB5 00                 6486 	.db #0x00	; 0
   0CB6 00                 6487 	.db #0x00	; 0
   0CB7 00                 6488 	.db #0x00	; 0
   0CB8 00                 6489 	.db #0x00	; 0
   0CB9 00                 6490 	.db #0x00	; 0
   0CBA 00                 6491 	.db #0x00	; 0
   0CBB 00                 6492 	.db #0x00	; 0
   0CBC 00                 6493 	.db #0x00	; 0
   0CBD 00                 6494 	.db #0x00	; 0
   0CBE 00                 6495 	.db #0x00	; 0
   0CBF 67                 6496 	.db #0x67	; 103	'g'
   0CC0 21                 6497 	.db #0x21	; 33
   0CC1 21                 6498 	.db #0x21	; 33
   0CC2 22                 6499 	.db #0x22	; 34
   0CC3 68                 6500 	.db #0x68	; 104	'h'
   0CC4 21                 6501 	.db #0x21	; 33
   0CC5 21                 6502 	.db #0x21	; 33
   0CC6 69                 6503 	.db #0x69	; 105	'i'
   0CC7 00                 6504 	.db #0x00	; 0
   0CC8 00                 6505 	.db #0x00	; 0
   0CC9 00                 6506 	.db #0x00	; 0
   0CCA 00                 6507 	.db #0x00	; 0
   0CCB 00                 6508 	.db #0x00	; 0
   0CCC 00                 6509 	.db #0x00	; 0
   0CCD 00                 6510 	.db #0x00	; 0
   0CCE 00                 6511 	.db #0x00	; 0
   0CCF 00                 6512 	.db #0x00	; 0
   0CD0 00                 6513 	.db #0x00	; 0
   0CD1 00                 6514 	.db #0x00	; 0
   0CD2 00                 6515 	.db #0x00	; 0
   0CD3 00                 6516 	.db #0x00	; 0
   0CD4 00                 6517 	.db #0x00	; 0
   0CD5 00                 6518 	.db #0x00	; 0
   0CD6 00                 6519 	.db #0x00	; 0
   0CD7 00                 6520 	.db #0x00	; 0
   0CD8 00                 6521 	.db #0x00	; 0
   0CD9 00                 6522 	.db #0x00	; 0
   0CDA 00                 6523 	.db #0x00	; 0
   0CDB 00                 6524 	.db #0x00	; 0
   0CDC 00                 6525 	.db #0x00	; 0
   0CDD 00                 6526 	.db #0x00	; 0
   0CDE 00                 6527 	.db #0x00	; 0
   0CDF 00                 6528 	.db #0x00	; 0
   0CE0 00                 6529 	.db #0x00	; 0
   0CE1 00                 6530 	.db #0x00	; 0
   0CE2 00                 6531 	.db #0x00	; 0
   0CE3 00                 6532 	.db #0x00	; 0
   0CE4 00                 6533 	.db #0x00	; 0
                           6534 ;./src/./maps.c:50: void set_map (MPlayer* player){
                           6535 ;	---------------------------------
                           6536 ; Function set_map
                           6537 ; ---------------------------------
   0CE5                    6538 _set_map::
   0CE5 E8 FC              6539 	add	sp, #-4
                           6540 ;./src/./maps.c:51: SWITCH_ROM_MBC1(1); 
   0CE7 21 00 20           6541 	ld	hl, #0x2000
   0CEA 36 01              6542 	ld	(hl), #0x01
                           6543 ;./src/./maps.c:52: set_bkg_tiles(0,0,20,18,GLOBAL_MAP);
   0CEC 21rF6r02           6544 	ld	hl, #_current_level
   0CEF 4E                 6545 	ld	c, (hl)
   0CF0 06 00              6546 	ld	b, #0x00
   0CF2 69                 6547 	ld	l, c
   0CF3 60                 6548 	ld	h, b
   0CF4 29                 6549 	add	hl, hl
   0CF5 29                 6550 	add	hl, hl
   0CF6 09                 6551 	add	hl, bc
   0CF7 29                 6552 	add	hl, hl
   0CF8 09                 6553 	add	hl, bc
   0CF9 29                 6554 	add	hl, hl
   0CFA 29                 6555 	add	hl, hl
   0CFB 09                 6556 	add	hl, bc
   0CFC 29                 6557 	add	hl, hl
   0CFD 29                 6558 	add	hl, hl
   0CFE 29                 6559 	add	hl, hl
   0CFF 4D                 6560 	ld	c, l
   0D00 44                 6561 	ld	b, h
   0D01 21rF8r02           6562 	ld	hl, #_maps
   0D04 09                 6563 	add	hl, bc
   0D05 4D                 6564 	ld	c, l
   0D06 7C                 6565 	ld	a, h
   0D07 47                 6566 	ld	b, a
   0D08 C5                 6567 	push	bc
   0D09 3E 12              6568 	ld	a, #0x12
   0D0B F5                 6569 	push	af
   0D0C 33                 6570 	inc	sp
   0D0D 3E 14              6571 	ld	a, #0x14
   0D0F F5                 6572 	push	af
   0D10 33                 6573 	inc	sp
   0D11 AF                 6574 	xor	a, a
   0D12 F5                 6575 	push	af
   0D13 33                 6576 	inc	sp
   0D14 AF                 6577 	xor	a, a
   0D15 F5                 6578 	push	af
   0D16 33                 6579 	inc	sp
   0D17 CDr00r00           6580 	call	_set_bkg_tiles
   0D1A E8 06              6581 	add	sp, #6
                           6582 ;./src/./maps.c:53: SWITCH_ROM_MBC1(0);
   0D1C 21 00 20           6583 	ld	hl, #0x2000
   0D1F 36 00              6584 	ld	(hl), #0x00
                           6585 ;./src/./maps.c:55: for(UINT16 i = 20 * 18 - 1; i >= 0; --i){
   0D21 F8 02              6586 	ldhl	sp,	#2
   0D23 36 67              6587 	ld	(hl), #0x67
   0D25 23                 6588 	inc	hl
   0D26 36 01              6589 	ld	(hl), #0x01
   0D28                    6590 00104$:
                           6591 ;./src/./maps.c:56: SWITCH_ROM_MBC1(1);
   0D28 21 00 20           6592 	ld	hl, #0x2000
   0D2B 36 01              6593 	ld	(hl), #0x01
                           6594 ;./src/./maps.c:57: if(GLOBAL_MAP[i] == START_TILE){
   0D2D 21rF6r02           6595 	ld	hl, #_current_level
   0D30 4E                 6596 	ld	c, (hl)
   0D31 06 00              6597 	ld	b, #0x00
   0D33 69                 6598 	ld	l, c
   0D34 60                 6599 	ld	h, b
   0D35 29                 6600 	add	hl, hl
   0D36 29                 6601 	add	hl, hl
   0D37 09                 6602 	add	hl, bc
   0D38 29                 6603 	add	hl, hl
   0D39 09                 6604 	add	hl, bc
   0D3A 29                 6605 	add	hl, hl
   0D3B 29                 6606 	add	hl, hl
   0D3C 09                 6607 	add	hl, bc
   0D3D 29                 6608 	add	hl, hl
   0D3E 29                 6609 	add	hl, hl
   0D3F 29                 6610 	add	hl, hl
   0D40 4D                 6611 	ld	c, l
   0D41 44                 6612 	ld	b, h
   0D42 21rF8r02           6613 	ld	hl, #_maps
   0D45 09                 6614 	add	hl, bc
   0D46 4D                 6615 	ld	c, l
   0D47 44                 6616 	ld	b, h
   0D48 F8 02              6617 	ldhl	sp,	#2
   0D4A 2A                 6618 	ld	a, (hl+)
   0D4B 66                 6619 	ld	h, (hl)
   0D4C 6F                 6620 	ld	l, a
   0D4D 09                 6621 	add	hl, bc
   0D4E 4D                 6622 	ld	c, l
   0D4F 44                 6623 	ld	b, h
   0D50 0A                 6624 	ld	a, (bc)
   0D51 D6 02              6625 	sub	a, #0x02
   0D53 C2r9Br0D           6626 	jp	NZ,00106$
                           6627 ;./src/./maps.c:58: SWITCH_ROM_MBC1(0);
   0D56 21 00 20           6628 	ld	hl, #0x2000
   0D59 36 00              6629 	ld	(hl), #0x00
                           6630 ;./src/./maps.c:59: player->sprite.position.x = i % 20 * 8 + 8;
   0D5B F8 06              6631 	ldhl	sp,#(7 - 1)
   0D5D 4E                 6632 	ld	c, (hl)
   0D5E 23                 6633 	inc	hl
   0D5F 46                 6634 	ld	b, (hl)
   0D60 C5                 6635 	push	bc
   0D61 21 14 00           6636 	ld	hl, #0x0014
   0D64 E5                 6637 	push	hl
   0D65 F8 06              6638 	ldhl	sp,	#6
   0D67 2A                 6639 	ld	a, (hl+)
   0D68 66                 6640 	ld	h, (hl)
   0D69 6F                 6641 	ld	l, a
   0D6A E5                 6642 	push	hl
   0D6B CDr00r00           6643 	call	__moduint
   0D6E E8 04              6644 	add	sp, #4
   0D70 C1                 6645 	pop	bc
   0D71 7B                 6646 	ld	a, e
   0D72 87                 6647 	add	a, a
   0D73 87                 6648 	add	a, a
   0D74 87                 6649 	add	a, a
   0D75 C6 08              6650 	add	a, #0x08
   0D77 02                 6651 	ld	(bc), a
                           6652 ;./src/./maps.c:60: player->sprite.position.y = i / 20 * 8 + 16;
   0D78 21 01 00           6653 	ld	hl, #0x0001
   0D7B 09                 6654 	add	hl, bc
   0D7C 33                 6655 	inc	sp
   0D7D 33                 6656 	inc	sp
   0D7E E5                 6657 	push	hl
   0D7F C5                 6658 	push	bc
   0D80 21 14 00           6659 	ld	hl, #0x0014
   0D83 E5                 6660 	push	hl
   0D84 F8 06              6661 	ldhl	sp,	#6
   0D86 2A                 6662 	ld	a, (hl+)
   0D87 66                 6663 	ld	h, (hl)
   0D88 6F                 6664 	ld	l, a
   0D89 E5                 6665 	push	hl
   0D8A CDr00r00           6666 	call	__divuint
   0D8D E8 04              6667 	add	sp, #4
   0D8F C1                 6668 	pop	bc
   0D90 7B                 6669 	ld	a, e
   0D91 87                 6670 	add	a, a
   0D92 87                 6671 	add	a, a
   0D93 87                 6672 	add	a, a
   0D94 C6 10              6673 	add	a, #0x10
   0D96 E1                 6674 	pop	hl
   0D97 E5                 6675 	push	hl
   0D98 77                 6676 	ld	(hl), a
                           6677 ;./src/./maps.c:61: break;
   0D99 18 0D              6678 	jr	00103$
   0D9B                    6679 00106$:
                           6680 ;./src/./maps.c:55: for(UINT16 i = 20 * 18 - 1; i >= 0; --i){
   0D9B F8 02              6681 	ldhl	sp,#(3 - 1)
   0D9D 5E                 6682 	ld	e, (hl)
   0D9E 23                 6683 	inc	hl
   0D9F 56                 6684 	ld	d, (hl)
   0DA0 1B                 6685 	dec	de
   0DA1 2B                 6686 	dec	hl
   0DA2 73                 6687 	ld	(hl), e
   0DA3 23                 6688 	inc	hl
   0DA4 72                 6689 	ld	(hl), d
   0DA5 C3r28r0D           6690 	jp	00104$
   0DA8                    6691 00103$:
                           6692 ;./src/./maps.c:65: update_position(&(player->sprite));
   0DA8 C5                 6693 	push	bc
   0DA9 CDr97r00           6694 	call	_update_position
   0DAC E8 02              6695 	add	sp, #2
                           6696 ;./src/./maps.c:67: }
   0DAE E8 04              6697 	add	sp, #4
   0DB0 C9                 6698 	ret
                           6699 ;./src/./maps.c:69: BYTE win_condition (MPlayer* player){
                           6700 ;	---------------------------------
                           6701 ; Function win_condition
                           6702 ; ---------------------------------
   0DB1                    6703 _win_condition::
   0DB1 E8 FC              6704 	add	sp, #-4
                           6705 ;./src/./maps.c:70: UINT16 pos = get_world_to_map((player->sprite.position.x), player->sprite.position.y);
   0DB3 F8 06              6706 	ldhl	sp,	#6
   0DB5 2A                 6707 	ld	a, (hl+)
   0DB6 5E                 6708 	ld	e, (hl)
   0DB7 F8 00              6709 	ldhl	sp,	#0
   0DB9 22                 6710 	ld	(hl+), a
   0DBA 73                 6711 	ld	(hl), e
   0DBB C1                 6712 	pop	bc
   0DBC C5                 6713 	push	bc
   0DBD 03                 6714 	inc	bc
   0DBE 0A                 6715 	ld	a, (bc)
   0DBF 4F                 6716 	ld	c, a
   0DC0 06 00              6717 	ld	b, #0x00
   0DC2 D1                 6718 	pop	de
   0DC3 D5                 6719 	push	de
   0DC4 1A                 6720 	ld	a,(de)
   0DC5 5F                 6721 	ld	e, a
   0DC6 16 00              6722 	ld	d, #0x00
   0DC8 C5                 6723 	push	bc
   0DC9 D5                 6724 	push	de
   0DCA CDr88r04           6725 	call	_get_world_to_map
   0DCD E8 04              6726 	add	sp, #4
   0DCF F8 02              6727 	ldhl	sp,	#2
   0DD1 73                 6728 	ld	(hl), e
   0DD2 23                 6729 	inc	hl
   0DD3 72                 6730 	ld	(hl), d
                           6731 ;./src/./maps.c:71: SWITCH_ROM_MBC1(1);
   0DD4 21 00 20           6732 	ld	hl, #0x2000
   0DD7 36 01              6733 	ld	(hl), #0x01
                           6734 ;./src/./maps.c:72: if(GLOBAL_MAP[pos] == FLAG_TILE){
   0DD9 21rF6r02           6735 	ld	hl, #_current_level
   0DDC 4E                 6736 	ld	c, (hl)
   0DDD 06 00              6737 	ld	b, #0x00
   0DDF 69                 6738 	ld	l, c
   0DE0 60                 6739 	ld	h, b
   0DE1 29                 6740 	add	hl, hl
   0DE2 29                 6741 	add	hl, hl
   0DE3 09                 6742 	add	hl, bc
   0DE4 29                 6743 	add	hl, hl
   0DE5 09                 6744 	add	hl, bc
   0DE6 29                 6745 	add	hl, hl
   0DE7 29                 6746 	add	hl, hl
   0DE8 09                 6747 	add	hl, bc
   0DE9 29                 6748 	add	hl, hl
   0DEA 29                 6749 	add	hl, hl
   0DEB 29                 6750 	add	hl, hl
   0DEC 4D                 6751 	ld	c, l
   0DED 44                 6752 	ld	b, h
   0DEE 21rF8r02           6753 	ld	hl, #_maps
   0DF1 09                 6754 	add	hl, bc
   0DF2 4D                 6755 	ld	c, l
   0DF3 44                 6756 	ld	b, h
   0DF4 F8 02              6757 	ldhl	sp,	#2
   0DF6 2A                 6758 	ld	a, (hl+)
   0DF7 66                 6759 	ld	h, (hl)
   0DF8 6F                 6760 	ld	l, a
   0DF9 09                 6761 	add	hl, bc
   0DFA 4D                 6762 	ld	c, l
   0DFB 44                 6763 	ld	b, h
   0DFC 0A                 6764 	ld	a, (bc)
   0DFD 3D                 6765 	dec	a
   0DFE C2r7Br0E           6766 	jp	NZ,00105$
                           6767 ;./src/./maps.c:73: SWITCH_ROM_MBC1(0);
   0E01 21 00 20           6768 	ld	hl, #0x2000
   0E04 36 00              6769 	ld	(hl), #0x00
                           6770 ;./src/./maps.c:74: if(current_level < TOTAL_MAP_NUM - 1){
   0E06 21rF6r02           6771 	ld	hl, #_current_level
   0E09 7E                 6772 	ld	a, (hl)
   0E0A D6 05              6773 	sub	a, #0x05
   0E0C 30 1A              6774 	jr	NC,00102$
                           6775 ;./src/./maps.c:77: delay(100);
   0E0E 21 64 00           6776 	ld	hl, #0x0064
   0E11 E5                 6777 	push	hl
   0E12 CDr00r00           6778 	call	_delay
   0E15 E8 02              6779 	add	sp, #2
                           6780 ;./src/./maps.c:78: ++current_level;
   0E17 21rF6r02           6781 	ld	hl, #_current_level
   0E1A 34                 6782 	inc	(hl)
                           6783 ;./src/./maps.c:79: set_map(player);
   0E1B E1                 6784 	pop	hl
   0E1C E5                 6785 	push	hl
   0E1D E5                 6786 	push	hl
   0E1E CDrE5r0C           6787 	call	_set_map
   0E21 E8 02              6788 	add	sp, #2
                           6789 ;./src/./maps.c:80: return 1;
   0E23 1E 01              6790 	ld	e, #0x01
   0E25 C3r7Dr0E           6791 	jp	00106$
   0E28                    6792 00102$:
                           6793 ;./src/./maps.c:84: move_sprite(player->sprite.sprite_number, 180, 0 );
   0E28 D1                 6794 	pop	de
   0E29 D5                 6795 	push	de
   0E2A 21 04 00           6796 	ld	hl, #0x0004
   0E2D 19                 6797 	add	hl, de
   0E2E 4D                 6798 	ld	c,l
   0E2F 7C                 6799 	ld	a,h
   0E30 46                 6800 	ld	b, (hl)
   0E31 AF                 6801 	xor	a, a
   0E32 F5                 6802 	push	af
   0E33 33                 6803 	inc	sp
   0E34 3E B4              6804 	ld	a, #0xb4
   0E36 F5                 6805 	push	af
   0E37 33                 6806 	inc	sp
   0E38 C5                 6807 	push	bc
   0E39 33                 6808 	inc	sp
   0E3A CDr00r00           6809 	call	_move_sprite
   0E3D E8 03              6810 	add	sp, #3
                           6811 ;./src/./maps.c:85: set_bkg_data(0, 114, you_win_data);
   0E3F 21rDDr04           6812 	ld	hl, #_you_win_data
   0E42 E5                 6813 	push	hl
   0E43 3E 72              6814 	ld	a, #0x72
   0E45 F5                 6815 	push	af
   0E46 33                 6816 	inc	sp
   0E47 AF                 6817 	xor	a, a
   0E48 F5                 6818 	push	af
   0E49 33                 6819 	inc	sp
   0E4A CDr00r00           6820 	call	_set_bkg_data
   0E4D E8 04              6821 	add	sp, #4
                           6822 ;./src/./maps.c:86: set_bkg_tiles(0, 0, 20, 18, you_win_map);
   0E4F 21r7Dr0B           6823 	ld	hl, #_you_win_map
   0E52 E5                 6824 	push	hl
   0E53 3E 12              6825 	ld	a, #0x12
   0E55 F5                 6826 	push	af
   0E56 33                 6827 	inc	sp
   0E57 3E 14              6828 	ld	a, #0x14
   0E59 F5                 6829 	push	af
   0E5A 33                 6830 	inc	sp
   0E5B AF                 6831 	xor	a, a
   0E5C F5                 6832 	push	af
   0E5D 33                 6833 	inc	sp
   0E5E AF                 6834 	xor	a, a
   0E5F F5                 6835 	push	af
   0E60 33                 6836 	inc	sp
   0E61 CDr00r00           6837 	call	_set_bkg_tiles
   0E64 E8 06              6838 	add	sp, #6
                           6839 ;./src/./maps.c:88: current_level = 0;
   0E66 21rF6r02           6840 	ld	hl, #_current_level
   0E69 36 00              6841 	ld	(hl), #0x00
                           6842 ;./src/./maps.c:89: JOYPAD_WAIT_ANY;
   0E6B 3E FF              6843 	ld	a, #0xff
   0E6D F5                 6844 	push	af
   0E6E 33                 6845 	inc	sp
   0E6F CDr00r00           6846 	call	_joypad_wait
   0E72 33                 6847 	inc	sp
                           6848 ;./src/./maps.c:90: set_map(player);
   0E73 E1                 6849 	pop	hl
   0E74 E5                 6850 	push	hl
   0E75 E5                 6851 	push	hl
   0E76 CDrE5r0C           6852 	call	_set_map
   0E79 E8 02              6853 	add	sp, #2
   0E7B                    6854 00105$:
                           6855 ;./src/./maps.c:93: return 0;
   0E7B 1E 00              6856 	ld	e, #0x00
   0E7D                    6857 00106$:
                           6858 ;./src/./maps.c:94: }
   0E7D E8 04              6859 	add	sp, #4
   0E7F C9                 6860 	ret
                           6861 ;./src/./physics.c:3: void gravity(MSprite* sprite){
                           6862 ;	---------------------------------
                           6863 ; Function gravity
                           6864 ; ---------------------------------
   0E80                    6865 _gravity::
   0E80 E8 FC              6866 	add	sp, #-4
                           6867 ;./src/./physics.c:5: if(sprite->col.direction.y != 1 &&
   0E82 F8 06              6868 	ldhl	sp,#(7 - 1)
   0E84 4E                 6869 	ld	c, (hl)
   0E85 23                 6870 	inc	hl
   0E86 46                 6871 	ld	b, (hl)
   0E87 21 0C 00           6872 	ld	hl, #0x000c
   0E8A 09                 6873 	add	hl, bc
   0E8B 7D                 6874 	ld	a, l
   0E8C 54                 6875 	ld	d, h
   0E8D F8 02              6876 	ldhl	sp,	#2
   0E8F 22                 6877 	ld	(hl+), a
   0E90 72                 6878 	ld	(hl), d
   0E91 2B                 6879 	dec	hl
   0E92 5E                 6880 	ld	e, (hl)
   0E93 23                 6881 	inc	hl
   0E94 56                 6882 	ld	d, (hl)
   0E95 1A                 6883 	ld	a,(de)
   0E96 2B                 6884 	dec	hl
   0E97 22                 6885 	ld	(hl+), a
   0E98 13                 6886 	inc	de
   0E99 1A                 6887 	ld	a, (de)
   0E9A 32                 6888 	ld	(hl-), a
   0E9B 7E                 6889 	ld	a, (hl)
   0E9C 3D                 6890 	dec	a
   0E9D 23                 6891 	inc	hl
   0E9E B6                 6892 	or	a, (hl)
   0E9F CAr84r0F           6893 	jp	Z,00104$
                           6894 ;./src/./physics.c:6: FINT(sprite->speed.y) <= 8){
   0EA2 21 07 00           6895 	ld	hl, #0x0007
   0EA5 09                 6896 	add	hl, bc
   0EA6 7D                 6897 	ld	a, l
   0EA7 54                 6898 	ld	d, h
   0EA8 F8 02              6899 	ldhl	sp,	#2
   0EAA 22                 6900 	ld	(hl+), a
   0EAB 72                 6901 	ld	(hl), d
   0EAC 2B                 6902 	dec	hl
   0EAD 5E                 6903 	ld	e, (hl)
   0EAE 23                 6904 	inc	hl
   0EAF 56                 6905 	ld	d, (hl)
   0EB0 1A                 6906 	ld	a,(de)
   0EB1 F8 00              6907 	ldhl	sp,	#0
   0EB3 22                 6908 	ld	(hl+), a
   0EB4 13                 6909 	inc	de
   0EB5 1A                 6910 	ld	a, (de)
   0EB6 77                 6911 	ld	(hl), a
   0EB7 C1                 6912 	pop	bc
   0EB8 C5                 6913 	push	bc
   0EB9 CB 28              6914 	sra	b
   0EBB CB 19              6915 	rr	c
   0EBD CB 28              6916 	sra	b
   0EBF CB 19              6917 	rr	c
   0EC1 CB 28              6918 	sra	b
   0EC3 CB 19              6919 	rr	c
   0EC5 CB 28              6920 	sra	b
   0EC7 CB 19              6921 	rr	c
   0EC9 78                 6922 	ld	a, b
   0ECA 5F                 6923 	ld	e, a
   0ECB 3E 00              6924 	ld	a, #0x00
   0ECD 57                 6925 	ld	d, a
   0ECE 3E 08              6926 	ld	a, #0x08
   0ED0 B9                 6927 	cp	a, c
   0ED1 3E 00              6928 	ld	a, #0x00
   0ED3 98                 6929 	sbc	a, b
   0ED4 CB 7B              6930 	bit	7, e
   0ED6 28 07              6931 	jr	Z,00123$
   0ED8 CB 7A              6932 	bit	7, d
   0EDA 20 08              6933 	jr	NZ,00124$
   0EDC BF                 6934 	cp	a, a
   0EDD 18 05              6935 	jr	00124$
   0EDF                    6936 00123$:
   0EDF CB 7A              6937 	bit	7, d
   0EE1 28 01              6938 	jr	Z,00124$
   0EE3 37                 6939 	scf
   0EE4                    6940 00124$:
   0EE4 DAr84r0F           6941 	jp	C, 00104$
                           6942 ;./src/./physics.c:7: sprite->speed.y =  FADD(sprite->speed.y, FDIV(GRAVITY, ITOF(FPS)));
   0EE7 D1                 6943 	pop	de
   0EE8 D5                 6944 	push	de
   0EE9 21 0E 00           6945 	ld	hl, #0x000e
   0EEC 19                 6946 	add	hl, de
   0EED 4D                 6947 	ld	c, l
   0EEE 44                 6948 	ld	b, h
   0EEF F8 02              6949 	ldhl	sp,	#2
   0EF1 2A                 6950 	ld	a, (hl+)
   0EF2 66                 6951 	ld	h, (hl)
   0EF3 6F                 6952 	ld	l, a
   0EF4 71                 6953 	ld	(hl), c
   0EF5 23                 6954 	inc	hl
   0EF6 70                 6955 	ld	(hl), b
                           6956 ;./src/./physics.c:8: DEBUG_LOG_MESSAGE("ACC: %d.%d", FINT(FDIV(GRAVITY, ITOF(FPS))), FFRAC(FDIV(GRAVITY, ITOF(FPS)), 10))
   0EF7 21 08 00           6957 	ld	hl, #0x0008
   0EFA E5                 6958 	push	hl
   0EFB 2E 00              6959 	ld	l, #0x00
   0EFD E5                 6960 	push	hl
   0EFE 21r87r0F           6961 	ld	hl, #___str_1
   0F01 E5                 6962 	push	hl
   0F02 21rF5r00           6963 	ld	hl, #_debug_buffer
   0F05 E5                 6964 	push	hl
   0F06 CDr00r00           6965 	call	_sprintf
   0F09 E8 08              6966 	add	sp, #8
   0F0B 52                 6967 	ld d, d 
   0F0C 18 08              6968 	jr 800$ 
   0F0E 64 64              6969 	.dw 0x6464 
   0F10 01 00              6970 	.dw 0x0001 
   0F12rF5r00              6971 	.dw #_debug_buffer 
   0F14 00 00              6972 	.dw 0 
   0F16                    6973 	 800$:
                           6974 ;./src/./physics.c:6: FINT(sprite->speed.y) <= 8){
   0F16 F8 02              6975 	ldhl	sp,#(3 - 1)
   0F18 5E                 6976 	ld	e, (hl)
   0F19 23                 6977 	inc	hl
   0F1A 56                 6978 	ld	d, (hl)
   0F1B 1A                 6979 	ld	a,(de)
   0F1C F8 00              6980 	ldhl	sp,	#0
   0F1E 22                 6981 	ld	(hl+), a
   0F1F 13                 6982 	inc	de
   0F20 1A                 6983 	ld	a, (de)
                           6984 ;./src/./physics.c:9: DEBUG_LOG_MESSAGE("sprite y speed: %d.%d", FINT(sprite->speed.y), FFRAC(sprite->speed.y, 10));
   0F21 32                 6985 	ld	(hl-), a
   0F22 7E                 6986 	ld	a, (hl)
   0F23 E6 0F              6987 	and	a, #0x0f
   0F25 4F                 6988 	ld	c, a
   0F26 06 00              6989 	ld	b, #0x00
   0F28 69                 6990 	ld	l, c
   0F29 60                 6991 	ld	h, b
   0F2A 29                 6992 	add	hl, hl
   0F2B 29                 6993 	add	hl, hl
   0F2C 09                 6994 	add	hl, bc
   0F2D 29                 6995 	add	hl, hl
   0F2E 4D                 6996 	ld	c, l
   0F2F 44                 6997 	ld	b, h
   0F30 F8 02              6998 	ldhl	sp,	#2
   0F32 71                 6999 	ld	(hl), c
   0F33 23                 7000 	inc	hl
   0F34 70                 7001 	ld	(hl), b
   0F35 CB 78              7002 	bit	7, b
   0F37 28 0A              7003 	jr	Z,00106$
   0F39 21 0F 00           7004 	ld	hl, #0x000f
   0F3C 09                 7005 	add	hl, bc
   0F3D 7D                 7006 	ld	a, l
   0F3E 54                 7007 	ld	d, h
   0F3F F8 02              7008 	ldhl	sp,	#2
   0F41 22                 7009 	ld	(hl+), a
   0F42 72                 7010 	ld	(hl), d
   0F43                    7011 00106$:
   0F43 F8 02              7012 	ldhl	sp,#(3 - 1)
   0F45 4E                 7013 	ld	c, (hl)
   0F46 23                 7014 	inc	hl
   0F47 46                 7015 	ld	b, (hl)
   0F48 CB 28              7016 	sra	b
   0F4A CB 19              7017 	rr	c
   0F4C CB 28              7018 	sra	b
   0F4E CB 19              7019 	rr	c
   0F50 CB 28              7020 	sra	b
   0F52 CB 19              7021 	rr	c
   0F54 CB 28              7022 	sra	b
   0F56 CB 19              7023 	rr	c
   0F58 D1                 7024 	pop	de
   0F59 D5                 7025 	push	de
   0F5A CB 2A              7026 	sra	d
   0F5C CB 1B              7027 	rr	e
   0F5E CB 2A              7028 	sra	d
   0F60 CB 1B              7029 	rr	e
   0F62 CB 2A              7030 	sra	d
   0F64 CB 1B              7031 	rr	e
   0F66 CB 2A              7032 	sra	d
   0F68 CB 1B              7033 	rr	e
   0F6A C5                 7034 	push	bc
   0F6B D5                 7035 	push	de
   0F6C 21r92r0F           7036 	ld	hl, #___str_2
   0F6F E5                 7037 	push	hl
   0F70 21rF5r00           7038 	ld	hl, #_debug_buffer
   0F73 E5                 7039 	push	hl
   0F74 CDr00r00           7040 	call	_sprintf
   0F77 E8 08              7041 	add	sp, #8
   0F79 52                 7042 	ld d, d 
   0F7A 18 08              7043 	jr 900$ 
   0F7C 64 64              7044 	.dw 0x6464 
   0F7E 01 00              7045 	.dw 0x0001 
   0F80rF5r00              7046 	.dw #_debug_buffer 
   0F82 00 00              7047 	.dw 0 
   0F84                    7048 	 900$:
   0F84                    7049 00104$:
                           7050 ;./src/./physics.c:11: }
   0F84 E8 04              7051 	add	sp, #4
   0F86 C9                 7052 	ret
   0F87                    7053 ___str_1:
   0F87 41 43 43 3A 20 25  7054 	.ascii "ACC: %d.%d"
        64 2E 25 64
   0F91 00                 7055 	.db 0x00
   0F92                    7056 ___str_2:
   0F92 73 70 72 69 74 65  7057 	.ascii "sprite y speed: %d.%d"
        20 79 20 73 70 65
        65 64 3A 20 25 64
        2E 25 64
   0FA7 00                 7058 	.db 0x00
                           7059 ;./src/./physics.c:27: UINT16 round_up(UINT16 num, UINT16 multiple)
                           7060 ;	---------------------------------
                           7061 ; Function round_up
                           7062 ; ---------------------------------
   0FA8                    7063 _round_up::
   0FA8 E8 FE              7064 	add	sp, #-2
                           7065 ;./src/./physics.c:29: if (multiple == 0){
   0FAA F8 07              7066 	ldhl	sp,	#7
   0FAC 3A                 7067 	ld	a, (hl-)
   0FAD B6                 7068 	or	a, (hl)
   0FAE 20 08              7069 	jr	NZ,00102$
                           7070 ;./src/./physics.c:30: return num;
   0FB0 2B                 7071 	dec	hl
   0FB1 2B                 7072 	dec	hl
   0FB2 5E                 7073 	ld	e, (hl)
   0FB3 23                 7074 	inc	hl
   0FB4 56                 7075 	ld	d, (hl)
   0FB5 C3rEEr0F           7076 	jp	00105$
   0FB8                    7077 00102$:
                           7078 ;./src/./physics.c:33: UINT16 remainder = num % multiple;
   0FB8 F8 06              7079 	ldhl	sp,	#6
   0FBA 2A                 7080 	ld	a, (hl+)
   0FBB 66                 7081 	ld	h, (hl)
   0FBC 6F                 7082 	ld	l, a
   0FBD E5                 7083 	push	hl
   0FBE F8 06              7084 	ldhl	sp,	#6
   0FC0 2A                 7085 	ld	a, (hl+)
   0FC1 66                 7086 	ld	h, (hl)
   0FC2 6F                 7087 	ld	l, a
   0FC3 E5                 7088 	push	hl
   0FC4 CDr00r00           7089 	call	__moduint
   0FC7 E8 04              7090 	add	sp, #4
   0FC9 4B                 7091 	ld	c, e
                           7092 ;./src/./physics.c:34: if (remainder == 0){
   0FCA 7A                 7093 	ld	a,d
   0FCB 47                 7094 	ld	b,a
   0FCC B3                 7095 	or	a, e
   0FCD 20 07              7096 	jr	NZ,00104$
                           7097 ;./src/./physics.c:35: return num;
   0FCF F8 04              7098 	ldhl	sp,#(5 - 1)
   0FD1 5E                 7099 	ld	e, (hl)
   0FD2 23                 7100 	inc	hl
   0FD3 56                 7101 	ld	d, (hl)
   0FD4 18 18              7102 	jr	00105$
   0FD6                    7103 00104$:
                           7104 ;./src/./physics.c:37: return num + multiple - remainder;
   0FD6 F8 04              7105 	ldhl	sp,#(5 - 1)
   0FD8 5E                 7106 	ld	e, (hl)
   0FD9 23                 7107 	inc	hl
   0FDA 56                 7108 	ld	d, (hl)
   0FDB 23                 7109 	inc	hl
   0FDC 2A                 7110 	ld	a, (hl+)
   0FDD 66                 7111 	ld	h, (hl)
   0FDE 6F                 7112 	ld	l, a
   0FDF 19                 7113 	add	hl, de
   0FE0 33                 7114 	inc	sp
   0FE1 33                 7115 	inc	sp
   0FE2 E5                 7116 	push	hl
   0FE3 D1                 7117 	pop	de
   0FE4 D5                 7118 	push	de
   0FE5 7B                 7119 	ld	a, e
   0FE6 91                 7120 	sub	a, c
   0FE7 5F                 7121 	ld	e, a
   0FE8 7A                 7122 	ld	a, d
   0FE9 98                 7123 	sbc	a, b
   0FEA 47                 7124 	ld	b, a
   0FEB 4B                 7125 	ld	c, e
   0FEC 59                 7126 	ld	e, c
   0FED 50                 7127 	ld	d, b
   0FEE                    7128 00105$:
                           7129 ;./src/./physics.c:38: }
   0FEE E8 02              7130 	add	sp, #2
   0FF0 C9                 7131 	ret
                           7132 ;./src/./physics.c:40: UINT16 round_down(UINT16 num, UINT16 multiple){
                           7133 ;	---------------------------------
                           7134 ; Function round_down
                           7135 ; ---------------------------------
   0FF1                    7136 _round_down::
                           7137 ;./src/./physics.c:41: if (multiple == 0){
   0FF1 F8 05              7138 	ldhl	sp,	#5
   0FF3 3A                 7139 	ld	a, (hl-)
   0FF4 B6                 7140 	or	a, (hl)
   0FF5 20 05              7141 	jr	NZ,00102$
                           7142 ;./src/./physics.c:42: return num;
   0FF7 C1                 7143 	pop	bc
   0FF8 D1                 7144 	pop	de
   0FF9 D5                 7145 	push	de
   0FFA C5                 7146 	push	bc
   0FFB C9                 7147 	ret
   0FFC                    7148 00102$:
                           7149 ;./src/./physics.c:45: UINT16 remainder = num % multiple;
   0FFC F8 04              7150 	ldhl	sp,	#4
   0FFE 2A                 7151 	ld	a, (hl+)
   0FFF 66                 7152 	ld	h, (hl)
   1000 6F                 7153 	ld	l, a
   1001 E5                 7154 	push	hl
   1002 F8 04              7155 	ldhl	sp,	#4
   1004 2A                 7156 	ld	a, (hl+)
   1005 66                 7157 	ld	h, (hl)
   1006 6F                 7158 	ld	l, a
   1007 E5                 7159 	push	hl
   1008 CDr00r00           7160 	call	__moduint
   100B E8 04              7161 	add	sp, #4
   100D 4B                 7162 	ld	c, e
                           7163 ;./src/./physics.c:46: if (remainder == 0){
   100E 7A                 7164 	ld	a,d
   100F 47                 7165 	ld	b,a
   1010 B3                 7166 	or	a, e
   1011 20 05              7167 	jr	NZ,00104$
                           7168 ;./src/./physics.c:47: return num;
   1013 C1                 7169 	pop	bc
   1014 D1                 7170 	pop	de
   1015 D5                 7171 	push	de
   1016 C5                 7172 	push	bc
   1017 C9                 7173 	ret
   1018                    7174 00104$:
                           7175 ;./src/./physics.c:49: return num - remainder;
   1018 F8 02              7176 	ldhl	sp,#(3 - 1)
   101A 5E                 7177 	ld	e, (hl)
   101B 23                 7178 	inc	hl
   101C 56                 7179 	ld	d, (hl)
   101D 7B                 7180 	ld	a, e
   101E 91                 7181 	sub	a, c
   101F 5F                 7182 	ld	e, a
   1020 7A                 7183 	ld	a, d
   1021 98                 7184 	sbc	a, b
   1022 47                 7185 	ld	b, a
   1023 4B                 7186 	ld	c, e
   1024 59                 7187 	ld	e, c
   1025 50                 7188 	ld	d, b
                           7189 ;./src/./physics.c:50: }
   1026 C9                 7190 	ret
                           7191 ;./src/./physics.c:52: void collision_check(MSprite* sprite){
                           7192 ;	---------------------------------
                           7193 ; Function collision_check
                           7194 ; ---------------------------------
   1027                    7195 _collision_check::
   1027 E8 F2              7196 	add	sp, #-14
                           7197 ;./src/./physics.c:53: UINT16 pos = get_world_to_map(sprite->position.x, sprite->position.y);
   1029 F8 10              7198 	ldhl	sp,	#16
   102B 2A                 7199 	ld	a, (hl+)
   102C 5E                 7200 	ld	e, (hl)
   102D F8 00              7201 	ldhl	sp,	#0
   102F 22                 7202 	ld	(hl+), a
   1030 73                 7203 	ld	(hl), e
   1031 D1                 7204 	pop	de
   1032 D5                 7205 	push	de
   1033 21 01 00           7206 	ld	hl, #0x0001
   1036 19                 7207 	add	hl, de
   1037 7D                 7208 	ld	a, l
   1038 54                 7209 	ld	d, h
   1039 F8 02              7210 	ldhl	sp,	#2
   103B 22                 7211 	ld	(hl+), a
   103C 72                 7212 	ld	(hl), d
   103D 2B                 7213 	dec	hl
   103E 5E                 7214 	ld	e, (hl)
   103F 23                 7215 	inc	hl
   1040 56                 7216 	ld	d, (hl)
   1041 1A                 7217 	ld	a,(de)
   1042 4F                 7218 	ld	c, a
   1043 06 00              7219 	ld	b, #0x00
   1045 D1                 7220 	pop	de
   1046 D5                 7221 	push	de
   1047 1A                 7222 	ld	a,(de)
   1048 5F                 7223 	ld	e, a
   1049 16 00              7224 	ld	d, #0x00
   104B C5                 7225 	push	bc
   104C D5                 7226 	push	de
   104D CDr88r04           7227 	call	_get_world_to_map
   1050 E8 04              7228 	add	sp, #4
   1052 F8 04              7229 	ldhl	sp,	#4
   1054 73                 7230 	ld	(hl), e
   1055 23                 7231 	inc	hl
   1056 72                 7232 	ld	(hl), d
                           7233 ;./src/./physics.c:55: sprite->col.has_collided = false;
   1057 D1                 7234 	pop	de
   1058 D5                 7235 	push	de
   1059 21 09 00           7236 	ld	hl, #0x0009
   105C 19                 7237 	add	hl, de
   105D 7D                 7238 	ld	a, l
   105E 54                 7239 	ld	d, h
   105F F8 06              7240 	ldhl	sp,	#6
   1061 22                 7241 	ld	(hl+), a
   1062 72                 7242 	ld	(hl), d
   1063 2B                 7243 	dec	hl
   1064 2A                 7244 	ld	a, (hl+)
   1065 66                 7245 	ld	h, (hl)
   1066 6F                 7246 	ld	l, a
   1067 36 00              7247 	ld	(hl), #0x00
                           7248 ;./src/./physics.c:56: sprite->col.direction.x = 0;
   1069 D1                 7249 	pop	de
   106A D5                 7250 	push	de
   106B 21 0A 00           7251 	ld	hl, #0x000a
   106E 19                 7252 	add	hl, de
   106F 7D                 7253 	ld	a, l
   1070 54                 7254 	ld	d, h
   1071 F8 08              7255 	ldhl	sp,	#8
   1073 22                 7256 	ld	(hl+), a
   1074 72                 7257 	ld	(hl), d
   1075 2B                 7258 	dec	hl
   1076 2A                 7259 	ld	a, (hl+)
   1077 66                 7260 	ld	h, (hl)
   1078 6F                 7261 	ld	l, a
   1079 AF                 7262 	xor	a, a
   107A 22                 7263 	ld	(hl+), a
   107B 77                 7264 	ld	(hl), a
                           7265 ;./src/./physics.c:57: sprite->col.direction.y = 0;
   107C D1                 7266 	pop	de
   107D D5                 7267 	push	de
   107E 21 0C 00           7268 	ld	hl, #0x000c
   1081 19                 7269 	add	hl, de
   1082 7D                 7270 	ld	a, l
   1083 54                 7271 	ld	d, h
   1084 F8 0A              7272 	ldhl	sp,	#10
   1086 22                 7273 	ld	(hl+), a
   1087 72                 7274 	ld	(hl), d
   1088 2B                 7275 	dec	hl
   1089 2A                 7276 	ld	a, (hl+)
   108A 66                 7277 	ld	h, (hl)
   108B 6F                 7278 	ld	l, a
   108C AF                 7279 	xor	a, a
   108D 22                 7280 	ld	(hl+), a
   108E 77                 7281 	ld	(hl), a
                           7282 ;./src/./physics.c:58: SWITCH_ROM_MBC1(1);
   108F 21 00 20           7283 	ld	hl, #0x2000
   1092 36 01              7284 	ld	(hl), #0x01
                           7285 ;./src/./physics.c:60: if(pos - 1 % 20 == 0 ||
   1094 F8 04              7286 	ldhl	sp,#(5 - 1)
   1096 4E                 7287 	ld	c, (hl)
   1097 23                 7288 	inc	hl
   1098 46                 7289 	ld	b, (hl)
   1099 0B                 7290 	dec	bc
   109A 78                 7291 	ld	a, b
   109B B1                 7292 	or	a, c
   109C CArF7r10           7293 	jp	Z, 00101$
                           7294 ;./src/./physics.c:61: COL_CHECK(-1)){
   109F 21rF6r02           7295 	ld	hl, #_current_level
   10A2 4E                 7296 	ld	c, (hl)
   10A3 06 00              7297 	ld	b, #0x00
   10A5 69                 7298 	ld	l, c
   10A6 60                 7299 	ld	h, b
   10A7 29                 7300 	add	hl, hl
   10A8 29                 7301 	add	hl, hl
   10A9 09                 7302 	add	hl, bc
   10AA 29                 7303 	add	hl, hl
   10AB 09                 7304 	add	hl, bc
   10AC 29                 7305 	add	hl, hl
   10AD 29                 7306 	add	hl, hl
   10AE 09                 7307 	add	hl, bc
   10AF 29                 7308 	add	hl, hl
   10B0 29                 7309 	add	hl, hl
   10B1 29                 7310 	add	hl, hl
   10B2 4D                 7311 	ld	c, l
   10B3 44                 7312 	ld	b, h
   10B4 21rF8r02           7313 	ld	hl, #_maps
   10B7 09                 7314 	add	hl, bc
   10B8 4D                 7315 	ld	c, l
   10B9 44                 7316 	ld	b, h
   10BA F8 04              7317 	ldhl	sp,#(5 - 1)
   10BC 5E                 7318 	ld	e, (hl)
   10BD 23                 7319 	inc	hl
   10BE 56                 7320 	ld	d, (hl)
   10BF 21 FF FF           7321 	ld	hl, #0xffff
   10C2 19                 7322 	add	hl, de
   10C3 7D                 7323 	ld	a, l
   10C4 54                 7324 	ld	d, h
   10C5 F8 0C              7325 	ldhl	sp,	#12
   10C7 22                 7326 	ld	(hl+), a
   10C8 72                 7327 	ld	(hl), d
   10C9 2B                 7328 	dec	hl
   10CA 2A                 7329 	ld	a, (hl+)
   10CB 66                 7330 	ld	h, (hl)
   10CC 6F                 7331 	ld	l, a
   10CD 09                 7332 	add	hl, bc
   10CE 4D                 7333 	ld	c, l
   10CF 44                 7334 	ld	b, h
   10D0 0A                 7335 	ld	a, (bc)
   10D1 B7                 7336 	or	a, a
   10D2 CAr21r11           7337 	jp	Z, 00102$
   10D5 FE 01              7338 	cp	a, #0x01
   10D7 CAr21r11           7339 	jp	Z,00102$
   10DA FE 02              7340 	cp	a, #0x02
   10DC CAr21r11           7341 	jp	Z,00102$
   10DF FE 09              7342 	cp	a, #0x09
   10E1 CAr21r11           7343 	jp	Z,00102$
   10E4 FE 05              7344 	cp	a, #0x05
   10E6 CAr21r11           7345 	jp	Z,00102$
   10E9 FE 07              7346 	cp	a, #0x07
   10EB CAr21r11           7347 	jp	Z,00102$
   10EE FE 06              7348 	cp	a, #0x06
   10F0 CAr21r11           7349 	jp	Z,00102$
   10F3 D6 08              7350 	sub	a, #0x08
   10F5 28 2A              7351 	jr	Z,00102$
   10F7                    7352 00101$:
                           7353 ;./src/./physics.c:62: SWITCH_ROM_MBC1(0);
   10F7 21 00 20           7354 	ld	hl, #0x2000
   10FA 36 00              7355 	ld	(hl), #0x00
                           7356 ;./src/./physics.c:63: sprite->col.direction.x = -1;
   10FC F8 08              7357 	ldhl	sp,	#8
   10FE 2A                 7358 	ld	a, (hl+)
   10FF 66                 7359 	ld	h, (hl)
   1100 6F                 7360 	ld	l, a
   1101 36 FF              7361 	ld	(hl), #0xff
   1103 23                 7362 	inc	hl
   1104 36 FF              7363 	ld	(hl), #0xff
                           7364 ;./src/./physics.c:64: sprite->col.has_collided = true;
   1106 F8 06              7365 	ldhl	sp,	#6
   1108 2A                 7366 	ld	a, (hl+)
   1109 66                 7367 	ld	h, (hl)
   110A 6F                 7368 	ld	l, a
   110B 36 01              7369 	ld	(hl), #0x01
                           7370 ;./src/./physics.c:65: sprite->position.x = round_up(sprite->position.x, 8);//(((sprite->position.x - 8) >> 3) * 8) + 8;
   110D D1                 7371 	pop	de
   110E D5                 7372 	push	de
   110F 1A                 7373 	ld	a,(de)
   1110 4F                 7374 	ld	c, a
   1111 06 00              7375 	ld	b, #0x00
   1113 21 08 00           7376 	ld	hl, #0x0008
   1116 E5                 7377 	push	hl
   1117 C5                 7378 	push	bc
   1118 CDrA8r0F           7379 	call	_round_up
   111B E8 04              7380 	add	sp, #4
   111D 4B                 7381 	ld	c, e
   111E E1                 7382 	pop	hl
   111F E5                 7383 	push	hl
   1120 71                 7384 	ld	(hl), c
   1121                    7385 00102$:
                           7386 ;./src/./physics.c:68: if(pos + 1 % 20 == 19 ||
   1121 F8 04              7387 	ldhl	sp,#(5 - 1)
   1123 5E                 7388 	ld	e, (hl)
   1124 23                 7389 	inc	hl
   1125 56                 7390 	ld	d, (hl)
   1126 21 01 00           7391 	ld	hl, #0x0001
   1129 19                 7392 	add	hl, de
   112A 7D                 7393 	ld	a, l
   112B 54                 7394 	ld	d, h
   112C F8 0C              7395 	ldhl	sp,	#12
   112E 22                 7396 	ld	(hl+), a
   112F 72                 7397 	ld	(hl), d
   1130 2B                 7398 	dec	hl
   1131 7E                 7399 	ld	a, (hl)
   1132 D6 13              7400 	sub	a, #0x13
   1134 23                 7401 	inc	hl
   1135 B6                 7402 	or	a, (hl)
   1136 CAr83r11           7403 	jp	Z,00111$
                           7404 ;./src/./physics.c:69: COL_CHECK(1)){
   1139 21rF6r02           7405 	ld	hl, #_current_level
   113C 4E                 7406 	ld	c, (hl)
   113D 06 00              7407 	ld	b, #0x00
   113F 69                 7408 	ld	l, c
   1140 60                 7409 	ld	h, b
   1141 29                 7410 	add	hl, hl
   1142 29                 7411 	add	hl, hl
   1143 09                 7412 	add	hl, bc
   1144 29                 7413 	add	hl, hl
   1145 09                 7414 	add	hl, bc
   1146 29                 7415 	add	hl, hl
   1147 29                 7416 	add	hl, hl
   1148 09                 7417 	add	hl, bc
   1149 29                 7418 	add	hl, hl
   114A 29                 7419 	add	hl, hl
   114B 29                 7420 	add	hl, hl
   114C 4D                 7421 	ld	c, l
   114D 44                 7422 	ld	b, h
   114E 21rF8r02           7423 	ld	hl, #_maps
   1151 09                 7424 	add	hl, bc
   1152 4D                 7425 	ld	c, l
   1153 44                 7426 	ld	b, h
   1154 F8 0C              7427 	ldhl	sp,	#12
   1156 2A                 7428 	ld	a, (hl+)
   1157 66                 7429 	ld	h, (hl)
   1158 6F                 7430 	ld	l, a
   1159 09                 7431 	add	hl, bc
   115A 4D                 7432 	ld	c, l
   115B 44                 7433 	ld	b, h
   115C 0A                 7434 	ld	a, (bc)
   115D B7                 7435 	or	a, a
   115E CArADr11           7436 	jp	Z, 00130$
   1161 FE 01              7437 	cp	a, #0x01
   1163 CArADr11           7438 	jp	Z,00130$
   1166 FE 02              7439 	cp	a, #0x02
   1168 CArADr11           7440 	jp	Z,00130$
   116B FE 09              7441 	cp	a, #0x09
   116D CArADr11           7442 	jp	Z,00130$
   1170 FE 05              7443 	cp	a, #0x05
   1172 CArADr11           7444 	jp	Z,00130$
   1175 FE 07              7445 	cp	a, #0x07
   1177 CArADr11           7446 	jp	Z,00130$
   117A FE 06              7447 	cp	a, #0x06
   117C CArADr11           7448 	jp	Z,00130$
   117F D6 08              7449 	sub	a, #0x08
   1181 28 2A              7450 	jr	Z,00130$
   1183                    7451 00111$:
                           7452 ;./src/./physics.c:70: SWITCH_ROM_MBC1(0);
   1183 21 00 20           7453 	ld	hl, #0x2000
   1186 36 00              7454 	ld	(hl), #0x00
                           7455 ;./src/./physics.c:71: sprite->col.direction.x = 1;
   1188 F8 08              7456 	ldhl	sp,	#8
   118A 2A                 7457 	ld	a, (hl+)
   118B 66                 7458 	ld	h, (hl)
   118C 6F                 7459 	ld	l, a
   118D 36 01              7460 	ld	(hl), #0x01
   118F 23                 7461 	inc	hl
   1190 36 00              7462 	ld	(hl), #0x00
                           7463 ;./src/./physics.c:72: sprite->col.has_collided = true;
   1192 F8 06              7464 	ldhl	sp,	#6
   1194 2A                 7465 	ld	a, (hl+)
   1195 66                 7466 	ld	h, (hl)
   1196 6F                 7467 	ld	l, a
   1197 36 01              7468 	ld	(hl), #0x01
                           7469 ;./src/./physics.c:74: sprite->position.x = round_down(sprite->position.x, 8);//(((sprite->position.x - 8) >> 3) * 8) + 8;
   1199 D1                 7470 	pop	de
   119A D5                 7471 	push	de
   119B 1A                 7472 	ld	a,(de)
   119C 4F                 7473 	ld	c, a
   119D 06 00              7474 	ld	b, #0x00
   119F 21 08 00           7475 	ld	hl, #0x0008
   11A2 E5                 7476 	push	hl
   11A3 C5                 7477 	push	bc
   11A4 CDrF1r0F           7478 	call	_round_down
   11A7 E8 04              7479 	add	sp, #4
   11A9 4B                 7480 	ld	c, e
   11AA E1                 7481 	pop	hl
   11AB E5                 7482 	push	hl
   11AC 71                 7483 	ld	(hl), c
                           7484 ;./src/./physics.c:78: COL_CHECK(-20)){
   11AD                    7485 00130$:
   11AD 21rF6r02           7486 	ld	hl, #_current_level
   11B0 4E                 7487 	ld	c, (hl)
   11B1 06 00              7488 	ld	b, #0x00
   11B3 69                 7489 	ld	l, c
   11B4 60                 7490 	ld	h, b
   11B5 29                 7491 	add	hl, hl
   11B6 29                 7492 	add	hl, hl
   11B7 09                 7493 	add	hl, bc
   11B8 29                 7494 	add	hl, hl
   11B9 09                 7495 	add	hl, bc
   11BA 29                 7496 	add	hl, hl
   11BB 29                 7497 	add	hl, hl
   11BC 09                 7498 	add	hl, bc
   11BD 29                 7499 	add	hl, hl
   11BE 29                 7500 	add	hl, hl
   11BF 29                 7501 	add	hl, hl
   11C0 4D                 7502 	ld	c, l
   11C1 44                 7503 	ld	b, h
   11C2 21rF8r02           7504 	ld	hl, #_maps
   11C5 09                 7505 	add	hl, bc
   11C6 4D                 7506 	ld	c, l
   11C7 44                 7507 	ld	b, h
   11C8 F8 04              7508 	ldhl	sp,#(5 - 1)
   11CA 5E                 7509 	ld	e, (hl)
   11CB 23                 7510 	inc	hl
   11CC 56                 7511 	ld	d, (hl)
   11CD 21 EC FF           7512 	ld	hl, #0xffec
   11D0 19                 7513 	add	hl, de
   11D1 7D                 7514 	ld	a, l
   11D2 54                 7515 	ld	d, h
   11D3 F8 0C              7516 	ldhl	sp,	#12
   11D5 22                 7517 	ld	(hl+), a
   11D6 72                 7518 	ld	(hl), d
   11D7 2B                 7519 	dec	hl
   11D8 2A                 7520 	ld	a, (hl+)
   11D9 66                 7521 	ld	h, (hl)
   11DA 6F                 7522 	ld	l, a
   11DB 09                 7523 	add	hl, bc
   11DC 4D                 7524 	ld	c, l
   11DD 44                 7525 	ld	b, h
   11DE 0A                 7526 	ld	a, (bc)
   11DF B7                 7527 	or	a, a
   11E0 CAr36r12           7528 	jp	Z, 00122$
   11E3 FE 01              7529 	cp	a, #0x01
   11E5 CAr36r12           7530 	jp	Z,00122$
   11E8 FE 02              7531 	cp	a, #0x02
   11EA CAr36r12           7532 	jp	Z,00122$
   11ED FE 09              7533 	cp	a, #0x09
   11EF CAr36r12           7534 	jp	Z,00122$
   11F2 FE 05              7535 	cp	a, #0x05
   11F4 CAr36r12           7536 	jp	Z,00122$
   11F7 FE 07              7537 	cp	a, #0x07
   11F9 CAr36r12           7538 	jp	Z,00122$
   11FC FE 06              7539 	cp	a, #0x06
   11FE CAr36r12           7540 	jp	Z,00122$
   1201 D6 08              7541 	sub	a, #0x08
   1203 CAr36r12           7542 	jp	Z,00122$
                           7543 ;./src/./physics.c:79: SWITCH_ROM_MBC1(0);
   1206 21 00 20           7544 	ld	hl, #0x2000
   1209 36 00              7545 	ld	(hl), #0x00
                           7546 ;./src/./physics.c:80: sprite->col.direction.y = -1;
   120B F8 0A              7547 	ldhl	sp,	#10
   120D 2A                 7548 	ld	a, (hl+)
   120E 66                 7549 	ld	h, (hl)
   120F 6F                 7550 	ld	l, a
   1210 36 FF              7551 	ld	(hl), #0xff
   1212 23                 7552 	inc	hl
   1213 36 FF              7553 	ld	(hl), #0xff
                           7554 ;./src/./physics.c:81: sprite->col.has_collided = true;        
   1215 F8 06              7555 	ldhl	sp,	#6
   1217 2A                 7556 	ld	a, (hl+)
   1218 66                 7557 	ld	h, (hl)
   1219 6F                 7558 	ld	l, a
   121A 36 01              7559 	ld	(hl), #0x01
                           7560 ;./src/./physics.c:82: sprite->position.y = round_up(sprite->position.y, 8);//(((sprite->position.y - 16) >> 3) * 8) + 16;
   121C F8 02              7561 	ldhl	sp,#(3 - 1)
   121E 5E                 7562 	ld	e, (hl)
   121F 23                 7563 	inc	hl
   1220 56                 7564 	ld	d, (hl)
   1221 1A                 7565 	ld	a,(de)
   1222 4F                 7566 	ld	c, a
   1223 06 00              7567 	ld	b, #0x00
   1225 21 08 00           7568 	ld	hl, #0x0008
   1228 E5                 7569 	push	hl
   1229 C5                 7570 	push	bc
   122A CDrA8r0F           7571 	call	_round_up
   122D E8 04              7572 	add	sp, #4
   122F 4B                 7573 	ld	c, e
   1230 F8 02              7574 	ldhl	sp,	#2
   1232 2A                 7575 	ld	a, (hl+)
   1233 66                 7576 	ld	h, (hl)
   1234 6F                 7577 	ld	l, a
   1235 71                 7578 	ld	(hl), c
   1236                    7579 00122$:
                           7580 ;./src/./physics.c:85: if(pos + 20 > 20 * 18 ||
   1236 F8 04              7581 	ldhl	sp,#(5 - 1)
   1238 5E                 7582 	ld	e, (hl)
   1239 23                 7583 	inc	hl
   123A 56                 7584 	ld	d, (hl)
   123B 21 14 00           7585 	ld	hl, #0x0014
   123E 19                 7586 	add	hl, de
   123F 7D                 7587 	ld	a, l
   1240 54                 7588 	ld	d, h
   1241 F8 0C              7589 	ldhl	sp,	#12
   1243 22                 7590 	ld	(hl+), a
   1244 72                 7591 	ld	(hl), d
   1245 2B                 7592 	dec	hl
   1246 3E 68              7593 	ld	a, #0x68
   1248 96                 7594 	sub	a, (hl)
   1249 23                 7595 	inc	hl
   124A 3E 01              7596 	ld	a, #0x01
   124C 9E                 7597 	sbc	a, (hl)
   124D DAr9Br12           7598 	jp	C, 00131$
                           7599 ;./src/./physics.c:86: COL_CHECK(20)){
   1250 21rF6r02           7600 	ld	hl, #_current_level
   1253 4E                 7601 	ld	c, (hl)
   1254 06 00              7602 	ld	b, #0x00
   1256 69                 7603 	ld	l, c
   1257 60                 7604 	ld	h, b
   1258 29                 7605 	add	hl, hl
   1259 29                 7606 	add	hl, hl
   125A 09                 7607 	add	hl, bc
   125B 29                 7608 	add	hl, hl
   125C 09                 7609 	add	hl, bc
   125D 29                 7610 	add	hl, hl
   125E 29                 7611 	add	hl, hl
   125F 09                 7612 	add	hl, bc
   1260 29                 7613 	add	hl, hl
   1261 29                 7614 	add	hl, hl
   1262 29                 7615 	add	hl, hl
   1263 4D                 7616 	ld	c, l
   1264 44                 7617 	ld	b, h
   1265 21rF8r02           7618 	ld	hl, #_maps
   1268 09                 7619 	add	hl, bc
   1269 4D                 7620 	ld	c, l
   126A 44                 7621 	ld	b, h
   126B F8 0C              7622 	ldhl	sp,	#12
   126D 2A                 7623 	ld	a, (hl+)
   126E 66                 7624 	ld	h, (hl)
   126F 6F                 7625 	ld	l, a
   1270 09                 7626 	add	hl, bc
   1271 4D                 7627 	ld	c, l
   1272 44                 7628 	ld	b, h
   1273 0A                 7629 	ld	a, (bc)
   1274 B7                 7630 	or	a, a
   1275 CArCBr12           7631 	jp	Z, 00132$
   1278 FE 01              7632 	cp	a, #0x01
   127A CArCBr12           7633 	jp	Z,00132$
   127D FE 02              7634 	cp	a, #0x02
   127F CArCBr12           7635 	jp	Z,00132$
   1282 FE 09              7636 	cp	a, #0x09
   1284 CArCBr12           7637 	jp	Z,00132$
   1287 FE 05              7638 	cp	a, #0x05
   1289 CArCBr12           7639 	jp	Z,00132$
   128C FE 07              7640 	cp	a, #0x07
   128E CArCBr12           7641 	jp	Z,00132$
   1291 FE 06              7642 	cp	a, #0x06
   1293 CArCBr12           7643 	jp	Z,00132$
   1296 D6 08              7644 	sub	a, #0x08
   1298 CArCBr12           7645 	jp	Z,00132$
   129B                    7646 00131$:
                           7647 ;./src/./physics.c:87: SWITCH_ROM_MBC1(0);
   129B 21 00 20           7648 	ld	hl, #0x2000
   129E 36 00              7649 	ld	(hl), #0x00
                           7650 ;./src/./physics.c:88: sprite->col.direction.y = 1;
   12A0 F8 0A              7651 	ldhl	sp,	#10
   12A2 2A                 7652 	ld	a, (hl+)
   12A3 66                 7653 	ld	h, (hl)
   12A4 6F                 7654 	ld	l, a
   12A5 36 01              7655 	ld	(hl), #0x01
   12A7 23                 7656 	inc	hl
   12A8 36 00              7657 	ld	(hl), #0x00
                           7658 ;./src/./physics.c:89: sprite->col.has_collided = true;
   12AA F8 06              7659 	ldhl	sp,	#6
   12AC 2A                 7660 	ld	a, (hl+)
   12AD 66                 7661 	ld	h, (hl)
   12AE 6F                 7662 	ld	l, a
   12AF 36 01              7663 	ld	(hl), #0x01
                           7664 ;./src/./physics.c:90: sprite->position.y = round_down(sprite->position.y, 8);//sprite->position.y = (((sprite->position.x - 16) >> 3) * 8) + 16;
   12B1 F8 02              7665 	ldhl	sp,#(3 - 1)
   12B3 5E                 7666 	ld	e, (hl)
   12B4 23                 7667 	inc	hl
   12B5 56                 7668 	ld	d, (hl)
   12B6 1A                 7669 	ld	a,(de)
   12B7 4F                 7670 	ld	c, a
   12B8 06 00              7671 	ld	b, #0x00
   12BA 21 08 00           7672 	ld	hl, #0x0008
   12BD E5                 7673 	push	hl
   12BE C5                 7674 	push	bc
   12BF CDrF1r0F           7675 	call	_round_down
   12C2 E8 04              7676 	add	sp, #4
   12C4 4B                 7677 	ld	c, e
   12C5 F8 02              7678 	ldhl	sp,	#2
   12C7 2A                 7679 	ld	a, (hl+)
   12C8 66                 7680 	ld	h, (hl)
   12C9 6F                 7681 	ld	l, a
   12CA 71                 7682 	ld	(hl), c
   12CB                    7683 00132$:
                           7684 ;./src/./physics.c:92: SWITCH_ROM_MBC1(0);
   12CB 21 00 20           7685 	ld	hl, #0x2000
   12CE 36 00              7686 	ld	(hl), #0x00
                           7687 ;./src/./physics.c:93: }
   12D0 E8 0E              7688 	add	sp, #14
   12D2 C9                 7689 	ret
                           7690 ;./src/./physics.c:95: void death_check(MPlayer* player){
                           7691 ;	---------------------------------
                           7692 ; Function death_check
                           7693 ; ---------------------------------
   12D3                    7694 _death_check::
   12D3 E8 FC              7695 	add	sp, #-4
                           7696 ;./src/./physics.c:97: UINT16 pos = get_world_to_map((player->sprite.position.x), player->sprite.position.y);
   12D5 F8 06              7697 	ldhl	sp,	#6
   12D7 2A                 7698 	ld	a, (hl+)
   12D8 5E                 7699 	ld	e, (hl)
   12D9 F8 00              7700 	ldhl	sp,	#0
   12DB 22                 7701 	ld	(hl+), a
   12DC 73                 7702 	ld	(hl), e
   12DD C1                 7703 	pop	bc
   12DE C5                 7704 	push	bc
   12DF 03                 7705 	inc	bc
   12E0 0A                 7706 	ld	a, (bc)
   12E1 4F                 7707 	ld	c, a
   12E2 06 00              7708 	ld	b, #0x00
   12E4 D1                 7709 	pop	de
   12E5 D5                 7710 	push	de
   12E6 1A                 7711 	ld	a,(de)
   12E7 5F                 7712 	ld	e, a
   12E8 16 00              7713 	ld	d, #0x00
   12EA C5                 7714 	push	bc
   12EB D5                 7715 	push	de
   12EC CDr88r04           7716 	call	_get_world_to_map
   12EF E8 04              7717 	add	sp, #4
   12F1 F8 02              7718 	ldhl	sp,	#2
   12F3 73                 7719 	ld	(hl), e
   12F4 23                 7720 	inc	hl
   12F5 72                 7721 	ld	(hl), d
                           7722 ;./src/./physics.c:98: SWITCH_ROM_MBC1(1);
   12F6 21 00 20           7723 	ld	hl, #0x2000
   12F9 36 01              7724 	ld	(hl), #0x01
                           7725 ;./src/./physics.c:99: if(COL_DEATH_CHECK(0)){
   12FB 21rF6r02           7726 	ld	hl, #_current_level
   12FE 4E                 7727 	ld	c, (hl)
   12FF 06 00              7728 	ld	b, #0x00
   1301 69                 7729 	ld	l, c
   1302 60                 7730 	ld	h, b
   1303 29                 7731 	add	hl, hl
   1304 29                 7732 	add	hl, hl
   1305 09                 7733 	add	hl, bc
   1306 29                 7734 	add	hl, hl
   1307 09                 7735 	add	hl, bc
   1308 29                 7736 	add	hl, hl
   1309 29                 7737 	add	hl, hl
   130A 09                 7738 	add	hl, bc
   130B 29                 7739 	add	hl, hl
   130C 29                 7740 	add	hl, hl
   130D 29                 7741 	add	hl, hl
   130E 4D                 7742 	ld	c, l
   130F 44                 7743 	ld	b, h
   1310 21rF8r02           7744 	ld	hl, #_maps
   1313 09                 7745 	add	hl, bc
   1314 4D                 7746 	ld	c, l
   1315 44                 7747 	ld	b, h
   1316 F8 02              7748 	ldhl	sp,	#2
   1318 2A                 7749 	ld	a, (hl+)
   1319 66                 7750 	ld	h, (hl)
   131A 6F                 7751 	ld	l, a
   131B 09                 7752 	add	hl, bc
   131C 4D                 7753 	ld	c, l
   131D 44                 7754 	ld	b, h
   131E 0A                 7755 	ld	a, (bc)
   131F FE 05              7756 	cp	a, #0x05
   1321 28 0C              7757 	jr	Z,00101$
   1323 FE 07              7758 	cp	a, #0x07
   1325 28 08              7759 	jr	Z,00101$
   1327 FE 06              7760 	cp	a, #0x06
   1329 28 04              7761 	jr	Z,00101$
   132B D6 08              7762 	sub	a, #0x08
   132D 20 20              7763 	jr	NZ,00106$
   132F                    7764 00101$:
                           7765 ;./src/./physics.c:100: SWITCH_ROM_MBC1(0);
   132F 21 00 20           7766 	ld	hl, #0x2000
   1332 36 00              7767 	ld	(hl), #0x00
                           7768 ;./src/./physics.c:101: update_position(&(player->sprite));
   1334 E1                 7769 	pop	hl
   1335 E5                 7770 	push	hl
   1336 E5                 7771 	push	hl
   1337 CDr97r00           7772 	call	_update_position
   133A E8 02              7773 	add	sp, #2
                           7774 ;./src/./physics.c:104: JOYPAD_WAIT_ANY;
   133C 3E FF              7775 	ld	a, #0xff
   133E F5                 7776 	push	af
   133F 33                 7777 	inc	sp
   1340 CDr00r00           7778 	call	_joypad_wait
   1343 33                 7779 	inc	sp
                           7780 ;./src/./physics.c:105: set_map(player);
   1344 F8 06              7781 	ldhl	sp,	#6
   1346 2A                 7782 	ld	a, (hl+)
   1347 66                 7783 	ld	h, (hl)
   1348 6F                 7784 	ld	l, a
   1349 E5                 7785 	push	hl
   134A CDrE5r0C           7786 	call	_set_map
   134D E8 02              7787 	add	sp, #2
   134F                    7788 00106$:
                           7789 ;./src/./physics.c:108: }
   134F E8 04              7790 	add	sp, #4
   1351 C9                 7791 	ret
                           7792 ;./src/./physics.c:110: void teleporter_check(MPlayer* player){
                           7793 ;	---------------------------------
                           7794 ; Function teleporter_check
                           7795 ; ---------------------------------
   1352                    7796 _teleporter_check::
   1352 E8 F6              7797 	add	sp, #-10
                           7798 ;./src/./physics.c:112: if(teleporter_active == true){
   1354 21rF5r02           7799 	ld	hl, #_teleporter_active
   1357 CB 46              7800 	bit	0, (hl)
   1359 CAr8Br14           7801 	jp	Z, 00114$
                           7802 ;./src/./physics.c:113: teleporter_active = false;
   135C 36 00              7803 	ld	(hl), #0x00
                           7804 ;./src/./physics.c:114: UINT16 pos = get_world_to_map((player->sprite.position.x), player->sprite.position.y);
   135E F8 0C              7805 	ldhl	sp,	#12
   1360 2A                 7806 	ld	a, (hl+)
   1361 5E                 7807 	ld	e, (hl)
   1362 F8 00              7808 	ldhl	sp,	#0
   1364 22                 7809 	ld	(hl+), a
   1365 73                 7810 	ld	(hl), e
   1366 D1                 7811 	pop	de
   1367 D5                 7812 	push	de
   1368 21 01 00           7813 	ld	hl, #0x0001
   136B 19                 7814 	add	hl, de
   136C 7D                 7815 	ld	a, l
   136D 54                 7816 	ld	d, h
   136E F8 02              7817 	ldhl	sp,	#2
   1370 22                 7818 	ld	(hl+), a
   1371 72                 7819 	ld	(hl), d
   1372 2B                 7820 	dec	hl
   1373 5E                 7821 	ld	e, (hl)
   1374 23                 7822 	inc	hl
   1375 56                 7823 	ld	d, (hl)
   1376 1A                 7824 	ld	a,(de)
   1377 4F                 7825 	ld	c, a
   1378 06 00              7826 	ld	b, #0x00
   137A D1                 7827 	pop	de
   137B D5                 7828 	push	de
   137C 1A                 7829 	ld	a,(de)
   137D 5F                 7830 	ld	e, a
   137E 16 00              7831 	ld	d, #0x00
   1380 C5                 7832 	push	bc
   1381 D5                 7833 	push	de
   1382 CDr88r04           7834 	call	_get_world_to_map
   1385 E8 04              7835 	add	sp, #4
   1387 F8 04              7836 	ldhl	sp,	#4
   1389 73                 7837 	ld	(hl), e
   138A 23                 7838 	inc	hl
   138B 72                 7839 	ld	(hl), d
                           7840 ;./src/./physics.c:116: SWITCH_ROM_MBC1(1);
   138C 21 00 20           7841 	ld	hl, #0x2000
   138F 36 01              7842 	ld	(hl), #0x01
                           7843 ;./src/./physics.c:117: if(GLOBAL_MAP[pos] == TELEPORTER_TILE  ||
   1391 21rF6r02           7844 	ld	hl, #_current_level
   1394 4E                 7845 	ld	c, (hl)
   1395 06 00              7846 	ld	b, #0x00
   1397 69                 7847 	ld	l, c
   1398 60                 7848 	ld	h, b
   1399 29                 7849 	add	hl, hl
   139A 29                 7850 	add	hl, hl
   139B 09                 7851 	add	hl, bc
   139C 29                 7852 	add	hl, hl
   139D 09                 7853 	add	hl, bc
   139E 29                 7854 	add	hl, hl
   139F 29                 7855 	add	hl, hl
   13A0 09                 7856 	add	hl, bc
   13A1 29                 7857 	add	hl, hl
   13A2 29                 7858 	add	hl, hl
   13A3 29                 7859 	add	hl, hl
   13A4 4D                 7860 	ld	c, l
   13A5 44                 7861 	ld	b, h
   13A6 21rF8r02           7862 	ld	hl, #_maps
   13A9 09                 7863 	add	hl, bc
   13AA 4D                 7864 	ld	c, l
   13AB 44                 7865 	ld	b, h
   13AC F8 04              7866 	ldhl	sp,	#4
   13AE 2A                 7867 	ld	a, (hl+)
   13AF 66                 7868 	ld	h, (hl)
   13B0 6F                 7869 	ld	l, a
   13B1 09                 7870 	add	hl, bc
   13B2 4D                 7871 	ld	c, l
   13B3 44                 7872 	ld	b, h
   13B4 0A                 7873 	ld	a, (bc)
   13B5 FE 09              7874 	cp	a, #0x09
   13B7 28 09              7875 	jr	Z,00122$
                           7876 ;./src/./physics.c:118: GLOBAL_MAP[pos] == TELEPORTER2_TILE ||
   13B9 FE 10              7877 	cp	a, #0x10
   13BB 28 05              7878 	jr	Z,00122$
                           7879 ;./src/./physics.c:119: GLOBAL_MAP[pos] == TELEPORTER3_TILE){
   13BD D6 11              7880 	sub	a, #0x11
   13BF C2r8Br14           7881 	jp	NZ,00114$
                           7882 ;./src/./physics.c:121: for(int i = 0; i < TOTAL_TILES; ++i){
   13C2                    7883 00122$:
   13C2 AF                 7884 	xor	a, a
   13C3 F8 08              7885 	ldhl	sp,	#8
   13C5 22                 7886 	ld	(hl+), a
   13C6 77                 7887 	ld	(hl), a
   13C7                    7888 00112$:
   13C7 F8 08              7889 	ldhl	sp,	#8
   13C9 7E                 7890 	ld	a, (hl)
   13CA D6 68              7891 	sub	a, #0x68
   13CC 23                 7892 	inc	hl
   13CD 7E                 7893 	ld	a, (hl)
   13CE DE 01              7894 	sbc	a, #0x01
   13D0 56                 7895 	ld	d, (hl)
   13D1 3E 01              7896 	ld	a, #0x01
   13D3 5F                 7897 	ld	e, a
   13D4 CB 7B              7898 	bit	7, e
   13D6 28 07              7899 	jr	Z,00156$
   13D8 CB 7A              7900 	bit	7, d
   13DA 20 08              7901 	jr	NZ,00157$
   13DC BF                 7902 	cp	a, a
   13DD 18 05              7903 	jr	00157$
   13DF                    7904 00156$:
   13DF CB 7A              7905 	bit	7, d
   13E1 28 01              7906 	jr	Z,00157$
   13E3 37                 7907 	scf
   13E4                    7908 00157$:
   13E4 D2r8Br14           7909 	jp	NC, 00114$
                           7910 ;./src/./physics.c:122: if(i != pos && GLOBAL_MAP[i] == GLOBAL_MAP[pos]){
   13E7 F8 08              7911 	ldhl	sp,#(9 - 1)
   13E9 4E                 7912 	ld	c, (hl)
   13EA 23                 7913 	inc	hl
   13EB 46                 7914 	ld	b, (hl)
   13EC F8 04              7915 	ldhl	sp,	#4
   13EE 7E                 7916 	ld	a, (hl)
   13EF 91                 7917 	sub	a, c
   13F0 20 06              7918 	jr	NZ,00158$
   13F2 23                 7919 	inc	hl
   13F3 7E                 7920 	ld	a, (hl)
   13F4 90                 7921 	sub	a, b
   13F5 CAr80r14           7922 	jp	Z,00113$
   13F8                    7923 00158$:
   13F8 21rF6r02           7924 	ld	hl, #_current_level
   13FB 4E                 7925 	ld	c, (hl)
   13FC 06 00              7926 	ld	b, #0x00
   13FE 69                 7927 	ld	l, c
   13FF 60                 7928 	ld	h, b
   1400 29                 7929 	add	hl, hl
   1401 29                 7930 	add	hl, hl
   1402 09                 7931 	add	hl, bc
   1403 29                 7932 	add	hl, hl
   1404 09                 7933 	add	hl, bc
   1405 29                 7934 	add	hl, hl
   1406 29                 7935 	add	hl, hl
   1407 09                 7936 	add	hl, bc
   1408 29                 7937 	add	hl, hl
   1409 29                 7938 	add	hl, hl
   140A 29                 7939 	add	hl, hl
   140B 4D                 7940 	ld	c, l
   140C 44                 7941 	ld	b, h
   140D 21rF8r02           7942 	ld	hl, #_maps
   1410 09                 7943 	add	hl, bc
   1411 4D                 7944 	ld	c, l
   1412 44                 7945 	ld	b, h
   1413 F8 08              7946 	ldhl	sp,	#8
   1415 2A                 7947 	ld	a, (hl+)
   1416 66                 7948 	ld	h, (hl)
   1417 6F                 7949 	ld	l, a
   1418 09                 7950 	add	hl, bc
   1419 7D                 7951 	ld	a, l
   141A 54                 7952 	ld	d, h
   141B F8 06              7953 	ldhl	sp,	#6
   141D 22                 7954 	ld	(hl+), a
   141E 72                 7955 	ld	(hl), d
   141F F8 04              7956 	ldhl	sp,	#4
   1421 2A                 7957 	ld	a, (hl+)
   1422 66                 7958 	ld	h, (hl)
   1423 6F                 7959 	ld	l, a
   1424 09                 7960 	add	hl, bc
   1425 4D                 7961 	ld	c, l
   1426 44                 7962 	ld	b, h
   1427 F8 06              7963 	ldhl	sp,#(7 - 1)
   1429 5E                 7964 	ld	e, (hl)
   142A 23                 7965 	inc	hl
   142B 56                 7966 	ld	d, (hl)
   142C 1A                 7967 	ld	a,(de)
   142D F5                 7968 	push	af
   142E 0A                 7969 	ld	a, (bc)
   142F 4F                 7970 	ld	c, a
   1430 F1                 7971 	pop	af
   1431 91                 7972 	sub	a, c
   1432 C2r80r14           7973 	jp	NZ,00113$
                           7974 ;./src/./physics.c:123: SWITCH_ROM_MBC1(0);
   1435 21 00 20           7975 	ld	hl, #0x2000
   1438 36 00              7976 	ld	(hl), #0x00
                           7977 ;./src/./physics.c:124: player->sprite.position.x = (i % 20) * 8 + 8;
   143A 21 14 00           7978 	ld	hl, #0x0014
   143D E5                 7979 	push	hl
   143E F8 0A              7980 	ldhl	sp,	#10
   1440 2A                 7981 	ld	a, (hl+)
   1441 66                 7982 	ld	h, (hl)
   1442 6F                 7983 	ld	l, a
   1443 E5                 7984 	push	hl
   1444 CDr00r00           7985 	call	__modsint
   1447 E8 04              7986 	add	sp, #4
   1449 7B                 7987 	ld	a, e
   144A 87                 7988 	add	a, a
   144B 87                 7989 	add	a, a
   144C 87                 7990 	add	a, a
   144D C6 08              7991 	add	a, #0x08
   144F 4F                 7992 	ld	c, a
   1450 E1                 7993 	pop	hl
   1451 E5                 7994 	push	hl
   1452 71                 7995 	ld	(hl), c
                           7996 ;./src/./physics.c:125: player->sprite.position.y = (i / 20) * 8 + 16;
   1453 21 14 00           7997 	ld	hl, #0x0014
   1456 E5                 7998 	push	hl
   1457 F8 0A              7999 	ldhl	sp,	#10
   1459 2A                 8000 	ld	a, (hl+)
   145A 66                 8001 	ld	h, (hl)
   145B 6F                 8002 	ld	l, a
   145C E5                 8003 	push	hl
   145D CDr00r00           8004 	call	__divsint
   1460 E8 04              8005 	add	sp, #4
   1462 7B                 8006 	ld	a, e
   1463 87                 8007 	add	a, a
   1464 87                 8008 	add	a, a
   1465 87                 8009 	add	a, a
   1466 C6 10              8010 	add	a, #0x10
   1468 4F                 8011 	ld	c, a
   1469 F8 02              8012 	ldhl	sp,	#2
   146B 2A                 8013 	ld	a, (hl+)
   146C 66                 8014 	ld	h, (hl)
   146D 6F                 8015 	ld	l, a
   146E 71                 8016 	ld	(hl), c
                           8017 ;./src/./physics.c:126: delay(100);
   146F 21 64 00           8018 	ld	hl, #0x0064
   1472 E5                 8019 	push	hl
   1473 CDr00r00           8020 	call	_delay
   1476 E8 02              8021 	add	sp, #2
                           8022 ;./src/./physics.c:127: update_position(&(player->sprite));
   1478 E1                 8023 	pop	hl
   1479 E5                 8024 	push	hl
   147A E5                 8025 	push	hl
   147B CDr97r00           8026 	call	_update_position
   147E E8 02              8027 	add	sp, #2
   1480                    8028 00113$:
                           8029 ;./src/./physics.c:121: for(int i = 0; i < TOTAL_TILES; ++i){
   1480 F8 08              8030 	ldhl	sp,	#8
   1482 34                 8031 	inc	(hl)
   1483 C2rC7r13           8032 	jp	NZ,00112$
   1486 23                 8033 	inc	hl
   1487 34                 8034 	inc	(hl)
   1488 C3rC7r13           8035 	jp	00112$
   148B                    8036 00114$:
                           8037 ;./src/./physics.c:133: }
   148B E8 0A              8038 	add	sp, #10
   148D C9                 8039 	ret
                           8040 ;./src/main.c:27: void performantdelay(UINT8 numloops){
                           8041 ;	---------------------------------
                           8042 ; Function performantdelay
                           8043 ; ---------------------------------
   148E                    8044 _performantdelay::
                           8045 ;./src/main.c:29: for(i = 0; i < numloops; i++){
   148E 0E 00              8046 	ld	c, #0x00
   1490                    8047 00103$:
   1490 79                 8048 	ld	a, c
   1491 F8 02              8049 	ldhl	sp,	#2
   1493 96                 8050 	sub	a, (hl)
   1494 D0                 8051 	ret	NC
                           8052 ;./src/main.c:30: wait_vbl_done();
   1495 C5                 8053 	push	bc
   1496 CDr00r00           8054 	call	_wait_vbl_done
   1499 C1                 8055 	pop	bc
                           8056 ;./src/main.c:29: for(i = 0; i < numloops; i++){
   149A 0C                 8057 	inc	c
   149B 18 F3              8058 	jr	00103$
                           8059 ;./src/main.c:32: }
   149D C9                 8060 	ret
   149E                    8061 _splash_data:
   149E 00                 8062 	.db #0x00	; 0
   149F 00                 8063 	.db #0x00	; 0
   14A0 00                 8064 	.db #0x00	; 0
   14A1 00                 8065 	.db #0x00	; 0
   14A2 00                 8066 	.db #0x00	; 0
   14A3 00                 8067 	.db #0x00	; 0
   14A4 00                 8068 	.db #0x00	; 0
   14A5 00                 8069 	.db #0x00	; 0
   14A6 00                 8070 	.db #0x00	; 0
   14A7 00                 8071 	.db #0x00	; 0
   14A8 00                 8072 	.db #0x00	; 0
   14A9 00                 8073 	.db #0x00	; 0
   14AA 00                 8074 	.db #0x00	; 0
   14AB 00                 8075 	.db #0x00	; 0
   14AC 00                 8076 	.db #0x00	; 0
   14AD 00                 8077 	.db #0x00	; 0
   14AE 00                 8078 	.db #0x00	; 0
   14AF 00                 8079 	.db #0x00	; 0
   14B0 00                 8080 	.db #0x00	; 0
   14B1 00                 8081 	.db #0x00	; 0
   14B2 00                 8082 	.db #0x00	; 0
   14B3 00                 8083 	.db #0x00	; 0
   14B4 00                 8084 	.db #0x00	; 0
   14B5 00                 8085 	.db #0x00	; 0
   14B6 00                 8086 	.db #0x00	; 0
   14B7 00                 8087 	.db #0x00	; 0
   14B8 00                 8088 	.db #0x00	; 0
   14B9 00                 8089 	.db #0x00	; 0
   14BA 3F                 8090 	.db #0x3f	; 63
   14BB 3F                 8091 	.db #0x3f	; 63
   14BC 3F                 8092 	.db #0x3f	; 63
   14BD 3F                 8093 	.db #0x3f	; 63
   14BE 00                 8094 	.db #0x00	; 0
   14BF 00                 8095 	.db #0x00	; 0
   14C0 00                 8096 	.db #0x00	; 0
   14C1 00                 8097 	.db #0x00	; 0
   14C2 00                 8098 	.db #0x00	; 0
   14C3 00                 8099 	.db #0x00	; 0
   14C4 00                 8100 	.db #0x00	; 0
   14C5 00                 8101 	.db #0x00	; 0
   14C6 00                 8102 	.db #0x00	; 0
   14C7 00                 8103 	.db #0x00	; 0
   14C8 00                 8104 	.db #0x00	; 0
   14C9 00                 8105 	.db #0x00	; 0
   14CA FF                 8106 	.db #0xff	; 255
   14CB FF                 8107 	.db #0xff	; 255
   14CC FF                 8108 	.db #0xff	; 255
   14CD FF                 8109 	.db #0xff	; 255
   14CE 00                 8110 	.db #0x00	; 0
   14CF 00                 8111 	.db #0x00	; 0
   14D0 01                 8112 	.db #0x01	; 1
   14D1 01                 8113 	.db #0x01	; 1
   14D2 01                 8114 	.db #0x01	; 1
   14D3 01                 8115 	.db #0x01	; 1
   14D4 01                 8116 	.db #0x01	; 1
   14D5 01                 8117 	.db #0x01	; 1
   14D6 01                 8118 	.db #0x01	; 1
   14D7 01                 8119 	.db #0x01	; 1
   14D8 01                 8120 	.db #0x01	; 1
   14D9 01                 8121 	.db #0x01	; 1
   14DA 01                 8122 	.db #0x01	; 1
   14DB 01                 8123 	.db #0x01	; 1
   14DC 01                 8124 	.db #0x01	; 1
   14DD 01                 8125 	.db #0x01	; 1
   14DE 3F                 8126 	.db #0x3f	; 63
   14DF 3F                 8127 	.db #0x3f	; 63
   14E0 F8                 8128 	.db #0xf8	; 248
   14E1 F8                 8129 	.db #0xf8	; 248
   14E2 F8                 8130 	.db #0xf8	; 248
   14E3 F8                 8131 	.db #0xf8	; 248
   14E4 F8                 8132 	.db #0xf8	; 248
   14E5 F8                 8133 	.db #0xf8	; 248
   14E6 F8                 8134 	.db #0xf8	; 248
   14E7 F8                 8135 	.db #0xf8	; 248
   14E8 F8                 8136 	.db #0xf8	; 248
   14E9 F8                 8137 	.db #0xf8	; 248
   14EA F8                 8138 	.db #0xf8	; 248
   14EB F8                 8139 	.db #0xf8	; 248
   14EC F8                 8140 	.db #0xf8	; 248
   14ED F8                 8141 	.db #0xf8	; 248
   14EE FF                 8142 	.db #0xff	; 255
   14EF FF                 8143 	.db #0xff	; 255
   14F0 07                 8144 	.db #0x07	; 7
   14F1 07                 8145 	.db #0x07	; 7
   14F2 07                 8146 	.db #0x07	; 7
   14F3 07                 8147 	.db #0x07	; 7
   14F4 07                 8148 	.db #0x07	; 7
   14F5 07                 8149 	.db #0x07	; 7
   14F6 07                 8150 	.db #0x07	; 7
   14F7 07                 8151 	.db #0x07	; 7
   14F8 00                 8152 	.db #0x00	; 0
   14F9 00                 8153 	.db #0x00	; 0
   14FA 00                 8154 	.db #0x00	; 0
   14FB 00                 8155 	.db #0x00	; 0
   14FC 00                 8156 	.db #0x00	; 0
   14FD 00                 8157 	.db #0x00	; 0
   14FE 00                 8158 	.db #0x00	; 0
   14FF 00                 8159 	.db #0x00	; 0
   1500 F0                 8160 	.db #0xf0	; 240
   1501 F0                 8161 	.db #0xf0	; 240
   1502 F0                 8162 	.db #0xf0	; 240
   1503 F0                 8163 	.db #0xf0	; 240
   1504 F0                 8164 	.db #0xf0	; 240
   1505 F0                 8165 	.db #0xf0	; 240
   1506 F0                 8166 	.db #0xf0	; 240
   1507 F0                 8167 	.db #0xf0	; 240
   1508 00                 8168 	.db #0x00	; 0
   1509 00                 8169 	.db #0x00	; 0
   150A 00                 8170 	.db #0x00	; 0
   150B 00                 8171 	.db #0x00	; 0
   150C 00                 8172 	.db #0x00	; 0
   150D 00                 8173 	.db #0x00	; 0
   150E 00                 8174 	.db #0x00	; 0
   150F 00                 8175 	.db #0x00	; 0
   1510 00                 8176 	.db #0x00	; 0
   1511 00                 8177 	.db #0x00	; 0
   1512 00                 8178 	.db #0x00	; 0
   1513 00                 8179 	.db #0x00	; 0
   1514 00                 8180 	.db #0x00	; 0
   1515 00                 8181 	.db #0x00	; 0
   1516 3F                 8182 	.db #0x3f	; 63
   1517 3F                 8183 	.db #0x3f	; 63
   1518 3F                 8184 	.db #0x3f	; 63
   1519 3F                 8185 	.db #0x3f	; 63
   151A C1                 8186 	.db #0xc1	; 193
   151B C1                 8187 	.db #0xc1	; 193
   151C C1                 8188 	.db #0xc1	; 193
   151D C1                 8189 	.db #0xc1	; 193
   151E 00                 8190 	.db #0x00	; 0
   151F 00                 8191 	.db #0x00	; 0
   1520 00                 8192 	.db #0x00	; 0
   1521 00                 8193 	.db #0x00	; 0
   1522 00                 8194 	.db #0x00	; 0
   1523 00                 8195 	.db #0x00	; 0
   1524 00                 8196 	.db #0x00	; 0
   1525 00                 8197 	.db #0x00	; 0
   1526 F0                 8198 	.db #0xf0	; 240
   1527 F0                 8199 	.db #0xf0	; 240
   1528 F0                 8200 	.db #0xf0	; 240
   1529 F0                 8201 	.db #0xf0	; 240
   152A FE                 8202 	.db #0xfe	; 254
   152B FE                 8203 	.db #0xfe	; 254
   152C FE                 8204 	.db #0xfe	; 254
   152D FE                 8205 	.db #0xfe	; 254
   152E 00                 8206 	.db #0x00	; 0
   152F 00                 8207 	.db #0x00	; 0
   1530 00                 8208 	.db #0x00	; 0
   1531 00                 8209 	.db #0x00	; 0
   1532 00                 8210 	.db #0x00	; 0
   1533 00                 8211 	.db #0x00	; 0
   1534 00                 8212 	.db #0x00	; 0
   1535 00                 8213 	.db #0x00	; 0
   1536 30                 8214 	.db #0x30	; 48	'0'
   1537 30                 8215 	.db #0x30	; 48	'0'
   1538 30                 8216 	.db #0x30	; 48	'0'
   1539 30                 8217 	.db #0x30	; 48	'0'
   153A 30                 8218 	.db #0x30	; 48	'0'
   153B 30                 8219 	.db #0x30	; 48	'0'
   153C 3E                 8220 	.db #0x3e	; 62
   153D 3E                 8221 	.db #0x3e	; 62
   153E 00                 8222 	.db #0x00	; 0
   153F 00                 8223 	.db #0x00	; 0
   1540 00                 8224 	.db #0x00	; 0
   1541 00                 8225 	.db #0x00	; 0
   1542 00                 8226 	.db #0x00	; 0
   1543 00                 8227 	.db #0x00	; 0
   1544 00                 8228 	.db #0x00	; 0
   1545 00                 8229 	.db #0x00	; 0
   1546 1F                 8230 	.db #0x1f	; 31
   1547 1F                 8231 	.db #0x1f	; 31
   1548 1F                 8232 	.db #0x1f	; 31
   1549 1F                 8233 	.db #0x1f	; 31
   154A 1F                 8234 	.db #0x1f	; 31
   154B 1F                 8235 	.db #0x1f	; 31
   154C 7F                 8236 	.db #0x7f	; 127
   154D 7F                 8237 	.db #0x7f	; 127
   154E 00                 8238 	.db #0x00	; 0
   154F 00                 8239 	.db #0x00	; 0
   1550 00                 8240 	.db #0x00	; 0
   1551 00                 8241 	.db #0x00	; 0
   1552 00                 8242 	.db #0x00	; 0
   1553 00                 8243 	.db #0x00	; 0
   1554 00                 8244 	.db #0x00	; 0
   1555 00                 8245 	.db #0x00	; 0
   1556 1F                 8246 	.db #0x1f	; 31
   1557 1F                 8247 	.db #0x1f	; 31
   1558 1F                 8248 	.db #0x1f	; 31
   1559 1F                 8249 	.db #0x1f	; 31
   155A 1F                 8250 	.db #0x1f	; 31
   155B 1F                 8251 	.db #0x1f	; 31
   155C 1F                 8252 	.db #0x1f	; 31
   155D 1F                 8253 	.db #0x1f	; 31
   155E 00                 8254 	.db #0x00	; 0
   155F 00                 8255 	.db #0x00	; 0
   1560 00                 8256 	.db #0x00	; 0
   1561 00                 8257 	.db #0x00	; 0
   1562 00                 8258 	.db #0x00	; 0
   1563 00                 8259 	.db #0x00	; 0
   1564 00                 8260 	.db #0x00	; 0
   1565 00                 8261 	.db #0x00	; 0
   1566 FF                 8262 	.db #0xff	; 255
   1567 FF                 8263 	.db #0xff	; 255
   1568 FF                 8264 	.db #0xff	; 255
   1569 FF                 8265 	.db #0xff	; 255
   156A 00                 8266 	.db #0x00	; 0
   156B 00                 8267 	.db #0x00	; 0
   156C 00                 8268 	.db #0x00	; 0
   156D 00                 8269 	.db #0x00	; 0
   156E 00                 8270 	.db #0x00	; 0
   156F 00                 8271 	.db #0x00	; 0
   1570 00                 8272 	.db #0x00	; 0
   1571 00                 8273 	.db #0x00	; 0
   1572 00                 8274 	.db #0x00	; 0
   1573 00                 8275 	.db #0x00	; 0
   1574 00                 8276 	.db #0x00	; 0
   1575 00                 8277 	.db #0x00	; 0
   1576 80                 8278 	.db #0x80	; 128
   1577 80                 8279 	.db #0x80	; 128
   1578 80                 8280 	.db #0x80	; 128
   1579 80                 8281 	.db #0x80	; 128
   157A 00                 8282 	.db #0x00	; 0
   157B 00                 8283 	.db #0x00	; 0
   157C 00                 8284 	.db #0x00	; 0
   157D 00                 8285 	.db #0x00	; 0
   157E 01                 8286 	.db #0x01	; 1
   157F 01                 8287 	.db #0x01	; 1
   1580 01                 8288 	.db #0x01	; 1
   1581 01                 8289 	.db #0x01	; 1
   1582 01                 8290 	.db #0x01	; 1
   1583 01                 8291 	.db #0x01	; 1
   1584 01                 8292 	.db #0x01	; 1
   1585 01                 8293 	.db #0x01	; 1
   1586 01                 8294 	.db #0x01	; 1
   1587 01                 8295 	.db #0x01	; 1
   1588 01                 8296 	.db #0x01	; 1
   1589 01                 8297 	.db #0x01	; 1
   158A 01                 8298 	.db #0x01	; 1
   158B 01                 8299 	.db #0x01	; 1
   158C 00                 8300 	.db #0x00	; 0
   158D 00                 8301 	.db #0x00	; 0
   158E F8                 8302 	.db #0xf8	; 248
   158F F8                 8303 	.db #0xf8	; 248
   1590 F8                 8304 	.db #0xf8	; 248
   1591 F8                 8305 	.db #0xf8	; 248
   1592 F8                 8306 	.db #0xf8	; 248
   1593 F8                 8307 	.db #0xf8	; 248
   1594 F8                 8308 	.db #0xf8	; 248
   1595 F8                 8309 	.db #0xf8	; 248
   1596 F8                 8310 	.db #0xf8	; 248
   1597 F8                 8311 	.db #0xf8	; 248
   1598 F8                 8312 	.db #0xf8	; 248
   1599 F8                 8313 	.db #0xf8	; 248
   159A F8                 8314 	.db #0xf8	; 248
   159B F8                 8315 	.db #0xf8	; 248
   159C 3F                 8316 	.db #0x3f	; 63
   159D 3F                 8317 	.db #0x3f	; 63
   159E 7F                 8318 	.db #0x7f	; 127
   159F 7F                 8319 	.db #0x7f	; 127
   15A0 7F                 8320 	.db #0x7f	; 127
   15A1 7F                 8321 	.db #0x7f	; 127
   15A2 7F                 8322 	.db #0x7f	; 127
   15A3 7F                 8323 	.db #0x7f	; 127
   15A4 07                 8324 	.db #0x07	; 7
   15A5 07                 8325 	.db #0x07	; 7
   15A6 07                 8326 	.db #0x07	; 7
   15A7 07                 8327 	.db #0x07	; 7
   15A8 07                 8328 	.db #0x07	; 7
   15A9 07                 8329 	.db #0x07	; 7
   15AA 07                 8330 	.db #0x07	; 7
   15AB 07                 8331 	.db #0x07	; 7
   15AC FF                 8332 	.db #0xff	; 255
   15AD FF                 8333 	.db #0xff	; 255
   15AE F0                 8334 	.db #0xf0	; 240
   15AF F0                 8335 	.db #0xf0	; 240
   15B0 F0                 8336 	.db #0xf0	; 240
   15B1 F0                 8337 	.db #0xf0	; 240
   15B2 F0                 8338 	.db #0xf0	; 240
   15B3 F0                 8339 	.db #0xf0	; 240
   15B4 F0                 8340 	.db #0xf0	; 240
   15B5 F0                 8341 	.db #0xf0	; 240
   15B6 F0                 8342 	.db #0xf0	; 240
   15B7 F0                 8343 	.db #0xf0	; 240
   15B8 F0                 8344 	.db #0xf0	; 240
   15B9 F0                 8345 	.db #0xf0	; 240
   15BA F0                 8346 	.db #0xf0	; 240
   15BB F0                 8347 	.db #0xf0	; 240
   15BC F0                 8348 	.db #0xf0	; 240
   15BD F0                 8349 	.db #0xf0	; 240
   15BE C1                 8350 	.db #0xc1	; 193
   15BF C1                 8351 	.db #0xc1	; 193
   15C0 C1                 8352 	.db #0xc1	; 193
   15C1 C1                 8353 	.db #0xc1	; 193
   15C2 C1                 8354 	.db #0xc1	; 193
   15C3 C1                 8355 	.db #0xc1	; 193
   15C4 FF                 8356 	.db #0xff	; 255
   15C5 FF                 8357 	.db #0xff	; 255
   15C6 FF                 8358 	.db #0xff	; 255
   15C7 FF                 8359 	.db #0xff	; 255
   15C8 C1                 8360 	.db #0xc1	; 193
   15C9 C1                 8361 	.db #0xc1	; 193
   15CA C1                 8362 	.db #0xc1	; 193
   15CB C1                 8363 	.db #0xc1	; 193
   15CC C1                 8364 	.db #0xc1	; 193
   15CD C1                 8365 	.db #0xc1	; 193
   15CE FE                 8366 	.db #0xfe	; 254
   15CF FE                 8367 	.db #0xfe	; 254
   15D0 FE                 8368 	.db #0xfe	; 254
   15D1 FE                 8369 	.db #0xfe	; 254
   15D2 FE                 8370 	.db #0xfe	; 254
   15D3 FE                 8371 	.db #0xfe	; 254
   15D4 FE                 8372 	.db #0xfe	; 254
   15D5 FE                 8373 	.db #0xfe	; 254
   15D6 FE                 8374 	.db #0xfe	; 254
   15D7 FE                 8375 	.db #0xfe	; 254
   15D8 FE                 8376 	.db #0xfe	; 254
   15D9 FE                 8377 	.db #0xfe	; 254
   15DA FE                 8378 	.db #0xfe	; 254
   15DB FE                 8379 	.db #0xfe	; 254
   15DC FE                 8380 	.db #0xfe	; 254
   15DD FE                 8381 	.db #0xfe	; 254
   15DE 3E                 8382 	.db #0x3e	; 62
   15DF 3E                 8383 	.db #0x3e	; 62
   15E0 3F                 8384 	.db #0x3f	; 63
   15E1 3F                 8385 	.db #0x3f	; 63
   15E2 3F                 8386 	.db #0x3f	; 63
   15E3 3F                 8387 	.db #0x3f	; 63
   15E4 31                 8388 	.db #0x31	; 49	'1'
   15E5 31                 8389 	.db #0x31	; 49	'1'
   15E6 31                 8390 	.db #0x31	; 49	'1'
   15E7 31                 8391 	.db #0x31	; 49	'1'
   15E8 31                 8392 	.db #0x31	; 49	'1'
   15E9 31                 8393 	.db #0x31	; 49	'1'
   15EA 30                 8394 	.db #0x30	; 48	'0'
   15EB 30                 8395 	.db #0x30	; 48	'0'
   15EC 30                 8396 	.db #0x30	; 48	'0'
   15ED 30                 8397 	.db #0x30	; 48	'0'
   15EE 7F                 8398 	.db #0x7f	; 127
   15EF 7F                 8399 	.db #0x7f	; 127
   15F0 FF                 8400 	.db #0xff	; 255
   15F1 FF                 8401 	.db #0xff	; 255
   15F2 FF                 8402 	.db #0xff	; 255
   15F3 FF                 8403 	.db #0xff	; 255
   15F4 9F                 8404 	.db #0x9f	; 159
   15F5 9F                 8405 	.db #0x9f	; 159
   15F6 9F                 8406 	.db #0x9f	; 159
   15F7 9F                 8407 	.db #0x9f	; 159
   15F8 9F                 8408 	.db #0x9f	; 159
   15F9 9F                 8409 	.db #0x9f	; 159
   15FA 1F                 8410 	.db #0x1f	; 31
   15FB 1F                 8411 	.db #0x1f	; 31
   15FC 1F                 8412 	.db #0x1f	; 31
   15FD 1F                 8413 	.db #0x1f	; 31
   15FE 1F                 8414 	.db #0x1f	; 31
   15FF 1F                 8415 	.db #0x1f	; 31
   1600 1F                 8416 	.db #0x1f	; 31
   1601 1F                 8417 	.db #0x1f	; 31
   1602 1F                 8418 	.db #0x1f	; 31
   1603 1F                 8419 	.db #0x1f	; 31
   1604 1F                 8420 	.db #0x1f	; 31
   1605 1F                 8421 	.db #0x1f	; 31
   1606 1F                 8422 	.db #0x1f	; 31
   1607 1F                 8423 	.db #0x1f	; 31
   1608 1F                 8424 	.db #0x1f	; 31
   1609 1F                 8425 	.db #0x1f	; 31
   160A 1F                 8426 	.db #0x1f	; 31
   160B 1F                 8427 	.db #0x1f	; 31
   160C 1F                 8428 	.db #0x1f	; 31
   160D 1F                 8429 	.db #0x1f	; 31
   160E 00                 8430 	.db #0x00	; 0
   160F 00                 8431 	.db #0x00	; 0
   1610 FE                 8432 	.db #0xfe	; 254
   1611 FE                 8433 	.db #0xfe	; 254
   1612 FE                 8434 	.db #0xfe	; 254
   1613 FE                 8435 	.db #0xfe	; 254
   1614 00                 8436 	.db #0x00	; 0
   1615 00                 8437 	.db #0x00	; 0
   1616 00                 8438 	.db #0x00	; 0
   1617 00                 8439 	.db #0x00	; 0
   1618 00                 8440 	.db #0x00	; 0
   1619 00                 8441 	.db #0x00	; 0
   161A 00                 8442 	.db #0x00	; 0
   161B 00                 8443 	.db #0x00	; 0
   161C 00                 8444 	.db #0x00	; 0
   161D 00                 8445 	.db #0x00	; 0
   161E 3F                 8446 	.db #0x3f	; 63
   161F 3F                 8447 	.db #0x3f	; 63
   1620 3F                 8448 	.db #0x3f	; 63
   1621 3F                 8449 	.db #0x3f	; 63
   1622 00                 8450 	.db #0x00	; 0
   1623 00                 8451 	.db #0x00	; 0
   1624 00                 8452 	.db #0x00	; 0
   1625 00                 8453 	.db #0x00	; 0
   1626 00                 8454 	.db #0x00	; 0
   1627 00                 8455 	.db #0x00	; 0
   1628 00                 8456 	.db #0x00	; 0
   1629 00                 8457 	.db #0x00	; 0
   162A 00                 8458 	.db #0x00	; 0
   162B 00                 8459 	.db #0x00	; 0
   162C 00                 8460 	.db #0x00	; 0
   162D 00                 8461 	.db #0x00	; 0
   162E FF                 8462 	.db #0xff	; 255
   162F FF                 8463 	.db #0xff	; 255
   1630 FF                 8464 	.db #0xff	; 255
   1631 FF                 8465 	.db #0xff	; 255
   1632 00                 8466 	.db #0x00	; 0
   1633 00                 8467 	.db #0x00	; 0
   1634 00                 8468 	.db #0x00	; 0
   1635 00                 8469 	.db #0x00	; 0
   1636 00                 8470 	.db #0x00	; 0
   1637 00                 8471 	.db #0x00	; 0
   1638 00                 8472 	.db #0x00	; 0
   1639 00                 8473 	.db #0x00	; 0
   163A 00                 8474 	.db #0x00	; 0
   163B 00                 8475 	.db #0x00	; 0
   163C 00                 8476 	.db #0x00	; 0
   163D 00                 8477 	.db #0x00	; 0
   163E F0                 8478 	.db #0xf0	; 240
   163F F0                 8479 	.db #0xf0	; 240
   1640 F0                 8480 	.db #0xf0	; 240
   1641 F0                 8481 	.db #0xf0	; 240
   1642 00                 8482 	.db #0x00	; 0
   1643 00                 8483 	.db #0x00	; 0
   1644 00                 8484 	.db #0x00	; 0
   1645 00                 8485 	.db #0x00	; 0
   1646 00                 8486 	.db #0x00	; 0
   1647 00                 8487 	.db #0x00	; 0
   1648 00                 8488 	.db #0x00	; 0
   1649 00                 8489 	.db #0x00	; 0
   164A 00                 8490 	.db #0x00	; 0
   164B 00                 8491 	.db #0x00	; 0
   164C 00                 8492 	.db #0x00	; 0
   164D 00                 8493 	.db #0x00	; 0
   164E C1                 8494 	.db #0xc1	; 193
   164F C1                 8495 	.db #0xc1	; 193
   1650 C1                 8496 	.db #0xc1	; 193
   1651 C1                 8497 	.db #0xc1	; 193
   1652 00                 8498 	.db #0x00	; 0
   1653 00                 8499 	.db #0x00	; 0
   1654 00                 8500 	.db #0x00	; 0
   1655 00                 8501 	.db #0x00	; 0
   1656 00                 8502 	.db #0x00	; 0
   1657 00                 8503 	.db #0x00	; 0
   1658 00                 8504 	.db #0x00	; 0
   1659 00                 8505 	.db #0x00	; 0
   165A 00                 8506 	.db #0x00	; 0
   165B 00                 8507 	.db #0x00	; 0
   165C 00                 8508 	.db #0x00	; 0
   165D 00                 8509 	.db #0x00	; 0
   165E FE                 8510 	.db #0xfe	; 254
   165F FE                 8511 	.db #0xfe	; 254
   1660 FE                 8512 	.db #0xfe	; 254
   1661 FE                 8513 	.db #0xfe	; 254
   1662 00                 8514 	.db #0x00	; 0
   1663 00                 8515 	.db #0x00	; 0
   1664 00                 8516 	.db #0x00	; 0
   1665 00                 8517 	.db #0x00	; 0
   1666 00                 8518 	.db #0x00	; 0
   1667 00                 8519 	.db #0x00	; 0
   1668 00                 8520 	.db #0x00	; 0
   1669 00                 8521 	.db #0x00	; 0
   166A 00                 8522 	.db #0x00	; 0
   166B 00                 8523 	.db #0x00	; 0
   166C 00                 8524 	.db #0x00	; 0
   166D 00                 8525 	.db #0x00	; 0
   166E 30                 8526 	.db #0x30	; 48	'0'
   166F 30                 8527 	.db #0x30	; 48	'0'
   1670 30                 8528 	.db #0x30	; 48	'0'
   1671 30                 8529 	.db #0x30	; 48	'0'
   1672 00                 8530 	.db #0x00	; 0
   1673 00                 8531 	.db #0x00	; 0
   1674 00                 8532 	.db #0x00	; 0
   1675 00                 8533 	.db #0x00	; 0
   1676 00                 8534 	.db #0x00	; 0
   1677 00                 8535 	.db #0x00	; 0
   1678 00                 8536 	.db #0x00	; 0
   1679 00                 8537 	.db #0x00	; 0
   167A 00                 8538 	.db #0x00	; 0
   167B 00                 8539 	.db #0x00	; 0
   167C 00                 8540 	.db #0x00	; 0
   167D 00                 8541 	.db #0x00	; 0
   167E 1F                 8542 	.db #0x1f	; 31
   167F 1F                 8543 	.db #0x1f	; 31
   1680 1F                 8544 	.db #0x1f	; 31
   1681 1F                 8545 	.db #0x1f	; 31
   1682 00                 8546 	.db #0x00	; 0
   1683 00                 8547 	.db #0x00	; 0
   1684 00                 8548 	.db #0x00	; 0
   1685 00                 8549 	.db #0x00	; 0
   1686 00                 8550 	.db #0x00	; 0
   1687 00                 8551 	.db #0x00	; 0
   1688 00                 8552 	.db #0x00	; 0
   1689 00                 8553 	.db #0x00	; 0
   168A 00                 8554 	.db #0x00	; 0
   168B 00                 8555 	.db #0x00	; 0
   168C 00                 8556 	.db #0x00	; 0
   168D 00                 8557 	.db #0x00	; 0
   168E 80                 8558 	.db #0x80	; 128
   168F 80                 8559 	.db #0x80	; 128
   1690 80                 8560 	.db #0x80	; 128
   1691 80                 8561 	.db #0x80	; 128
   1692 00                 8562 	.db #0x00	; 0
   1693 00                 8563 	.db #0x00	; 0
   1694 00                 8564 	.db #0x00	; 0
   1695 00                 8565 	.db #0x00	; 0
   1696 00                 8566 	.db #0x00	; 0
   1697 00                 8567 	.db #0x00	; 0
   1698 00                 8568 	.db #0x00	; 0
   1699 00                 8569 	.db #0x00	; 0
   169A 00                 8570 	.db #0x00	; 0
   169B 00                 8571 	.db #0x00	; 0
   169C 00                 8572 	.db #0x00	; 0
   169D 00                 8573 	.db #0x00	; 0
   169E 00                 8574 	.db #0x00	; 0
   169F 00                 8575 	.db #0x00	; 0
   16A0 00                 8576 	.db #0x00	; 0
   16A1 00                 8577 	.db #0x00	; 0
   16A2 00                 8578 	.db #0x00	; 0
   16A3 00                 8579 	.db #0x00	; 0
   16A4 7F                 8580 	.db #0x7f	; 127
   16A5 7F                 8581 	.db #0x7f	; 127
   16A6 7F                 8582 	.db #0x7f	; 127
   16A7 7F                 8583 	.db #0x7f	; 127
   16A8 7F                 8584 	.db #0x7f	; 127
   16A9 7F                 8585 	.db #0x7f	; 127
   16AA 7F                 8586 	.db #0x7f	; 127
   16AB 7F                 8587 	.db #0x7f	; 127
   16AC 7F                 8588 	.db #0x7f	; 127
   16AD 7F                 8589 	.db #0x7f	; 127
   16AE 00                 8590 	.db #0x00	; 0
   16AF 00                 8591 	.db #0x00	; 0
   16B0 00                 8592 	.db #0x00	; 0
   16B1 00                 8593 	.db #0x00	; 0
   16B2 00                 8594 	.db #0x00	; 0
   16B3 00                 8595 	.db #0x00	; 0
   16B4 FF                 8596 	.db #0xff	; 255
   16B5 FF                 8597 	.db #0xff	; 255
   16B6 FF                 8598 	.db #0xff	; 255
   16B7 FF                 8599 	.db #0xff	; 255
   16B8 FF                 8600 	.db #0xff	; 255
   16B9 FF                 8601 	.db #0xff	; 255
   16BA FF                 8602 	.db #0xff	; 255
   16BB FF                 8603 	.db #0xff	; 255
   16BC 80                 8604 	.db #0x80	; 128
   16BD C0                 8605 	.db #0xc0	; 192
   16BE 00                 8606 	.db #0x00	; 0
   16BF 00                 8607 	.db #0x00	; 0
   16C0 00                 8608 	.db #0x00	; 0
   16C1 00                 8609 	.db #0x00	; 0
   16C2 00                 8610 	.db #0x00	; 0
   16C3 00                 8611 	.db #0x00	; 0
   16C4 FC                 8612 	.db #0xfc	; 252
   16C5 FC                 8613 	.db #0xfc	; 252
   16C6 FC                 8614 	.db #0xfc	; 252
   16C7 FC                 8615 	.db #0xfc	; 252
   16C8 FC                 8616 	.db #0xfc	; 252
   16C9 FC                 8617 	.db #0xfc	; 252
   16CA FC                 8618 	.db #0xfc	; 252
   16CB FC                 8619 	.db #0xfc	; 252
   16CC 3C                 8620 	.db #0x3c	; 60
   16CD 3C                 8621 	.db #0x3c	; 60
   16CE 00                 8622 	.db #0x00	; 0
   16CF 00                 8623 	.db #0x00	; 0
   16D0 00                 8624 	.db #0x00	; 0
   16D1 00                 8625 	.db #0x00	; 0
   16D2 00                 8626 	.db #0x00	; 0
   16D3 00                 8627 	.db #0x00	; 0
   16D4 00                 8628 	.db #0x00	; 0
   16D5 00                 8629 	.db #0x00	; 0
   16D6 00                 8630 	.db #0x00	; 0
   16D7 00                 8631 	.db #0x00	; 0
   16D8 00                 8632 	.db #0x00	; 0
   16D9 00                 8633 	.db #0x00	; 0
   16DA 01                 8634 	.db #0x01	; 1
   16DB 01                 8635 	.db #0x01	; 1
   16DC 01                 8636 	.db #0x01	; 1
   16DD 01                 8637 	.db #0x01	; 1
   16DE 00                 8638 	.db #0x00	; 0
   16DF 00                 8639 	.db #0x00	; 0
   16E0 00                 8640 	.db #0x00	; 0
   16E1 00                 8641 	.db #0x00	; 0
   16E2 00                 8642 	.db #0x00	; 0
   16E3 00                 8643 	.db #0x00	; 0
   16E4 00                 8644 	.db #0x00	; 0
   16E5 00                 8645 	.db #0x00	; 0
   16E6 00                 8646 	.db #0x00	; 0
   16E7 00                 8647 	.db #0x00	; 0
   16E8 00                 8648 	.db #0x00	; 0
   16E9 00                 8649 	.db #0x00	; 0
   16EA E0                 8650 	.db #0xe0	; 224
   16EB E0                 8651 	.db #0xe0	; 224
   16EC E0                 8652 	.db #0xe0	; 224
   16ED E0                 8653 	.db #0xe0	; 224
   16EE 7F                 8654 	.db #0x7f	; 127
   16EF 7F                 8655 	.db #0x7f	; 127
   16F0 7F                 8656 	.db #0x7f	; 127
   16F1 7F                 8657 	.db #0x7f	; 127
   16F2 7F                 8658 	.db #0x7f	; 127
   16F3 7F                 8659 	.db #0x7f	; 127
   16F4 7F                 8660 	.db #0x7f	; 127
   16F5 7F                 8661 	.db #0x7f	; 127
   16F6 7F                 8662 	.db #0x7f	; 127
   16F7 7F                 8663 	.db #0x7f	; 127
   16F8 7F                 8664 	.db #0x7f	; 127
   16F9 7F                 8665 	.db #0x7f	; 127
   16FA 7F                 8666 	.db #0x7f	; 127
   16FB 7F                 8667 	.db #0x7f	; 127
   16FC 7F                 8668 	.db #0x7f	; 127
   16FD 7F                 8669 	.db #0x7f	; 127
   16FE 80                 8670 	.db #0x80	; 128
   16FF 80                 8671 	.db #0x80	; 128
   1700 80                 8672 	.db #0x80	; 128
   1701 80                 8673 	.db #0x80	; 128
   1702 80                 8674 	.db #0x80	; 128
   1703 80                 8675 	.db #0x80	; 128
   1704 80                 8676 	.db #0x80	; 128
   1705 80                 8677 	.db #0x80	; 128
   1706 FF                 8678 	.db #0xff	; 255
   1707 FF                 8679 	.db #0xff	; 255
   1708 FF                 8680 	.db #0xff	; 255
   1709 FF                 8681 	.db #0xff	; 255
   170A FF                 8682 	.db #0xff	; 255
   170B FF                 8683 	.db #0xff	; 255
   170C FF                 8684 	.db #0xff	; 255
   170D FF                 8685 	.db #0xff	; 255
   170E 3F                 8686 	.db #0x3f	; 63
   170F 3F                 8687 	.db #0x3f	; 63
   1710 3F                 8688 	.db #0x3f	; 63
   1711 3F                 8689 	.db #0x3f	; 63
   1712 3F                 8690 	.db #0x3f	; 63
   1713 3F                 8691 	.db #0x3f	; 63
   1714 3C                 8692 	.db #0x3c	; 60
   1715 3C                 8693 	.db #0x3c	; 60
   1716 FC                 8694 	.db #0xfc	; 252
   1717 FC                 8695 	.db #0xfc	; 252
   1718 FC                 8696 	.db #0xfc	; 252
   1719 FC                 8697 	.db #0xfc	; 252
   171A FC                 8698 	.db #0xfc	; 252
   171B FC                 8699 	.db #0xfc	; 252
   171C FC                 8700 	.db #0xfc	; 252
   171D FC                 8701 	.db #0xfc	; 252
   171E C0                 8702 	.db #0xc0	; 192
   171F C0                 8703 	.db #0xc0	; 192
   1720 C0                 8704 	.db #0xc0	; 192
   1721 C0                 8705 	.db #0xc0	; 192
   1722 C0                 8706 	.db #0xc0	; 192
   1723 C0                 8707 	.db #0xc0	; 192
   1724 00                 8708 	.db #0x00	; 0
   1725 00                 8709 	.db #0x00	; 0
   1726 01                 8710 	.db #0x01	; 1
   1727 01                 8711 	.db #0x01	; 1
   1728 01                 8712 	.db #0x01	; 1
   1729 01                 8713 	.db #0x01	; 1
   172A 07                 8714 	.db #0x07	; 7
   172B 07                 8715 	.db #0x07	; 7
   172C 07                 8716 	.db #0x07	; 7
   172D 07                 8717 	.db #0x07	; 7
   172E 00                 8718 	.db #0x00	; 0
   172F 00                 8719 	.db #0x00	; 0
   1730 00                 8720 	.db #0x00	; 0
   1731 00                 8721 	.db #0x00	; 0
   1732 00                 8722 	.db #0x00	; 0
   1733 00                 8723 	.db #0x00	; 0
   1734 00                 8724 	.db #0x00	; 0
   1735 00                 8725 	.db #0x00	; 0
   1736 FF                 8726 	.db #0xff	; 255
   1737 FF                 8727 	.db #0xff	; 255
   1738 FF                 8728 	.db #0xff	; 255
   1739 FF                 8729 	.db #0xff	; 255
   173A C0                 8730 	.db #0xc0	; 192
   173B C0                 8731 	.db #0xc0	; 192
   173C C0                 8732 	.db #0xc0	; 192
   173D C0                 8733 	.db #0xc0	; 192
   173E 00                 8734 	.db #0x00	; 0
   173F 00                 8735 	.db #0x00	; 0
   1740 00                 8736 	.db #0x00	; 0
   1741 00                 8737 	.db #0x00	; 0
   1742 00                 8738 	.db #0x00	; 0
   1743 00                 8739 	.db #0x00	; 0
   1744 00                 8740 	.db #0x00	; 0
   1745 00                 8741 	.db #0x00	; 0
   1746 C0                 8742 	.db #0xc0	; 192
   1747 C0                 8743 	.db #0xc0	; 192
   1748 C0                 8744 	.db #0xc0	; 192
   1749 C0                 8745 	.db #0xc0	; 192
   174A F8                 8746 	.db #0xf8	; 248
   174B F8                 8747 	.db #0xf8	; 248
   174C F8                 8748 	.db #0xf8	; 248
   174D F8                 8749 	.db #0xf8	; 248
   174E 00                 8750 	.db #0x00	; 0
   174F 00                 8751 	.db #0x00	; 0
   1750 00                 8752 	.db #0x00	; 0
   1751 00                 8753 	.db #0x00	; 0
   1752 FF                 8754 	.db #0xff	; 255
   1753 FF                 8755 	.db #0xff	; 255
   1754 FF                 8756 	.db #0xff	; 255
   1755 FF                 8757 	.db #0xff	; 255
   1756 FF                 8758 	.db #0xff	; 255
   1757 FF                 8759 	.db #0xff	; 255
   1758 00                 8760 	.db #0x00	; 0
   1759 00                 8761 	.db #0x00	; 0
   175A 00                 8762 	.db #0x00	; 0
   175B 00                 8763 	.db #0x00	; 0
   175C 00                 8764 	.db #0x00	; 0
   175D 00                 8765 	.db #0x00	; 0
   175E 00                 8766 	.db #0x00	; 0
   175F 00                 8767 	.db #0x00	; 0
   1760 00                 8768 	.db #0x00	; 0
   1761 00                 8769 	.db #0x00	; 0
   1762 80                 8770 	.db #0x80	; 128
   1763 80                 8771 	.db #0x80	; 128
   1764 80                 8772 	.db #0x80	; 128
   1765 80                 8773 	.db #0x80	; 128
   1766 80                 8774 	.db #0x80	; 128
   1767 80                 8775 	.db #0x80	; 128
   1768 00                 8776 	.db #0x00	; 0
   1769 00                 8777 	.db #0x00	; 0
   176A 00                 8778 	.db #0x00	; 0
   176B 00                 8779 	.db #0x00	; 0
   176C 00                 8780 	.db #0x00	; 0
   176D 00                 8781 	.db #0x00	; 0
   176E 01                 8782 	.db #0x01	; 1
   176F 01                 8783 	.db #0x01	; 1
   1770 01                 8784 	.db #0x01	; 1
   1771 01                 8785 	.db #0x01	; 1
   1772 01                 8786 	.db #0x01	; 1
   1773 01                 8787 	.db #0x01	; 1
   1774 01                 8788 	.db #0x01	; 1
   1775 01                 8789 	.db #0x01	; 1
   1776 01                 8790 	.db #0x01	; 1
   1777 01                 8791 	.db #0x01	; 1
   1778 01                 8792 	.db #0x01	; 1
   1779 01                 8793 	.db #0x01	; 1
   177A 01                 8794 	.db #0x01	; 1
   177B 01                 8795 	.db #0x01	; 1
   177C 01                 8796 	.db #0x01	; 1
   177D 01                 8797 	.db #0x01	; 1
   177E FF                 8798 	.db #0xff	; 255
   177F FF                 8799 	.db #0xff	; 255
   1780 FF                 8800 	.db #0xff	; 255
   1781 FF                 8801 	.db #0xff	; 255
   1782 FF                 8802 	.db #0xff	; 255
   1783 FF                 8803 	.db #0xff	; 255
   1784 FF                 8804 	.db #0xff	; 255
   1785 FF                 8805 	.db #0xff	; 255
   1786 FF                 8806 	.db #0xff	; 255
   1787 FF                 8807 	.db #0xff	; 255
   1788 FF                 8808 	.db #0xff	; 255
   1789 FF                 8809 	.db #0xff	; 255
   178A FF                 8810 	.db #0xff	; 255
   178B FC                 8811 	.db #0xfc	; 252
   178C FF                 8812 	.db #0xff	; 255
   178D FC                 8813 	.db #0xfc	; 252
   178E FF                 8814 	.db #0xff	; 255
   178F FF                 8815 	.db #0xff	; 255
   1790 FF                 8816 	.db #0xff	; 255
   1791 FF                 8817 	.db #0xff	; 255
   1792 FF                 8818 	.db #0xff	; 255
   1793 FF                 8819 	.db #0xff	; 255
   1794 FF                 8820 	.db #0xff	; 255
   1795 FF                 8821 	.db #0xff	; 255
   1796 FF                 8822 	.db #0xff	; 255
   1797 FF                 8823 	.db #0xff	; 255
   1798 FF                 8824 	.db #0xff	; 255
   1799 FF                 8825 	.db #0xff	; 255
   179A FF                 8826 	.db #0xff	; 255
   179B 00                 8827 	.db #0x00	; 0
   179C FF                 8828 	.db #0xff	; 255
   179D 00                 8829 	.db #0x00	; 0
   179E FF                 8830 	.db #0xff	; 255
   179F FF                 8831 	.db #0xff	; 255
   17A0 FF                 8832 	.db #0xff	; 255
   17A1 FF                 8833 	.db #0xff	; 255
   17A2 FF                 8834 	.db #0xff	; 255
   17A3 FF                 8835 	.db #0xff	; 255
   17A4 FF                 8836 	.db #0xff	; 255
   17A5 FF                 8837 	.db #0xff	; 255
   17A6 FF                 8838 	.db #0xff	; 255
   17A7 FF                 8839 	.db #0xff	; 255
   17A8 FF                 8840 	.db #0xff	; 255
   17A9 FF                 8841 	.db #0xff	; 255
   17AA F8                 8842 	.db #0xf8	; 248
   17AB 00                 8843 	.db #0x00	; 0
   17AC F8                 8844 	.db #0xf8	; 248
   17AD 00                 8845 	.db #0x00	; 0
   17AE FF                 8846 	.db #0xff	; 255
   17AF FF                 8847 	.db #0xff	; 255
   17B0 FF                 8848 	.db #0xff	; 255
   17B1 FF                 8849 	.db #0xff	; 255
   17B2 FF                 8850 	.db #0xff	; 255
   17B3 FF                 8851 	.db #0xff	; 255
   17B4 FF                 8852 	.db #0xff	; 255
   17B5 FF                 8853 	.db #0xff	; 255
   17B6 FF                 8854 	.db #0xff	; 255
   17B7 FF                 8855 	.db #0xff	; 255
   17B8 FF                 8856 	.db #0xff	; 255
   17B9 FF                 8857 	.db #0xff	; 255
   17BA 0F                 8858 	.db #0x0f	; 15
   17BB 00                 8859 	.db #0x00	; 0
   17BC 0F                 8860 	.db #0x0f	; 15
   17BD 00                 8861 	.db #0x00	; 0
   17BE FF                 8862 	.db #0xff	; 255
   17BF FF                 8863 	.db #0xff	; 255
   17C0 FF                 8864 	.db #0xff	; 255
   17C1 FF                 8865 	.db #0xff	; 255
   17C2 FF                 8866 	.db #0xff	; 255
   17C3 FF                 8867 	.db #0xff	; 255
   17C4 FF                 8868 	.db #0xff	; 255
   17C5 FF                 8869 	.db #0xff	; 255
   17C6 FF                 8870 	.db #0xff	; 255
   17C7 FF                 8871 	.db #0xff	; 255
   17C8 FF                 8872 	.db #0xff	; 255
   17C9 FF                 8873 	.db #0xff	; 255
   17CA FF                 8874 	.db #0xff	; 255
   17CB 1F                 8875 	.db #0x1f	; 31
   17CC FF                 8876 	.db #0xff	; 255
   17CD 1F                 8877 	.db #0x1f	; 31
   17CE E0                 8878 	.db #0xe0	; 224
   17CF E0                 8879 	.db #0xe0	; 224
   17D0 E0                 8880 	.db #0xe0	; 224
   17D1 E0                 8881 	.db #0xe0	; 224
   17D2 E0                 8882 	.db #0xe0	; 224
   17D3 E0                 8883 	.db #0xe0	; 224
   17D4 E0                 8884 	.db #0xe0	; 224
   17D5 E0                 8885 	.db #0xe0	; 224
   17D6 E0                 8886 	.db #0xe0	; 224
   17D7 E0                 8887 	.db #0xe0	; 224
   17D8 E0                 8888 	.db #0xe0	; 224
   17D9 E0                 8889 	.db #0xe0	; 224
   17DA E0                 8890 	.db #0xe0	; 224
   17DB E0                 8891 	.db #0xe0	; 224
   17DC E0                 8892 	.db #0xe0	; 224
   17DD E0                 8893 	.db #0xe0	; 224
   17DE 80                 8894 	.db #0x80	; 128
   17DF 80                 8895 	.db #0x80	; 128
   17E0 80                 8896 	.db #0x80	; 128
   17E1 80                 8897 	.db #0x80	; 128
   17E2 80                 8898 	.db #0x80	; 128
   17E3 80                 8899 	.db #0x80	; 128
   17E4 80                 8900 	.db #0x80	; 128
   17E5 80                 8901 	.db #0x80	; 128
   17E6 80                 8902 	.db #0x80	; 128
   17E7 80                 8903 	.db #0x80	; 128
   17E8 80                 8904 	.db #0x80	; 128
   17E9 80                 8905 	.db #0x80	; 128
   17EA 80                 8906 	.db #0x80	; 128
   17EB 80                 8907 	.db #0x80	; 128
   17EC 80                 8908 	.db #0x80	; 128
   17ED 80                 8909 	.db #0x80	; 128
   17EE 3F                 8910 	.db #0x3f	; 63
   17EF 3F                 8911 	.db #0x3f	; 63
   17F0 3F                 8912 	.db #0x3f	; 63
   17F1 3F                 8913 	.db #0x3f	; 63
   17F2 3F                 8914 	.db #0x3f	; 63
   17F3 3F                 8915 	.db #0x3f	; 63
   17F4 3F                 8916 	.db #0x3f	; 63
   17F5 3F                 8917 	.db #0x3f	; 63
   17F6 3F                 8918 	.db #0x3f	; 63
   17F7 3F                 8919 	.db #0x3f	; 63
   17F8 3F                 8920 	.db #0x3f	; 63
   17F9 3F                 8921 	.db #0x3f	; 63
   17FA 3F                 8922 	.db #0x3f	; 63
   17FB 3F                 8923 	.db #0x3f	; 63
   17FC 3F                 8924 	.db #0x3f	; 63
   17FD 3F                 8925 	.db #0x3f	; 63
   17FE C7                 8926 	.db #0xc7	; 199
   17FF C7                 8927 	.db #0xc7	; 199
   1800 C7                 8928 	.db #0xc7	; 199
   1801 C7                 8929 	.db #0xc7	; 199
   1802 C7                 8930 	.db #0xc7	; 199
   1803 C7                 8931 	.db #0xc7	; 199
   1804 C7                 8932 	.db #0xc7	; 199
   1805 C7                 8933 	.db #0xc7	; 199
   1806 C7                 8934 	.db #0xc7	; 199
   1807 C7                 8935 	.db #0xc7	; 199
   1808 C7                 8936 	.db #0xc7	; 199
   1809 C7                 8937 	.db #0xc7	; 199
   180A C7                 8938 	.db #0xc7	; 199
   180B C7                 8939 	.db #0xc7	; 199
   180C C7                 8940 	.db #0xc7	; 199
   180D C7                 8941 	.db #0xc7	; 199
   180E C0                 8942 	.db #0xc0	; 192
   180F C0                 8943 	.db #0xc0	; 192
   1810 C0                 8944 	.db #0xc0	; 192
   1811 C0                 8945 	.db #0xc0	; 192
   1812 C0                 8946 	.db #0xc0	; 192
   1813 C0                 8947 	.db #0xc0	; 192
   1814 C0                 8948 	.db #0xc0	; 192
   1815 C0                 8949 	.db #0xc0	; 192
   1816 C0                 8950 	.db #0xc0	; 192
   1817 C0                 8951 	.db #0xc0	; 192
   1818 C0                 8952 	.db #0xc0	; 192
   1819 C0                 8953 	.db #0xc0	; 192
   181A C0                 8954 	.db #0xc0	; 192
   181B C0                 8955 	.db #0xc0	; 192
   181C C0                 8956 	.db #0xc0	; 192
   181D C0                 8957 	.db #0xc0	; 192
   181E F8                 8958 	.db #0xf8	; 248
   181F F8                 8959 	.db #0xf8	; 248
   1820 F8                 8960 	.db #0xf8	; 248
   1821 F8                 8961 	.db #0xf8	; 248
   1822 F8                 8962 	.db #0xf8	; 248
   1823 F8                 8963 	.db #0xf8	; 248
   1824 F8                 8964 	.db #0xf8	; 248
   1825 F8                 8965 	.db #0xf8	; 248
   1826 F8                 8966 	.db #0xf8	; 248
   1827 F8                 8967 	.db #0xf8	; 248
   1828 F8                 8968 	.db #0xf8	; 248
   1829 F8                 8969 	.db #0xf8	; 248
   182A F8                 8970 	.db #0xf8	; 248
   182B F8                 8971 	.db #0xf8	; 248
   182C F8                 8972 	.db #0xf8	; 248
   182D F8                 8973 	.db #0xf8	; 248
   182E FF                 8974 	.db #0xff	; 255
   182F FF                 8975 	.db #0xff	; 255
   1830 FF                 8976 	.db #0xff	; 255
   1831 FF                 8977 	.db #0xff	; 255
   1832 FF                 8978 	.db #0xff	; 255
   1833 FF                 8979 	.db #0xff	; 255
   1834 FF                 8980 	.db #0xff	; 255
   1835 FF                 8981 	.db #0xff	; 255
   1836 FF                 8982 	.db #0xff	; 255
   1837 FF                 8983 	.db #0xff	; 255
   1838 FF                 8984 	.db #0xff	; 255
   1839 FF                 8985 	.db #0xff	; 255
   183A FF                 8986 	.db #0xff	; 255
   183B FF                 8987 	.db #0xff	; 255
   183C FF                 8988 	.db #0xff	; 255
   183D FF                 8989 	.db #0xff	; 255
   183E FF                 8990 	.db #0xff	; 255
   183F FC                 8991 	.db #0xfc	; 252
   1840 FF                 8992 	.db #0xff	; 255
   1841 FC                 8993 	.db #0xfc	; 252
   1842 FF                 8994 	.db #0xff	; 255
   1843 FC                 8995 	.db #0xfc	; 252
   1844 FF                 8996 	.db #0xff	; 255
   1845 FC                 8997 	.db #0xfc	; 252
   1846 FF                 8998 	.db #0xff	; 255
   1847 FC                 8999 	.db #0xfc	; 252
   1848 FF                 9000 	.db #0xff	; 255
   1849 FC                 9001 	.db #0xfc	; 252
   184A FF                 9002 	.db #0xff	; 255
   184B FC                 9003 	.db #0xfc	; 252
   184C FF                 9004 	.db #0xff	; 255
   184D FC                 9005 	.db #0xfc	; 252
   184E FF                 9006 	.db #0xff	; 255
   184F 00                 9007 	.db #0x00	; 0
   1850 FF                 9008 	.db #0xff	; 255
   1851 00                 9009 	.db #0x00	; 0
   1852 FF                 9010 	.db #0xff	; 255
   1853 00                 9011 	.db #0x00	; 0
   1854 FF                 9012 	.db #0xff	; 255
   1855 00                 9013 	.db #0x00	; 0
   1856 FF                 9014 	.db #0xff	; 255
   1857 00                 9015 	.db #0x00	; 0
   1858 FF                 9016 	.db #0xff	; 255
   1859 00                 9017 	.db #0x00	; 0
   185A FF                 9018 	.db #0xff	; 255
   185B 00                 9019 	.db #0x00	; 0
   185C FF                 9020 	.db #0xff	; 255
   185D 00                 9021 	.db #0x00	; 0
   185E F8                 9022 	.db #0xf8	; 248
   185F 00                 9023 	.db #0x00	; 0
   1860 F8                 9024 	.db #0xf8	; 248
   1861 00                 9025 	.db #0x00	; 0
   1862 F8                 9026 	.db #0xf8	; 248
   1863 00                 9027 	.db #0x00	; 0
   1864 F8                 9028 	.db #0xf8	; 248
   1865 00                 9029 	.db #0x00	; 0
   1866 F8                 9030 	.db #0xf8	; 248
   1867 00                 9031 	.db #0x00	; 0
   1868 F8                 9032 	.db #0xf8	; 248
   1869 00                 9033 	.db #0x00	; 0
   186A F8                 9034 	.db #0xf8	; 248
   186B 00                 9035 	.db #0x00	; 0
   186C F8                 9036 	.db #0xf8	; 248
   186D 00                 9037 	.db #0x00	; 0
   186E 0F                 9038 	.db #0x0f	; 15
   186F 00                 9039 	.db #0x00	; 0
   1870 0F                 9040 	.db #0x0f	; 15
   1871 00                 9041 	.db #0x00	; 0
   1872 0F                 9042 	.db #0x0f	; 15
   1873 00                 9043 	.db #0x00	; 0
   1874 0F                 9044 	.db #0x0f	; 15
   1875 00                 9045 	.db #0x00	; 0
   1876 0F                 9046 	.db #0x0f	; 15
   1877 00                 9047 	.db #0x00	; 0
   1878 0F                 9048 	.db #0x0f	; 15
   1879 00                 9049 	.db #0x00	; 0
   187A 0F                 9050 	.db #0x0f	; 15
   187B 00                 9051 	.db #0x00	; 0
   187C 0F                 9052 	.db #0x0f	; 15
   187D 00                 9053 	.db #0x00	; 0
   187E FF                 9054 	.db #0xff	; 255
   187F 1F                 9055 	.db #0x1f	; 31
   1880 FF                 9056 	.db #0xff	; 255
   1881 1F                 9057 	.db #0x1f	; 31
   1882 FF                 9058 	.db #0xff	; 255
   1883 1F                 9059 	.db #0x1f	; 31
   1884 FF                 9060 	.db #0xff	; 255
   1885 1F                 9061 	.db #0x1f	; 31
   1886 FF                 9062 	.db #0xff	; 255
   1887 1F                 9063 	.db #0x1f	; 31
   1888 FF                 9064 	.db #0xff	; 255
   1889 1F                 9065 	.db #0x1f	; 31
   188A FF                 9066 	.db #0xff	; 255
   188B 1F                 9067 	.db #0x1f	; 31
   188C FF                 9068 	.db #0xff	; 255
   188D 1F                 9069 	.db #0x1f	; 31
   188E 7F                 9070 	.db #0x7f	; 127
   188F 7F                 9071 	.db #0x7f	; 127
   1890 7F                 9072 	.db #0x7f	; 127
   1891 7F                 9073 	.db #0x7f	; 127
   1892 7F                 9074 	.db #0x7f	; 127
   1893 7F                 9075 	.db #0x7f	; 127
   1894 7F                 9076 	.db #0x7f	; 127
   1895 7F                 9077 	.db #0x7f	; 127
   1896 00                 9078 	.db #0x00	; 0
   1897 00                 9079 	.db #0x00	; 0
   1898 00                 9080 	.db #0x00	; 0
   1899 00                 9081 	.db #0x00	; 0
   189A 00                 9082 	.db #0x00	; 0
   189B 00                 9083 	.db #0x00	; 0
   189C 00                 9084 	.db #0x00	; 0
   189D 00                 9085 	.db #0x00	; 0
   189E 80                 9086 	.db #0x80	; 128
   189F C0                 9087 	.db #0xc0	; 192
   18A0 FF                 9088 	.db #0xff	; 255
   18A1 FF                 9089 	.db #0xff	; 255
   18A2 FF                 9090 	.db #0xff	; 255
   18A3 FF                 9091 	.db #0xff	; 255
   18A4 FF                 9092 	.db #0xff	; 255
   18A5 FF                 9093 	.db #0xff	; 255
   18A6 00                 9094 	.db #0x00	; 0
   18A7 00                 9095 	.db #0x00	; 0
   18A8 00                 9096 	.db #0x00	; 0
   18A9 00                 9097 	.db #0x00	; 0
   18AA 00                 9098 	.db #0x00	; 0
   18AB 00                 9099 	.db #0x00	; 0
   18AC 00                 9100 	.db #0x00	; 0
   18AD 00                 9101 	.db #0x00	; 0
   18AE 3C                 9102 	.db #0x3c	; 60
   18AF 3C                 9103 	.db #0x3c	; 60
   18B0 FC                 9104 	.db #0xfc	; 252
   18B1 FC                 9105 	.db #0xfc	; 252
   18B2 FC                 9106 	.db #0xfc	; 252
   18B3 FC                 9107 	.db #0xfc	; 252
   18B4 FC                 9108 	.db #0xfc	; 252
   18B5 FC                 9109 	.db #0xfc	; 252
   18B6 00                 9110 	.db #0x00	; 0
   18B7 00                 9111 	.db #0x00	; 0
   18B8 00                 9112 	.db #0x00	; 0
   18B9 00                 9113 	.db #0x00	; 0
   18BA 00                 9114 	.db #0x00	; 0
   18BB 00                 9115 	.db #0x00	; 0
   18BC 00                 9116 	.db #0x00	; 0
   18BD 00                 9117 	.db #0x00	; 0
   18BE 07                 9118 	.db #0x07	; 7
   18BF 07                 9119 	.db #0x07	; 7
   18C0 01                 9120 	.db #0x01	; 1
   18C1 01                 9121 	.db #0x01	; 1
   18C2 01                 9122 	.db #0x01	; 1
   18C3 01                 9123 	.db #0x01	; 1
   18C4 01                 9124 	.db #0x01	; 1
   18C5 01                 9125 	.db #0x01	; 1
   18C6 00                 9126 	.db #0x00	; 0
   18C7 00                 9127 	.db #0x00	; 0
   18C8 00                 9128 	.db #0x00	; 0
   18C9 00                 9129 	.db #0x00	; 0
   18CA 00                 9130 	.db #0x00	; 0
   18CB 00                 9131 	.db #0x00	; 0
   18CC 00                 9132 	.db #0x00	; 0
   18CD 00                 9133 	.db #0x00	; 0
   18CE C0                 9134 	.db #0xc0	; 192
   18CF C0                 9135 	.db #0xc0	; 192
   18D0 FF                 9136 	.db #0xff	; 255
   18D1 FF                 9137 	.db #0xff	; 255
   18D2 FF                 9138 	.db #0xff	; 255
   18D3 FF                 9139 	.db #0xff	; 255
   18D4 FF                 9140 	.db #0xff	; 255
   18D5 FF                 9141 	.db #0xff	; 255
   18D6 00                 9142 	.db #0x00	; 0
   18D7 00                 9143 	.db #0x00	; 0
   18D8 00                 9144 	.db #0x00	; 0
   18D9 00                 9145 	.db #0x00	; 0
   18DA 00                 9146 	.db #0x00	; 0
   18DB 00                 9147 	.db #0x00	; 0
   18DC 00                 9148 	.db #0x00	; 0
   18DD 00                 9149 	.db #0x00	; 0
   18DE F8                 9150 	.db #0xf8	; 248
   18DF F8                 9151 	.db #0xf8	; 248
   18E0 C0                 9152 	.db #0xc0	; 192
   18E1 C0                 9153 	.db #0xc0	; 192
   18E2 C0                 9154 	.db #0xc0	; 192
   18E3 C0                 9155 	.db #0xc0	; 192
   18E4 C0                 9156 	.db #0xc0	; 192
   18E5 C0                 9157 	.db #0xc0	; 192
   18E6 00                 9158 	.db #0x00	; 0
   18E7 00                 9159 	.db #0x00	; 0
   18E8 00                 9160 	.db #0x00	; 0
   18E9 00                 9161 	.db #0x00	; 0
   18EA 00                 9162 	.db #0x00	; 0
   18EB 00                 9163 	.db #0x00	; 0
   18EC 00                 9164 	.db #0x00	; 0
   18ED 00                 9165 	.db #0x00	; 0
   18EE FF                 9166 	.db #0xff	; 255
   18EF FF                 9167 	.db #0xff	; 255
   18F0 FF                 9168 	.db #0xff	; 255
   18F1 FF                 9169 	.db #0xff	; 255
   18F2 FF                 9170 	.db #0xff	; 255
   18F3 FF                 9171 	.db #0xff	; 255
   18F4 FF                 9172 	.db #0xff	; 255
   18F5 FF                 9173 	.db #0xff	; 255
   18F6 00                 9174 	.db #0x00	; 0
   18F7 00                 9175 	.db #0x00	; 0
   18F8 00                 9176 	.db #0x00	; 0
   18F9 00                 9177 	.db #0x00	; 0
   18FA 00                 9178 	.db #0x00	; 0
   18FB 00                 9179 	.db #0x00	; 0
   18FC 00                 9180 	.db #0x00	; 0
   18FD 00                 9181 	.db #0x00	; 0
   18FE 80                 9182 	.db #0x80	; 128
   18FF 80                 9183 	.db #0x80	; 128
   1900 80                 9184 	.db #0x80	; 128
   1901 80                 9185 	.db #0x80	; 128
   1902 80                 9186 	.db #0x80	; 128
   1903 80                 9187 	.db #0x80	; 128
   1904 80                 9188 	.db #0x80	; 128
   1905 80                 9189 	.db #0x80	; 128
   1906 00                 9190 	.db #0x00	; 0
   1907 00                 9191 	.db #0x00	; 0
   1908 00                 9192 	.db #0x00	; 0
   1909 00                 9193 	.db #0x00	; 0
   190A 00                 9194 	.db #0x00	; 0
   190B 00                 9195 	.db #0x00	; 0
   190C 00                 9196 	.db #0x00	; 0
   190D 00                 9197 	.db #0x00	; 0
   190E FF                 9198 	.db #0xff	; 255
   190F FC                 9199 	.db #0xfc	; 252
   1910 FF                 9200 	.db #0xff	; 255
   1911 FC                 9201 	.db #0xfc	; 252
   1912 FF                 9202 	.db #0xff	; 255
   1913 FC                 9203 	.db #0xfc	; 252
   1914 FF                 9204 	.db #0xff	; 255
   1915 FC                 9205 	.db #0xfc	; 252
   1916 FC                 9206 	.db #0xfc	; 252
   1917 FC                 9207 	.db #0xfc	; 252
   1918 FC                 9208 	.db #0xfc	; 252
   1919 FC                 9209 	.db #0xfc	; 252
   191A FC                 9210 	.db #0xfc	; 252
   191B FC                 9211 	.db #0xfc	; 252
   191C FC                 9212 	.db #0xfc	; 252
   191D FC                 9213 	.db #0xfc	; 252
   191E FF                 9214 	.db #0xff	; 255
   191F 00                 9215 	.db #0x00	; 0
   1920 FF                 9216 	.db #0xff	; 255
   1921 00                 9217 	.db #0x00	; 0
   1922 FF                 9218 	.db #0xff	; 255
   1923 00                 9219 	.db #0x00	; 0
   1924 FF                 9220 	.db #0xff	; 255
   1925 00                 9221 	.db #0x00	; 0
   1926 00                 9222 	.db #0x00	; 0
   1927 00                 9223 	.db #0x00	; 0
   1928 00                 9224 	.db #0x00	; 0
   1929 00                 9225 	.db #0x00	; 0
   192A 00                 9226 	.db #0x00	; 0
   192B 00                 9227 	.db #0x00	; 0
   192C 00                 9228 	.db #0x00	; 0
   192D 00                 9229 	.db #0x00	; 0
   192E F8                 9230 	.db #0xf8	; 248
   192F 00                 9231 	.db #0x00	; 0
   1930 F8                 9232 	.db #0xf8	; 248
   1931 00                 9233 	.db #0x00	; 0
   1932 F8                 9234 	.db #0xf8	; 248
   1933 00                 9235 	.db #0x00	; 0
   1934 F8                 9236 	.db #0xf8	; 248
   1935 00                 9237 	.db #0x00	; 0
   1936 07                 9238 	.db #0x07	; 7
   1937 07                 9239 	.db #0x07	; 7
   1938 07                 9240 	.db #0x07	; 7
   1939 07                 9241 	.db #0x07	; 7
   193A 07                 9242 	.db #0x07	; 7
   193B 07                 9243 	.db #0x07	; 7
   193C 07                 9244 	.db #0x07	; 7
   193D 07                 9245 	.db #0x07	; 7
   193E 0F                 9246 	.db #0x0f	; 15
   193F 00                 9247 	.db #0x00	; 0
   1940 0F                 9248 	.db #0x0f	; 15
   1941 00                 9249 	.db #0x00	; 0
   1942 0F                 9250 	.db #0x0f	; 15
   1943 00                 9251 	.db #0x00	; 0
   1944 0F                 9252 	.db #0x0f	; 15
   1945 00                 9253 	.db #0x00	; 0
   1946 F0                 9254 	.db #0xf0	; 240
   1947 F0                 9255 	.db #0xf0	; 240
   1948 F0                 9256 	.db #0xf0	; 240
   1949 F0                 9257 	.db #0xf0	; 240
   194A F0                 9258 	.db #0xf0	; 240
   194B F0                 9259 	.db #0xf0	; 240
   194C F0                 9260 	.db #0xf0	; 240
   194D F0                 9261 	.db #0xf0	; 240
   194E FF                 9262 	.db #0xff	; 255
   194F 1F                 9263 	.db #0x1f	; 31
   1950 FF                 9264 	.db #0xff	; 255
   1951 1F                 9265 	.db #0x1f	; 31
   1952 FF                 9266 	.db #0xff	; 255
   1953 1F                 9267 	.db #0x1f	; 31
   1954 FF                 9268 	.db #0xff	; 255
   1955 1F                 9269 	.db #0x1f	; 31
   1956 1F                 9270 	.db #0x1f	; 31
   1957 1F                 9271 	.db #0x1f	; 31
   1958 1F                 9272 	.db #0x1f	; 31
   1959 1F                 9273 	.db #0x1f	; 31
   195A 1F                 9274 	.db #0x1f	; 31
   195B 1F                 9275 	.db #0x1f	; 31
   195C 1F                 9276 	.db #0x1f	; 31
   195D 1F                 9277 	.db #0x1f	; 31
   195E FC                 9278 	.db #0xfc	; 252
   195F FC                 9279 	.db #0xfc	; 252
   1960 FC                 9280 	.db #0xfc	; 252
   1961 FC                 9281 	.db #0xfc	; 252
   1962 FC                 9282 	.db #0xfc	; 252
   1963 FC                 9283 	.db #0xfc	; 252
   1964 FF                 9284 	.db #0xff	; 255
   1965 FF                 9285 	.db #0xff	; 255
   1966 FF                 9286 	.db #0xff	; 255
   1967 FF                 9287 	.db #0xff	; 255
   1968 FF                 9288 	.db #0xff	; 255
   1969 FF                 9289 	.db #0xff	; 255
   196A FF                 9290 	.db #0xff	; 255
   196B FF                 9291 	.db #0xff	; 255
   196C FF                 9292 	.db #0xff	; 255
   196D FF                 9293 	.db #0xff	; 255
   196E 00                 9294 	.db #0x00	; 0
   196F 00                 9295 	.db #0x00	; 0
   1970 00                 9296 	.db #0x00	; 0
   1971 00                 9297 	.db #0x00	; 0
   1972 00                 9298 	.db #0x00	; 0
   1973 00                 9299 	.db #0x00	; 0
   1974 FF                 9300 	.db #0xff	; 255
   1975 FF                 9301 	.db #0xff	; 255
   1976 FF                 9302 	.db #0xff	; 255
   1977 FF                 9303 	.db #0xff	; 255
   1978 FF                 9304 	.db #0xff	; 255
   1979 FF                 9305 	.db #0xff	; 255
   197A FF                 9306 	.db #0xff	; 255
   197B FF                 9307 	.db #0xff	; 255
   197C FF                 9308 	.db #0xff	; 255
   197D FF                 9309 	.db #0xff	; 255
   197E 07                 9310 	.db #0x07	; 7
   197F 07                 9311 	.db #0x07	; 7
   1980 07                 9312 	.db #0x07	; 7
   1981 07                 9313 	.db #0x07	; 7
   1982 07                 9314 	.db #0x07	; 7
   1983 07                 9315 	.db #0x07	; 7
   1984 FF                 9316 	.db #0xff	; 255
   1985 FF                 9317 	.db #0xff	; 255
   1986 FF                 9318 	.db #0xff	; 255
   1987 FF                 9319 	.db #0xff	; 255
   1988 FF                 9320 	.db #0xff	; 255
   1989 FF                 9321 	.db #0xff	; 255
   198A FF                 9322 	.db #0xff	; 255
   198B FF                 9323 	.db #0xff	; 255
   198C FF                 9324 	.db #0xff	; 255
   198D FF                 9325 	.db #0xff	; 255
   198E F0                 9326 	.db #0xf0	; 240
   198F F0                 9327 	.db #0xf0	; 240
   1990 F0                 9328 	.db #0xf0	; 240
   1991 F0                 9329 	.db #0xf0	; 240
   1992 F0                 9330 	.db #0xf0	; 240
   1993 F0                 9331 	.db #0xf0	; 240
   1994 FF                 9332 	.db #0xff	; 255
   1995 FF                 9333 	.db #0xff	; 255
   1996 FF                 9334 	.db #0xff	; 255
   1997 FF                 9335 	.db #0xff	; 255
   1998 FF                 9336 	.db #0xff	; 255
   1999 FF                 9337 	.db #0xff	; 255
   199A FF                 9338 	.db #0xff	; 255
   199B FF                 9339 	.db #0xff	; 255
   199C FF                 9340 	.db #0xff	; 255
   199D FF                 9341 	.db #0xff	; 255
   199E 1F                 9342 	.db #0x1f	; 31
   199F 1F                 9343 	.db #0x1f	; 31
   19A0 1F                 9344 	.db #0x1f	; 31
   19A1 1F                 9345 	.db #0x1f	; 31
   19A2 1F                 9346 	.db #0x1f	; 31
   19A3 1F                 9347 	.db #0x1f	; 31
   19A4 FF                 9348 	.db #0xff	; 255
   19A5 FF                 9349 	.db #0xff	; 255
   19A6 FF                 9350 	.db #0xff	; 255
   19A7 FF                 9351 	.db #0xff	; 255
   19A8 FF                 9352 	.db #0xff	; 255
   19A9 FF                 9353 	.db #0xff	; 255
   19AA FF                 9354 	.db #0xff	; 255
   19AB FF                 9355 	.db #0xff	; 255
   19AC FF                 9356 	.db #0xff	; 255
   19AD FF                 9357 	.db #0xff	; 255
   19AE 01                 9358 	.db #0x01	; 1
   19AF 01                 9359 	.db #0x01	; 1
   19B0 01                 9360 	.db #0x01	; 1
   19B1 01                 9361 	.db #0x01	; 1
   19B2 01                 9362 	.db #0x01	; 1
   19B3 01                 9363 	.db #0x01	; 1
   19B4 00                 9364 	.db #0x00	; 0
   19B5 00                 9365 	.db #0x00	; 0
   19B6 00                 9366 	.db #0x00	; 0
   19B7 00                 9367 	.db #0x00	; 0
   19B8 00                 9368 	.db #0x00	; 0
   19B9 00                 9369 	.db #0x00	; 0
   19BA 00                 9370 	.db #0x00	; 0
   19BB 00                 9371 	.db #0x00	; 0
   19BC 00                 9372 	.db #0x00	; 0
   19BD 00                 9373 	.db #0x00	; 0
   19BE FF                 9374 	.db #0xff	; 255
   19BF FF                 9375 	.db #0xff	; 255
   19C0 FF                 9376 	.db #0xff	; 255
   19C1 FF                 9377 	.db #0xff	; 255
   19C2 FF                 9378 	.db #0xff	; 255
   19C3 FF                 9379 	.db #0xff	; 255
   19C4 03                 9380 	.db #0x03	; 3
   19C5 03                 9381 	.db #0x03	; 3
   19C6 03                 9382 	.db #0x03	; 3
   19C7 03                 9383 	.db #0x03	; 3
   19C8 03                 9384 	.db #0x03	; 3
   19C9 03                 9385 	.db #0x03	; 3
   19CA 03                 9386 	.db #0x03	; 3
   19CB 03                 9387 	.db #0x03	; 3
   19CC 03                 9388 	.db #0x03	; 3
   19CD 03                 9389 	.db #0x03	; 3
   19CE FF                 9390 	.db #0xff	; 255
   19CF FF                 9391 	.db #0xff	; 255
   19D0 FF                 9392 	.db #0xff	; 255
   19D1 FF                 9393 	.db #0xff	; 255
   19D2 FF                 9394 	.db #0xff	; 255
   19D3 FF                 9395 	.db #0xff	; 255
   19D4 F8                 9396 	.db #0xf8	; 248
   19D5 F8                 9397 	.db #0xf8	; 248
   19D6 F8                 9398 	.db #0xf8	; 248
   19D7 F8                 9399 	.db #0xf8	; 248
   19D8 F8                 9400 	.db #0xf8	; 248
   19D9 F8                 9401 	.db #0xf8	; 248
   19DA F8                 9402 	.db #0xf8	; 248
   19DB F8                 9403 	.db #0xf8	; 248
   19DC F8                 9404 	.db #0xf8	; 248
   19DD F8                 9405 	.db #0xf8	; 248
   19DE FF                 9406 	.db #0xff	; 255
   19DF FF                 9407 	.db #0xff	; 255
   19E0 FF                 9408 	.db #0xff	; 255
   19E1 FF                 9409 	.db #0xff	; 255
   19E2 FF                 9410 	.db #0xff	; 255
   19E3 FF                 9411 	.db #0xff	; 255
   19E4 0F                 9412 	.db #0x0f	; 15
   19E5 0F                 9413 	.db #0x0f	; 15
   19E6 0F                 9414 	.db #0x0f	; 15
   19E7 0F                 9415 	.db #0x0f	; 15
   19E8 0F                 9416 	.db #0x0f	; 15
   19E9 0F                 9417 	.db #0x0f	; 15
   19EA 0F                 9418 	.db #0x0f	; 15
   19EB 0F                 9419 	.db #0x0f	; 15
   19EC 0F                 9420 	.db #0x0f	; 15
   19ED 0F                 9421 	.db #0x0f	; 15
   19EE 03                 9422 	.db #0x03	; 3
   19EF 03                 9423 	.db #0x03	; 3
   19F0 03                 9424 	.db #0x03	; 3
   19F1 03                 9425 	.db #0x03	; 3
   19F2 03                 9426 	.db #0x03	; 3
   19F3 03                 9427 	.db #0x03	; 3
   19F4 03                 9428 	.db #0x03	; 3
   19F5 03                 9429 	.db #0x03	; 3
   19F6 03                 9430 	.db #0x03	; 3
   19F7 03                 9431 	.db #0x03	; 3
   19F8 03                 9432 	.db #0x03	; 3
   19F9 03                 9433 	.db #0x03	; 3
   19FA 03                 9434 	.db #0x03	; 3
   19FB 03                 9435 	.db #0x03	; 3
   19FC 03                 9436 	.db #0x03	; 3
   19FD 03                 9437 	.db #0x03	; 3
   19FE 0F                 9438 	.db #0x0f	; 15
   19FF 0F                 9439 	.db #0x0f	; 15
   1A00 0F                 9440 	.db #0x0f	; 15
   1A01 0F                 9441 	.db #0x0f	; 15
   1A02 0F                 9442 	.db #0x0f	; 15
   1A03 0F                 9443 	.db #0x0f	; 15
   1A04 0F                 9444 	.db #0x0f	; 15
   1A05 0F                 9445 	.db #0x0f	; 15
   1A06 0F                 9446 	.db #0x0f	; 15
   1A07 0F                 9447 	.db #0x0f	; 15
   1A08 0F                 9448 	.db #0x0f	; 15
   1A09 0F                 9449 	.db #0x0f	; 15
   1A0A 0F                 9450 	.db #0x0f	; 15
   1A0B 0F                 9451 	.db #0x0f	; 15
   1A0C 0F                 9452 	.db #0x0f	; 15
   1A0D 0F                 9453 	.db #0x0f	; 15
   1A0E 03                 9454 	.db #0x03	; 3
   1A0F 03                 9455 	.db #0x03	; 3
   1A10 00                 9456 	.db #0x00	; 0
   1A11 00                 9457 	.db #0x00	; 0
   1A12 00                 9458 	.db #0x00	; 0
   1A13 00                 9459 	.db #0x00	; 0
   1A14 00                 9460 	.db #0x00	; 0
   1A15 00                 9461 	.db #0x00	; 0
   1A16 00                 9462 	.db #0x00	; 0
   1A17 00                 9463 	.db #0x00	; 0
   1A18 00                 9464 	.db #0x00	; 0
   1A19 00                 9465 	.db #0x00	; 0
   1A1A 00                 9466 	.db #0x00	; 0
   1A1B 00                 9467 	.db #0x00	; 0
   1A1C 00                 9468 	.db #0x00	; 0
   1A1D 00                 9469 	.db #0x00	; 0
   1A1E FF                 9470 	.db #0xff	; 255
   1A1F FF                 9471 	.db #0xff	; 255
   1A20 00                 9472 	.db #0x00	; 0
   1A21 00                 9473 	.db #0x00	; 0
   1A22 00                 9474 	.db #0x00	; 0
   1A23 00                 9475 	.db #0x00	; 0
   1A24 00                 9476 	.db #0x00	; 0
   1A25 00                 9477 	.db #0x00	; 0
   1A26 00                 9478 	.db #0x00	; 0
   1A27 00                 9479 	.db #0x00	; 0
   1A28 00                 9480 	.db #0x00	; 0
   1A29 00                 9481 	.db #0x00	; 0
   1A2A 00                 9482 	.db #0x00	; 0
   1A2B 00                 9483 	.db #0x00	; 0
   1A2C 00                 9484 	.db #0x00	; 0
   1A2D 00                 9485 	.db #0x00	; 0
   1A2E F8                 9486 	.db #0xf8	; 248
   1A2F F8                 9487 	.db #0xf8	; 248
   1A30 00                 9488 	.db #0x00	; 0
   1A31 00                 9489 	.db #0x00	; 0
   1A32 00                 9490 	.db #0x00	; 0
   1A33 00                 9491 	.db #0x00	; 0
   1A34 00                 9492 	.db #0x00	; 0
   1A35 00                 9493 	.db #0x00	; 0
   1A36 00                 9494 	.db #0x00	; 0
   1A37 00                 9495 	.db #0x00	; 0
   1A38 00                 9496 	.db #0x00	; 0
   1A39 00                 9497 	.db #0x00	; 0
   1A3A 00                 9498 	.db #0x00	; 0
   1A3B 00                 9499 	.db #0x00	; 0
   1A3C 00                 9500 	.db #0x00	; 0
   1A3D 00                 9501 	.db #0x00	; 0
   1A3E 0F                 9502 	.db #0x0f	; 15
   1A3F 0F                 9503 	.db #0x0f	; 15
   1A40 00                 9504 	.db #0x00	; 0
   1A41 00                 9505 	.db #0x00	; 0
   1A42 00                 9506 	.db #0x00	; 0
   1A43 00                 9507 	.db #0x00	; 0
   1A44 00                 9508 	.db #0x00	; 0
   1A45 00                 9509 	.db #0x00	; 0
   1A46 00                 9510 	.db #0x00	; 0
   1A47 00                 9511 	.db #0x00	; 0
   1A48 00                 9512 	.db #0x00	; 0
   1A49 00                 9513 	.db #0x00	; 0
   1A4A 00                 9514 	.db #0x00	; 0
   1A4B 00                 9515 	.db #0x00	; 0
   1A4C 00                 9516 	.db #0x00	; 0
   1A4D 00                 9517 	.db #0x00	; 0
   1A4E E0                 9518 	.db #0xe0	; 224
   1A4F E0                 9519 	.db #0xe0	; 224
   1A50 00                 9520 	.db #0x00	; 0
   1A51 00                 9521 	.db #0x00	; 0
   1A52 00                 9522 	.db #0x00	; 0
   1A53 00                 9523 	.db #0x00	; 0
   1A54 00                 9524 	.db #0x00	; 0
   1A55 00                 9525 	.db #0x00	; 0
   1A56 00                 9526 	.db #0x00	; 0
   1A57 00                 9527 	.db #0x00	; 0
   1A58 00                 9528 	.db #0x00	; 0
   1A59 00                 9529 	.db #0x00	; 0
   1A5A 00                 9530 	.db #0x00	; 0
   1A5B 00                 9531 	.db #0x00	; 0
   1A5C 00                 9532 	.db #0x00	; 0
   1A5D 00                 9533 	.db #0x00	; 0
   1A5E 00                 9534 	.db #0x00	; 0
   1A5F 00                 9535 	.db #0x00	; 0
   1A60 00                 9536 	.db #0x00	; 0
   1A61 00                 9537 	.db #0x00	; 0
   1A62 01                 9538 	.db #0x01	; 1
   1A63 01                 9539 	.db #0x01	; 1
   1A64 01                 9540 	.db #0x01	; 1
   1A65 01                 9541 	.db #0x01	; 1
   1A66 00                 9542 	.db #0x00	; 0
   1A67 00                 9543 	.db #0x00	; 0
   1A68 00                 9544 	.db #0x00	; 0
   1A69 00                 9545 	.db #0x00	; 0
   1A6A 00                 9546 	.db #0x00	; 0
   1A6B 00                 9547 	.db #0x00	; 0
   1A6C 00                 9548 	.db #0x00	; 0
   1A6D 00                 9549 	.db #0x00	; 0
   1A6E 7F                 9550 	.db #0x7f	; 127
   1A6F 7F                 9551 	.db #0x7f	; 127
   1A70 7F                 9552 	.db #0x7f	; 127
   1A71 7F                 9553 	.db #0x7f	; 127
   1A72 E0                 9554 	.db #0xe0	; 224
   1A73 E0                 9555 	.db #0xe0	; 224
   1A74 E0                 9556 	.db #0xe0	; 224
   1A75 E0                 9557 	.db #0xe0	; 224
   1A76 7F                 9558 	.db #0x7f	; 127
   1A77 7F                 9559 	.db #0x7f	; 127
   1A78 7F                 9560 	.db #0x7f	; 127
   1A79 7F                 9561 	.db #0x7f	; 127
   1A7A 07                 9562 	.db #0x07	; 7
   1A7B 07                 9563 	.db #0x07	; 7
   1A7C 07                 9564 	.db #0x07	; 7
   1A7D 07                 9565 	.db #0x07	; 7
   1A7E 87                 9566 	.db #0x87	; 135
   1A7F 87                 9567 	.db #0x87	; 135
   1A80 87                 9568 	.db #0x87	; 135
   1A81 87                 9569 	.db #0x87	; 135
   1A82 00                 9570 	.db #0x00	; 0
   1A83 00                 9571 	.db #0x00	; 0
   1A84 00                 9572 	.db #0x00	; 0
   1A85 00                 9573 	.db #0x00	; 0
   1A86 80                 9574 	.db #0x80	; 128
   1A87 80                 9575 	.db #0x80	; 128
   1A88 80                 9576 	.db #0x80	; 128
   1A89 80                 9577 	.db #0x80	; 128
   1A8A E0                 9578 	.db #0xe0	; 224
   1A8B E0                 9579 	.db #0xe0	; 224
   1A8C E0                 9580 	.db #0xe0	; 224
   1A8D E0                 9581 	.db #0xe0	; 224
   1A8E FF                 9582 	.db #0xff	; 255
   1A8F FF                 9583 	.db #0xff	; 255
   1A90 FF                 9584 	.db #0xff	; 255
   1A91 FF                 9585 	.db #0xff	; 255
   1A92 78                 9586 	.db #0x78	; 120	'x'
   1A93 78                 9587 	.db #0x78	; 120	'x'
   1A94 78                 9588 	.db #0x78	; 120	'x'
   1A95 78                 9589 	.db #0x78	; 120	'x'
   1A96 78                 9590 	.db #0x78	; 120	'x'
   1A97 78                 9591 	.db #0x78	; 120	'x'
   1A98 78                 9592 	.db #0x78	; 120	'x'
   1A99 78                 9593 	.db #0x78	; 120	'x'
   1A9A 78                 9594 	.db #0x78	; 120	'x'
   1A9B 78                 9595 	.db #0x78	; 120	'x'
   1A9C 78                 9596 	.db #0x78	; 120	'x'
   1A9D 78                 9597 	.db #0x78	; 120	'x'
   1A9E 87                 9598 	.db #0x87	; 135
   1A9F 87                 9599 	.db #0x87	; 135
   1AA0 87                 9600 	.db #0x87	; 135
   1AA1 87                 9601 	.db #0x87	; 135
   1AA2 18                 9602 	.db #0x18	; 24
   1AA3 18                 9603 	.db #0x18	; 24
   1AA4 18                 9604 	.db #0x18	; 24
   1AA5 18                 9605 	.db #0x18	; 24
   1AA6 18                 9606 	.db #0x18	; 24
   1AA7 18                 9607 	.db #0x18	; 24
   1AA8 18                 9608 	.db #0x18	; 24
   1AA9 18                 9609 	.db #0x18	; 24
   1AAA 1F                 9610 	.db #0x1f	; 31
   1AAB 1F                 9611 	.db #0x1f	; 31
   1AAC 1F                 9612 	.db #0x1f	; 31
   1AAD 1F                 9613 	.db #0x1f	; 31
   1AAE F0                 9614 	.db #0xf0	; 240
   1AAF F0                 9615 	.db #0xf0	; 240
   1AB0 F0                 9616 	.db #0xf0	; 240
   1AB1 F0                 9617 	.db #0xf0	; 240
   1AB2 FC                 9618 	.db #0xfc	; 252
   1AB3 FC                 9619 	.db #0xfc	; 252
   1AB4 FC                 9620 	.db #0xfc	; 252
   1AB5 FC                 9621 	.db #0xfc	; 252
   1AB6 FC                 9622 	.db #0xfc	; 252
   1AB7 FC                 9623 	.db #0xfc	; 252
   1AB8 FC                 9624 	.db #0xfc	; 252
   1AB9 FC                 9625 	.db #0xfc	; 252
   1ABA FC                 9626 	.db #0xfc	; 252
   1ABB FC                 9627 	.db #0xfc	; 252
   1ABC FC                 9628 	.db #0xfc	; 252
   1ABD FC                 9629 	.db #0xfc	; 252
   1ABE FF                 9630 	.db #0xff	; 255
   1ABF FF                 9631 	.db #0xff	; 255
   1AC0 FF                 9632 	.db #0xff	; 255
   1AC1 FF                 9633 	.db #0xff	; 255
   1AC2 F0                 9634 	.db #0xf0	; 240
   1AC3 F0                 9635 	.db #0xf0	; 240
   1AC4 F0                 9636 	.db #0xf0	; 240
   1AC5 F0                 9637 	.db #0xf0	; 240
   1AC6 F0                 9638 	.db #0xf0	; 240
   1AC7 F0                 9639 	.db #0xf0	; 240
   1AC8 F0                 9640 	.db #0xf0	; 240
   1AC9 F0                 9641 	.db #0xf0	; 240
   1ACA FF                 9642 	.db #0xff	; 255
   1ACB FF                 9643 	.db #0xff	; 255
   1ACC FF                 9644 	.db #0xff	; 255
   1ACD FF                 9645 	.db #0xff	; 255
   1ACE C3                 9646 	.db #0xc3	; 195
   1ACF C3                 9647 	.db #0xc3	; 195
   1AD0 C3                 9648 	.db #0xc3	; 195
   1AD1 C3                 9649 	.db #0xc3	; 195
   1AD2 F0                 9650 	.db #0xf0	; 240
   1AD3 F0                 9651 	.db #0xf0	; 240
   1AD4 F0                 9652 	.db #0xf0	; 240
   1AD5 F0                 9653 	.db #0xf0	; 240
   1AD6 F0                 9654 	.db #0xf0	; 240
   1AD7 F0                 9655 	.db #0xf0	; 240
   1AD8 F0                 9656 	.db #0xf0	; 240
   1AD9 F0                 9657 	.db #0xf0	; 240
   1ADA C0                 9658 	.db #0xc0	; 192
   1ADB C0                 9659 	.db #0xc0	; 192
   1ADC C0                 9660 	.db #0xc0	; 192
   1ADD C0                 9661 	.db #0xc0	; 192
   1ADE FF                 9662 	.db #0xff	; 255
   1ADF FF                 9663 	.db #0xff	; 255
   1AE0 FF                 9664 	.db #0xff	; 255
   1AE1 FF                 9665 	.db #0xff	; 255
   1AE2 3C                 9666 	.db #0x3c	; 60
   1AE3 3C                 9667 	.db #0x3c	; 60
   1AE4 3C                 9668 	.db #0x3c	; 60
   1AE5 3C                 9669 	.db #0x3c	; 60
   1AE6 3C                 9670 	.db #0x3c	; 60
   1AE7 3C                 9671 	.db #0x3c	; 60
   1AE8 3C                 9672 	.db #0x3c	; 60
   1AE9 3C                 9673 	.db #0x3c	; 60
   1AEA 3C                 9674 	.db #0x3c	; 60
   1AEB 3C                 9675 	.db #0x3c	; 60
   1AEC 3C                 9676 	.db #0x3c	; 60
   1AED 3C                 9677 	.db #0x3c	; 60
   1AEE C0                 9678 	.db #0xc0	; 192
   1AEF C0                 9679 	.db #0xc0	; 192
   1AF0 C0                 9680 	.db #0xc0	; 192
   1AF1 C0                 9681 	.db #0xc0	; 192
   1AF2 00                 9682 	.db #0x00	; 0
   1AF3 00                 9683 	.db #0x00	; 0
   1AF4 00                 9684 	.db #0x00	; 0
   1AF5 00                 9685 	.db #0x00	; 0
   1AF6 00                 9686 	.db #0x00	; 0
   1AF7 00                 9687 	.db #0x00	; 0
   1AF8 00                 9688 	.db #0x00	; 0
   1AF9 00                 9689 	.db #0x00	; 0
   1AFA 00                 9690 	.db #0x00	; 0
   1AFB 00                 9691 	.db #0x00	; 0
   1AFC 00                 9692 	.db #0x00	; 0
   1AFD 00                 9693 	.db #0x00	; 0
   1AFE 01                 9694 	.db #0x01	; 1
   1AFF 01                 9695 	.db #0x01	; 1
   1B00 01                 9696 	.db #0x01	; 1
   1B01 01                 9697 	.db #0x01	; 1
   1B02 00                 9698 	.db #0x00	; 0
   1B03 00                 9699 	.db #0x00	; 0
   1B04 00                 9700 	.db #0x00	; 0
   1B05 00                 9701 	.db #0x00	; 0
   1B06 00                 9702 	.db #0x00	; 0
   1B07 00                 9703 	.db #0x00	; 0
   1B08 00                 9704 	.db #0x00	; 0
   1B09 00                 9705 	.db #0x00	; 0
   1B0A 00                 9706 	.db #0x00	; 0
   1B0B 00                 9707 	.db #0x00	; 0
   1B0C 00                 9708 	.db #0x00	; 0
   1B0D 00                 9709 	.db #0x00	; 0
   1B0E 87                 9710 	.db #0x87	; 135
   1B0F 87                 9711 	.db #0x87	; 135
   1B10 87                 9712 	.db #0x87	; 135
   1B11 87                 9713 	.db #0x87	; 135
   1B12 7F                 9714 	.db #0x7f	; 127
   1B13 7F                 9715 	.db #0x7f	; 127
   1B14 7F                 9716 	.db #0x7f	; 127
   1B15 7F                 9717 	.db #0x7f	; 127
   1B16 00                 9718 	.db #0x00	; 0
   1B17 00                 9719 	.db #0x00	; 0
   1B18 00                 9720 	.db #0x00	; 0
   1B19 00                 9721 	.db #0x00	; 0
   1B1A 00                 9722 	.db #0x00	; 0
   1B1B 00                 9723 	.db #0x00	; 0
   1B1C 00                 9724 	.db #0x00	; 0
   1B1D 00                 9725 	.db #0x00	; 0
   1B1E E0                 9726 	.db #0xe0	; 224
   1B1F E0                 9727 	.db #0xe0	; 224
   1B20 E0                 9728 	.db #0xe0	; 224
   1B21 E0                 9729 	.db #0xe0	; 224
   1B22 80                 9730 	.db #0x80	; 128
   1B23 80                 9731 	.db #0x80	; 128
   1B24 80                 9732 	.db #0x80	; 128
   1B25 80                 9733 	.db #0x80	; 128
   1B26 00                 9734 	.db #0x00	; 0
   1B27 00                 9735 	.db #0x00	; 0
   1B28 00                 9736 	.db #0x00	; 0
   1B29 00                 9737 	.db #0x00	; 0
   1B2A 00                 9738 	.db #0x00	; 0
   1B2B 00                 9739 	.db #0x00	; 0
   1B2C 00                 9740 	.db #0x00	; 0
   1B2D 00                 9741 	.db #0x00	; 0
   1B2E 78                 9742 	.db #0x78	; 120	'x'
   1B2F 78                 9743 	.db #0x78	; 120	'x'
   1B30 78                 9744 	.db #0x78	; 120	'x'
   1B31 78                 9745 	.db #0x78	; 120	'x'
   1B32 78                 9746 	.db #0x78	; 120	'x'
   1B33 78                 9747 	.db #0x78	; 120	'x'
   1B34 78                 9748 	.db #0x78	; 120	'x'
   1B35 78                 9749 	.db #0x78	; 120	'x'
   1B36 00                 9750 	.db #0x00	; 0
   1B37 00                 9751 	.db #0x00	; 0
   1B38 00                 9752 	.db #0x00	; 0
   1B39 00                 9753 	.db #0x00	; 0
   1B3A 00                 9754 	.db #0x00	; 0
   1B3B 00                 9755 	.db #0x00	; 0
   1B3C 00                 9756 	.db #0x00	; 0
   1B3D 00                 9757 	.db #0x00	; 0
   1B3E 18                 9758 	.db #0x18	; 24
   1B3F 18                 9759 	.db #0x18	; 24
   1B40 18                 9760 	.db #0x18	; 24
   1B41 18                 9761 	.db #0x18	; 24
   1B42 18                 9762 	.db #0x18	; 24
   1B43 18                 9763 	.db #0x18	; 24
   1B44 18                 9764 	.db #0x18	; 24
   1B45 18                 9765 	.db #0x18	; 24
   1B46 00                 9766 	.db #0x00	; 0
   1B47 00                 9767 	.db #0x00	; 0
   1B48 00                 9768 	.db #0x00	; 0
   1B49 00                 9769 	.db #0x00	; 0
   1B4A 00                 9770 	.db #0x00	; 0
   1B4B 00                 9771 	.db #0x00	; 0
   1B4C 00                 9772 	.db #0x00	; 0
   1B4D 00                 9773 	.db #0x00	; 0
   1B4E FC                 9774 	.db #0xfc	; 252
   1B4F FC                 9775 	.db #0xfc	; 252
   1B50 FC                 9776 	.db #0xfc	; 252
   1B51 FC                 9777 	.db #0xfc	; 252
   1B52 FC                 9778 	.db #0xfc	; 252
   1B53 FC                 9779 	.db #0xfc	; 252
   1B54 FC                 9780 	.db #0xfc	; 252
   1B55 FC                 9781 	.db #0xfc	; 252
   1B56 00                 9782 	.db #0x00	; 0
   1B57 00                 9783 	.db #0x00	; 0
   1B58 00                 9784 	.db #0x00	; 0
   1B59 00                 9785 	.db #0x00	; 0
   1B5A 00                 9786 	.db #0x00	; 0
   1B5B 00                 9787 	.db #0x00	; 0
   1B5C 00                 9788 	.db #0x00	; 0
   1B5D 00                 9789 	.db #0x00	; 0
   1B5E F3                 9790 	.db #0xf3	; 243
   1B5F F3                 9791 	.db #0xf3	; 243
   1B60 F3                 9792 	.db #0xf3	; 243
   1B61 F3                 9793 	.db #0xf3	; 243
   1B62 F0                 9794 	.db #0xf0	; 240
   1B63 F0                 9795 	.db #0xf0	; 240
   1B64 F0                 9796 	.db #0xf0	; 240
   1B65 F0                 9797 	.db #0xf0	; 240
   1B66 00                 9798 	.db #0x00	; 0
   1B67 00                 9799 	.db #0x00	; 0
   1B68 00                 9800 	.db #0x00	; 0
   1B69 00                 9801 	.db #0x00	; 0
   1B6A 00                 9802 	.db #0x00	; 0
   1B6B 00                 9803 	.db #0x00	; 0
   1B6C 00                 9804 	.db #0x00	; 0
   1B6D 00                 9805 	.db #0x00	; 0
   1B6E 00                 9806 	.db #0x00	; 0
   1B6F 00                 9807 	.db #0x00	; 0
   1B70 00                 9808 	.db #0x00	; 0
   1B71 00                 9809 	.db #0x00	; 0
   1B72 F0                 9810 	.db #0xf0	; 240
   1B73 F0                 9811 	.db #0xf0	; 240
   1B74 F0                 9812 	.db #0xf0	; 240
   1B75 F0                 9813 	.db #0xf0	; 240
   1B76 00                 9814 	.db #0x00	; 0
   1B77 00                 9815 	.db #0x00	; 0
   1B78 00                 9816 	.db #0x00	; 0
   1B79 00                 9817 	.db #0x00	; 0
   1B7A 00                 9818 	.db #0x00	; 0
   1B7B 00                 9819 	.db #0x00	; 0
   1B7C 00                 9820 	.db #0x00	; 0
   1B7D 00                 9821 	.db #0x00	; 0
   1B7E 3C                 9822 	.db #0x3c	; 60
   1B7F 3C                 9823 	.db #0x3c	; 60
   1B80 3C                 9824 	.db #0x3c	; 60
   1B81 3C                 9825 	.db #0x3c	; 60
   1B82 3C                 9826 	.db #0x3c	; 60
   1B83 3C                 9827 	.db #0x3c	; 60
   1B84 3C                 9828 	.db #0x3c	; 60
   1B85 3C                 9829 	.db #0x3c	; 60
   1B86 00                 9830 	.db #0x00	; 0
   1B87 00                 9831 	.db #0x00	; 0
   1B88 00                 9832 	.db #0x00	; 0
   1B89 00                 9833 	.db #0x00	; 0
   1B8A 00                 9834 	.db #0x00	; 0
   1B8B 00                 9835 	.db #0x00	; 0
   1B8C 00                 9836 	.db #0x00	; 0
   1B8D 00                 9837 	.db #0x00	; 0
   1B8E                    9838 _splash_map:
   1B8E 00                 9839 	.db #0x00	; 0
   1B8F 00                 9840 	.db #0x00	; 0
   1B90 00                 9841 	.db #0x00	; 0
   1B91 00                 9842 	.db #0x00	; 0
   1B92 00                 9843 	.db #0x00	; 0
   1B93 00                 9844 	.db #0x00	; 0
   1B94 00                 9845 	.db #0x00	; 0
   1B95 00                 9846 	.db #0x00	; 0
   1B96 01                 9847 	.db #0x01	; 1
   1B97 02                 9848 	.db #0x02	; 2
   1B98 00                 9849 	.db #0x00	; 0
   1B99 00                 9850 	.db #0x00	; 0
   1B9A 00                 9851 	.db #0x00	; 0
   1B9B 00                 9852 	.db #0x00	; 0
   1B9C 00                 9853 	.db #0x00	; 0
   1B9D 00                 9854 	.db #0x00	; 0
   1B9E 00                 9855 	.db #0x00	; 0
   1B9F 00                 9856 	.db #0x00	; 0
   1BA0 00                 9857 	.db #0x00	; 0
   1BA1 00                 9858 	.db #0x00	; 0
   1BA2 00                 9859 	.db #0x00	; 0
   1BA3 00                 9860 	.db #0x00	; 0
   1BA4 00                 9861 	.db #0x00	; 0
   1BA5 00                 9862 	.db #0x00	; 0
   1BA6 00                 9863 	.db #0x00	; 0
   1BA7 00                 9864 	.db #0x00	; 0
   1BA8 00                 9865 	.db #0x00	; 0
   1BA9 03                 9866 	.db #0x03	; 3
   1BAA 04                 9867 	.db #0x04	; 4
   1BAB 05                 9868 	.db #0x05	; 5
   1BAC 06                 9869 	.db #0x06	; 6
   1BAD 07                 9870 	.db #0x07	; 7
   1BAE 08                 9871 	.db #0x08	; 8
   1BAF 09                 9872 	.db #0x09	; 9
   1BB0 0A                 9873 	.db #0x0a	; 10
   1BB1 0B                 9874 	.db #0x0b	; 11
   1BB2 0C                 9875 	.db #0x0c	; 12
   1BB3 0D                 9876 	.db #0x0d	; 13
   1BB4 00                 9877 	.db #0x00	; 0
   1BB5 00                 9878 	.db #0x00	; 0
   1BB6 00                 9879 	.db #0x00	; 0
   1BB7 00                 9880 	.db #0x00	; 0
   1BB8 00                 9881 	.db #0x00	; 0
   1BB9 00                 9882 	.db #0x00	; 0
   1BBA 00                 9883 	.db #0x00	; 0
   1BBB 00                 9884 	.db #0x00	; 0
   1BBC 00                 9885 	.db #0x00	; 0
   1BBD 0E                 9886 	.db #0x0e	; 14
   1BBE 0F                 9887 	.db #0x0f	; 15
   1BBF 10                 9888 	.db #0x10	; 16
   1BC0 11                 9889 	.db #0x11	; 17
   1BC1 12                 9890 	.db #0x12	; 18
   1BC2 13                 9891 	.db #0x13	; 19
   1BC3 14                 9892 	.db #0x14	; 20
   1BC4 15                 9893 	.db #0x15	; 21
   1BC5 16                 9894 	.db #0x16	; 22
   1BC6 17                 9895 	.db #0x17	; 23
   1BC7 00                 9896 	.db #0x00	; 0
   1BC8 00                 9897 	.db #0x00	; 0
   1BC9 00                 9898 	.db #0x00	; 0
   1BCA 00                 9899 	.db #0x00	; 0
   1BCB 00                 9900 	.db #0x00	; 0
   1BCC 00                 9901 	.db #0x00	; 0
   1BCD 00                 9902 	.db #0x00	; 0
   1BCE 00                 9903 	.db #0x00	; 0
   1BCF 00                 9904 	.db #0x00	; 0
   1BD0 00                 9905 	.db #0x00	; 0
   1BD1 00                 9906 	.db #0x00	; 0
   1BD2 18                 9907 	.db #0x18	; 24
   1BD3 19                 9908 	.db #0x19	; 25
   1BD4 1A                 9909 	.db #0x1a	; 26
   1BD5 1B                 9910 	.db #0x1b	; 27
   1BD6 1C                 9911 	.db #0x1c	; 28
   1BD7 1D                 9912 	.db #0x1d	; 29
   1BD8 1E                 9913 	.db #0x1e	; 30
   1BD9 1E                 9914 	.db #0x1e	; 30
   1BDA 19                 9915 	.db #0x19	; 25
   1BDB 1F                 9916 	.db #0x1f	; 31
   1BDC 00                 9917 	.db #0x00	; 0
   1BDD 00                 9918 	.db #0x00	; 0
   1BDE 00                 9919 	.db #0x00	; 0
   1BDF 00                 9920 	.db #0x00	; 0
   1BE0 00                 9921 	.db #0x00	; 0
   1BE1 00                 9922 	.db #0x00	; 0
   1BE2 00                 9923 	.db #0x00	; 0
   1BE3 00                 9924 	.db #0x00	; 0
   1BE4 00                 9925 	.db #0x00	; 0
   1BE5 00                 9926 	.db #0x00	; 0
   1BE6 00                 9927 	.db #0x00	; 0
   1BE7 20                 9928 	.db #0x20	; 32
   1BE8 21                 9929 	.db #0x21	; 33
   1BE9 22                 9930 	.db #0x22	; 34
   1BEA 00                 9931 	.db #0x00	; 0
   1BEB 00                 9932 	.db #0x00	; 0
   1BEC 00                 9933 	.db #0x00	; 0
   1BED 00                 9934 	.db #0x00	; 0
   1BEE 00                 9935 	.db #0x00	; 0
   1BEF 00                 9936 	.db #0x00	; 0
   1BF0 00                 9937 	.db #0x00	; 0
   1BF1 00                 9938 	.db #0x00	; 0
   1BF2 00                 9939 	.db #0x00	; 0
   1BF3 23                 9940 	.db #0x23	; 35
   1BF4 02                 9941 	.db #0x02	; 2
   1BF5 02                 9942 	.db #0x02	; 2
   1BF6 02                 9943 	.db #0x02	; 2
   1BF7 02                 9944 	.db #0x02	; 2
   1BF8 02                 9945 	.db #0x02	; 2
   1BF9 24                 9946 	.db #0x24	; 36
   1BFA 00                 9947 	.db #0x00	; 0
   1BFB 25                 9948 	.db #0x25	; 37
   1BFC 26                 9949 	.db #0x26	; 38
   1BFD 27                 9950 	.db #0x27	; 39
   1BFE 28                 9951 	.db #0x28	; 40
   1BFF 29                 9952 	.db #0x29	; 41
   1C00 2A                 9953 	.db #0x2a	; 42
   1C01 2B                 9954 	.db #0x2b	; 43
   1C02 2C                 9955 	.db #0x2c	; 44
   1C03 00                 9956 	.db #0x00	; 0
   1C04 00                 9957 	.db #0x00	; 0
   1C05 00                 9958 	.db #0x00	; 0
   1C06 00                 9959 	.db #0x00	; 0
   1C07 2D                 9960 	.db #0x2d	; 45
   1C08 2E                 9961 	.db #0x2e	; 46
   1C09 2F                 9962 	.db #0x2f	; 47
   1C0A 30                 9963 	.db #0x30	; 48	'0'
   1C0B 31                 9964 	.db #0x31	; 49	'1'
   1C0C 32                 9965 	.db #0x32	; 50	'2'
   1C0D 33                 9966 	.db #0x33	; 51	'3'
   1C0E 00                 9967 	.db #0x00	; 0
   1C0F 25                 9968 	.db #0x25	; 37
   1C10 34                 9969 	.db #0x34	; 52	'4'
   1C11 35                 9970 	.db #0x35	; 53	'5'
   1C12 36                 9971 	.db #0x36	; 54	'6'
   1C13 37                 9972 	.db #0x37	; 55	'7'
   1C14 38                 9973 	.db #0x38	; 56	'8'
   1C15 39                 9974 	.db #0x39	; 57	'9'
   1C16 34                 9975 	.db #0x34	; 52	'4'
   1C17 00                 9976 	.db #0x00	; 0
   1C18 00                 9977 	.db #0x00	; 0
   1C19 00                 9978 	.db #0x00	; 0
   1C1A 00                 9979 	.db #0x00	; 0
   1C1B 2D                 9980 	.db #0x2d	; 45
   1C1C 3A                 9981 	.db #0x3a	; 58
   1C1D 3B                 9982 	.db #0x3b	; 59
   1C1E 3C                 9983 	.db #0x3c	; 60
   1C1F 3D                 9984 	.db #0x3d	; 61
   1C20 3E                 9985 	.db #0x3e	; 62
   1C21 33                 9986 	.db #0x33	; 51	'3'
   1C22 00                 9987 	.db #0x00	; 0
   1C23 3F                 9988 	.db #0x3f	; 63
   1C24 40                 9989 	.db #0x40	; 64
   1C25 41                 9990 	.db #0x41	; 65	'A'
   1C26 42                 9991 	.db #0x42	; 66	'B'
   1C27 43                 9992 	.db #0x43	; 67	'C'
   1C28 44                 9993 	.db #0x44	; 68	'D'
   1C29 45                 9994 	.db #0x45	; 69	'E'
   1C2A 46                 9995 	.db #0x46	; 70	'F'
   1C2B 00                 9996 	.db #0x00	; 0
   1C2C 00                 9997 	.db #0x00	; 0
   1C2D 00                 9998 	.db #0x00	; 0
   1C2E 00                 9999 	.db #0x00	; 0
   1C2F 2D                10000 	.db #0x2d	; 45
   1C30 47                10001 	.db #0x47	; 71	'G'
   1C31 48                10002 	.db #0x48	; 72	'H'
   1C32 49                10003 	.db #0x49	; 73	'I'
   1C33 4A                10004 	.db #0x4a	; 74	'J'
   1C34 4B                10005 	.db #0x4b	; 75	'K'
   1C35 33                10006 	.db #0x33	; 51	'3'
   1C36 00                10007 	.db #0x00	; 0
   1C37 00                10008 	.db #0x00	; 0
   1C38 00                10009 	.db #0x00	; 0
   1C39 00                10010 	.db #0x00	; 0
   1C3A 00                10011 	.db #0x00	; 0
   1C3B 00                10012 	.db #0x00	; 0
   1C3C 00                10013 	.db #0x00	; 0
   1C3D 00                10014 	.db #0x00	; 0
   1C3E 00                10015 	.db #0x00	; 0
   1C3F 00                10016 	.db #0x00	; 0
   1C40 00                10017 	.db #0x00	; 0
   1C41 00                10018 	.db #0x00	; 0
   1C42 00                10019 	.db #0x00	; 0
   1C43 2D                10020 	.db #0x2d	; 45
   1C44 4C                10021 	.db #0x4c	; 76	'L'
   1C45 4D                10022 	.db #0x4d	; 77	'M'
   1C46 4E                10023 	.db #0x4e	; 78	'N'
   1C47 4F                10024 	.db #0x4f	; 79	'O'
   1C48 50                10025 	.db #0x50	; 80	'P'
   1C49 33                10026 	.db #0x33	; 51	'3'
   1C4A 00                10027 	.db #0x00	; 0
   1C4B 00                10028 	.db #0x00	; 0
   1C4C 00                10029 	.db #0x00	; 0
   1C4D 00                10030 	.db #0x00	; 0
   1C4E 00                10031 	.db #0x00	; 0
   1C4F 00                10032 	.db #0x00	; 0
   1C50 00                10033 	.db #0x00	; 0
   1C51 00                10034 	.db #0x00	; 0
   1C52 00                10035 	.db #0x00	; 0
   1C53 00                10036 	.db #0x00	; 0
   1C54 00                10037 	.db #0x00	; 0
   1C55 00                10038 	.db #0x00	; 0
   1C56 00                10039 	.db #0x00	; 0
   1C57 51                10040 	.db #0x51	; 81	'Q'
   1C58 52                10041 	.db #0x52	; 82	'R'
   1C59 39                10042 	.db #0x39	; 57	'9'
   1C5A 53                10043 	.db #0x53	; 83	'S'
   1C5B 54                10044 	.db #0x54	; 84	'T'
   1C5C 39                10045 	.db #0x39	; 57	'9'
   1C5D 33                10046 	.db #0x33	; 51	'3'
   1C5E 00                10047 	.db #0x00	; 0
   1C5F 00                10048 	.db #0x00	; 0
   1C60 00                10049 	.db #0x00	; 0
   1C61 00                10050 	.db #0x00	; 0
   1C62 00                10051 	.db #0x00	; 0
   1C63 00                10052 	.db #0x00	; 0
   1C64 00                10053 	.db #0x00	; 0
   1C65 00                10054 	.db #0x00	; 0
   1C66 00                10055 	.db #0x00	; 0
   1C67 00                10056 	.db #0x00	; 0
   1C68 00                10057 	.db #0x00	; 0
   1C69 00                10058 	.db #0x00	; 0
   1C6A 00                10059 	.db #0x00	; 0
   1C6B 00                10060 	.db #0x00	; 0
   1C6C 55                10061 	.db #0x55	; 85	'U'
   1C6D 39                10062 	.db #0x39	; 57	'9'
   1C6E 38                10063 	.db #0x38	; 56	'8'
   1C6F 56                10064 	.db #0x56	; 86	'V'
   1C70 39                10065 	.db #0x39	; 57	'9'
   1C71 33                10066 	.db #0x33	; 51	'3'
   1C72 00                10067 	.db #0x00	; 0
   1C73 00                10068 	.db #0x00	; 0
   1C74 00                10069 	.db #0x00	; 0
   1C75 00                10070 	.db #0x00	; 0
   1C76 00                10071 	.db #0x00	; 0
   1C77 00                10072 	.db #0x00	; 0
   1C78 00                10073 	.db #0x00	; 0
   1C79 00                10074 	.db #0x00	; 0
   1C7A 00                10075 	.db #0x00	; 0
   1C7B 00                10076 	.db #0x00	; 0
   1C7C 00                10077 	.db #0x00	; 0
   1C7D 00                10078 	.db #0x00	; 0
   1C7E 00                10079 	.db #0x00	; 0
   1C7F 00                10080 	.db #0x00	; 0
   1C80 55                10081 	.db #0x55	; 85	'U'
   1C81 39                10082 	.db #0x39	; 57	'9'
   1C82 38                10083 	.db #0x38	; 56	'8'
   1C83 56                10084 	.db #0x56	; 86	'V'
   1C84 39                10085 	.db #0x39	; 57	'9'
   1C85 33                10086 	.db #0x33	; 51	'3'
   1C86 00                10087 	.db #0x00	; 0
   1C87 00                10088 	.db #0x00	; 0
   1C88 00                10089 	.db #0x00	; 0
   1C89 00                10090 	.db #0x00	; 0
   1C8A 00                10091 	.db #0x00	; 0
   1C8B 00                10092 	.db #0x00	; 0
   1C8C 00                10093 	.db #0x00	; 0
   1C8D 00                10094 	.db #0x00	; 0
   1C8E 00                10095 	.db #0x00	; 0
   1C8F 00                10096 	.db #0x00	; 0
   1C90 00                10097 	.db #0x00	; 0
   1C91 00                10098 	.db #0x00	; 0
   1C92 00                10099 	.db #0x00	; 0
   1C93 00                10100 	.db #0x00	; 0
   1C94 57                10101 	.db #0x57	; 87	'W'
   1C95 58                10102 	.db #0x58	; 88	'X'
   1C96 59                10103 	.db #0x59	; 89	'Y'
   1C97 5A                10104 	.db #0x5a	; 90	'Z'
   1C98 58                10105 	.db #0x58	; 88	'X'
   1C99 5B                10106 	.db #0x5b	; 91
   1C9A 00                10107 	.db #0x00	; 0
   1C9B 00                10108 	.db #0x00	; 0
   1C9C 00                10109 	.db #0x00	; 0
   1C9D 00                10110 	.db #0x00	; 0
   1C9E 00                10111 	.db #0x00	; 0
   1C9F 00                10112 	.db #0x00	; 0
   1CA0 00                10113 	.db #0x00	; 0
   1CA1 00                10114 	.db #0x00	; 0
   1CA2 00                10115 	.db #0x00	; 0
   1CA3 00                10116 	.db #0x00	; 0
   1CA4 00                10117 	.db #0x00	; 0
   1CA5 00                10118 	.db #0x00	; 0
   1CA6 00                10119 	.db #0x00	; 0
   1CA7 00                10120 	.db #0x00	; 0
   1CA8 5C                10121 	.db #0x5c	; 92
   1CA9 5D                10122 	.db #0x5d	; 93
   1CAA 5E                10123 	.db #0x5e	; 94
   1CAB 5F                10124 	.db #0x5f	; 95
   1CAC 60                10125 	.db #0x60	; 96
   1CAD 61                10126 	.db #0x61	; 97	'a'
   1CAE 62                10127 	.db #0x62	; 98	'b'
   1CAF 63                10128 	.db #0x63	; 99	'c'
   1CB0 64                10129 	.db #0x64	; 100	'd'
   1CB1 65                10130 	.db #0x65	; 101	'e'
   1CB2 00                10131 	.db #0x00	; 0
   1CB3 00                10132 	.db #0x00	; 0
   1CB4 00                10133 	.db #0x00	; 0
   1CB5 00                10134 	.db #0x00	; 0
   1CB6 00                10135 	.db #0x00	; 0
   1CB7 00                10136 	.db #0x00	; 0
   1CB8 00                10137 	.db #0x00	; 0
   1CB9 00                10138 	.db #0x00	; 0
   1CBA 00                10139 	.db #0x00	; 0
   1CBB 00                10140 	.db #0x00	; 0
   1CBC 66                10141 	.db #0x66	; 102	'f'
   1CBD 67                10142 	.db #0x67	; 103	'g'
   1CBE 68                10143 	.db #0x68	; 104	'h'
   1CBF 69                10144 	.db #0x69	; 105	'i'
   1CC0 6A                10145 	.db #0x6a	; 106	'j'
   1CC1 6B                10146 	.db #0x6b	; 107	'k'
   1CC2 6C                10147 	.db #0x6c	; 108	'l'
   1CC3 6D                10148 	.db #0x6d	; 109	'm'
   1CC4 6E                10149 	.db #0x6e	; 110	'n'
   1CC5 00                10150 	.db #0x00	; 0
   1CC6 00                10151 	.db #0x00	; 0
   1CC7 00                10152 	.db #0x00	; 0
   1CC8 00                10153 	.db #0x00	; 0
   1CC9 00                10154 	.db #0x00	; 0
   1CCA 00                10155 	.db #0x00	; 0
   1CCB 00                10156 	.db #0x00	; 0
   1CCC 00                10157 	.db #0x00	; 0
   1CCD 00                10158 	.db #0x00	; 0
   1CCE 00                10159 	.db #0x00	; 0
   1CCF 00                10160 	.db #0x00	; 0
   1CD0 00                10161 	.db #0x00	; 0
   1CD1 00                10162 	.db #0x00	; 0
   1CD2 00                10163 	.db #0x00	; 0
   1CD3 00                10164 	.db #0x00	; 0
   1CD4 00                10165 	.db #0x00	; 0
   1CD5 00                10166 	.db #0x00	; 0
   1CD6 00                10167 	.db #0x00	; 0
   1CD7 00                10168 	.db #0x00	; 0
   1CD8 00                10169 	.db #0x00	; 0
   1CD9 00                10170 	.db #0x00	; 0
   1CDA 00                10171 	.db #0x00	; 0
   1CDB 00                10172 	.db #0x00	; 0
   1CDC 00                10173 	.db #0x00	; 0
   1CDD 00                10174 	.db #0x00	; 0
   1CDE 00                10175 	.db #0x00	; 0
   1CDF 00                10176 	.db #0x00	; 0
   1CE0 00                10177 	.db #0x00	; 0
   1CE1 00                10178 	.db #0x00	; 0
   1CE2 00                10179 	.db #0x00	; 0
   1CE3 00                10180 	.db #0x00	; 0
   1CE4 00                10181 	.db #0x00	; 0
   1CE5 00                10182 	.db #0x00	; 0
   1CE6 00                10183 	.db #0x00	; 0
   1CE7 00                10184 	.db #0x00	; 0
   1CE8 00                10185 	.db #0x00	; 0
   1CE9 00                10186 	.db #0x00	; 0
   1CEA 00                10187 	.db #0x00	; 0
   1CEB 00                10188 	.db #0x00	; 0
   1CEC 00                10189 	.db #0x00	; 0
   1CED 00                10190 	.db #0x00	; 0
   1CEE 00                10191 	.db #0x00	; 0
   1CEF 00                10192 	.db #0x00	; 0
   1CF0 00                10193 	.db #0x00	; 0
   1CF1 00                10194 	.db #0x00	; 0
   1CF2 00                10195 	.db #0x00	; 0
   1CF3 00                10196 	.db #0x00	; 0
   1CF4 00                10197 	.db #0x00	; 0
   1CF5 00                10198 	.db #0x00	; 0
                          10199 ;./src/main.c:35: void main()
                          10200 ;	---------------------------------
                          10201 ; Function main
                          10202 ; ---------------------------------
   1CF6                   10203 _main::
   1CF6 E8 ED             10204 	add	sp, #-19
                          10205 ;./src/main.c:38: set_bkg_data(0, 114, splash_data);
   1CF8 21r9Er14          10206 	ld	hl, #_splash_data
   1CFB E5                10207 	push	hl
   1CFC 3E 72             10208 	ld	a, #0x72
   1CFE F5                10209 	push	af
   1CFF 33                10210 	inc	sp
   1D00 AF                10211 	xor	a, a
   1D01 F5                10212 	push	af
   1D02 33                10213 	inc	sp
   1D03 CDr00r00          10214 	call	_set_bkg_data
   1D06 E8 04             10215 	add	sp, #4
                          10216 ;./src/main.c:39: set_bkg_tiles(0, 0, 20, 18, splash_map);
   1D08 21r8Er1B          10217 	ld	hl, #_splash_map
   1D0B E5                10218 	push	hl
   1D0C 3E 12             10219 	ld	a, #0x12
   1D0E F5                10220 	push	af
   1D0F 33                10221 	inc	sp
   1D10 3E 14             10222 	ld	a, #0x14
   1D12 F5                10223 	push	af
   1D13 33                10224 	inc	sp
   1D14 AF                10225 	xor	a, a
   1D15 F5                10226 	push	af
   1D16 33                10227 	inc	sp
   1D17 AF                10228 	xor	a, a
   1D18 F5                10229 	push	af
   1D19 33                10230 	inc	sp
   1D1A CDr00r00          10231 	call	_set_bkg_tiles
   1D1D E8 06             10232 	add	sp, #6
                          10233 ;./src/main.c:41: SHOW_BKG;
   1D1F F0r00             10234 	ldh	a, (_LCDC_REG+0)
   1D21 F6 01             10235 	or	a, #0x01
   1D23 E0r00             10236 	ldh	(_LCDC_REG+0),a
                          10237 ;./src/main.c:42: DISPLAY_ON;
   1D25 F0r00             10238 	ldh	a, (_LCDC_REG+0)
   1D27 F6 80             10239 	or	a, #0x80
   1D29 E0r00             10240 	ldh	(_LCDC_REG+0),a
                          10241 ;./src/main.c:44: waitpad(J_START);
   1D2B 3E 80             10242 	ld	a, #0x80
   1D2D F5                10243 	push	af
   1D2E 33                10244 	inc	sp
   1D2F CDr00r00          10245 	call	_waitpad
   1D32 33                10246 	inc	sp
                          10247 ;./src/main.c:47: set_bkg_data(0, 12, BackgroundTiles);
   1D33 21r30r00          10248 	ld	hl, #_BackgroundTiles
   1D36 E5                10249 	push	hl
   1D37 3E 0C             10250 	ld	a, #0x0c
   1D39 F5                10251 	push	af
   1D3A 33                10252 	inc	sp
   1D3B AF                10253 	xor	a, a
   1D3C F5                10254 	push	af
   1D3D 33                10255 	inc	sp
   1D3E CDr00r00          10256 	call	_set_bkg_data
   1D41 E8 04             10257 	add	sp, #4
                          10258 ;./src/main.c:49: MPlayer player = {{{70, 24}, 0, 3, 0, {0, 0}, {false, {0, 0}}}, false};
   1D43 F8 00             10259 	ldhl	sp,	#0
   1D45 7D                10260 	ld	a, l
   1D46 54                10261 	ld	d, h
   1D47 F8 11             10262 	ldhl	sp,	#17
   1D49 22                10263 	ld	(hl+), a
   1D4A 72                10264 	ld	(hl), d
   1D4B 2B                10265 	dec	hl
   1D4C 2A                10266 	ld	a, (hl+)
   1D4D 66                10267 	ld	h, (hl)
   1D4E 6F                10268 	ld	l, a
   1D4F 36 46             10269 	ld	(hl), #0x46
   1D51 F8 11             10270 	ldhl	sp,#(18 - 1)
   1D53 4E                10271 	ld	c, (hl)
   1D54 23                10272 	inc	hl
   1D55 46                10273 	ld	b, (hl)
   1D56 03                10274 	inc	bc
   1D57 3E 18             10275 	ld	a, #0x18
   1D59 02                10276 	ld	(bc), a
   1D5A 2B                10277 	dec	hl
   1D5B 4E                10278 	ld	c, (hl)
   1D5C 23                10279 	inc	hl
   1D5D 46                10280 	ld	b, (hl)
   1D5E 03                10281 	inc	bc
   1D5F 03                10282 	inc	bc
   1D60 AF                10283 	xor	a, a
   1D61 02                10284 	ld	(bc), a
   1D62 2B                10285 	dec	hl
   1D63 4E                10286 	ld	c, (hl)
   1D64 23                10287 	inc	hl
   1D65 46                10288 	ld	b, (hl)
   1D66 03                10289 	inc	bc
   1D67 03                10290 	inc	bc
   1D68 03                10291 	inc	bc
   1D69 3E 03             10292 	ld	a, #0x03
   1D6B 02                10293 	ld	(bc), a
   1D6C 2B                10294 	dec	hl
   1D6D 5E                10295 	ld	e, (hl)
   1D6E 23                10296 	inc	hl
   1D6F 56                10297 	ld	d, (hl)
   1D70 21 04 00          10298 	ld	hl, #0x0004
   1D73 19                10299 	add	hl, de
   1D74 4D                10300 	ld	c, l
   1D75 44                10301 	ld	b, h
   1D76 AF                10302 	xor	a, a
   1D77 02                10303 	ld	(bc), a
   1D78 F8 11             10304 	ldhl	sp,#(18 - 1)
   1D7A 5E                10305 	ld	e, (hl)
   1D7B 23                10306 	inc	hl
   1D7C 56                10307 	ld	d, (hl)
   1D7D 21 05 00          10308 	ld	hl, #0x0005
   1D80 19                10309 	add	hl, de
   1D81 4D                10310 	ld	c, l
   1D82 44                10311 	ld	b, h
   1D83 AF                10312 	xor	a, a
   1D84 02                10313 	ld	(bc), a
   1D85 03                10314 	inc	bc
   1D86 02                10315 	ld	(bc), a
   1D87 F8 11             10316 	ldhl	sp,#(18 - 1)
   1D89 5E                10317 	ld	e, (hl)
   1D8A 23                10318 	inc	hl
   1D8B 56                10319 	ld	d, (hl)
   1D8C 21 07 00          10320 	ld	hl, #0x0007
   1D8F 19                10321 	add	hl, de
   1D90 4D                10322 	ld	c, l
   1D91 44                10323 	ld	b, h
   1D92 AF                10324 	xor	a, a
   1D93 02                10325 	ld	(bc), a
   1D94 03                10326 	inc	bc
   1D95 02                10327 	ld	(bc), a
   1D96 F8 11             10328 	ldhl	sp,#(18 - 1)
   1D98 5E                10329 	ld	e, (hl)
   1D99 23                10330 	inc	hl
   1D9A 56                10331 	ld	d, (hl)
   1D9B 21 09 00          10332 	ld	hl, #0x0009
   1D9E 19                10333 	add	hl, de
   1D9F 4D                10334 	ld	c, l
   1DA0 44                10335 	ld	b, h
   1DA1 AF                10336 	xor	a, a
   1DA2 02                10337 	ld	(bc), a
   1DA3 F8 11             10338 	ldhl	sp,#(18 - 1)
   1DA5 5E                10339 	ld	e, (hl)
   1DA6 23                10340 	inc	hl
   1DA7 56                10341 	ld	d, (hl)
   1DA8 21 0A 00          10342 	ld	hl, #0x000a
   1DAB 19                10343 	add	hl, de
   1DAC 4D                10344 	ld	c, l
   1DAD 44                10345 	ld	b, h
   1DAE AF                10346 	xor	a, a
   1DAF 02                10347 	ld	(bc), a
   1DB0 03                10348 	inc	bc
   1DB1 02                10349 	ld	(bc), a
   1DB2 F8 11             10350 	ldhl	sp,#(18 - 1)
   1DB4 5E                10351 	ld	e, (hl)
   1DB5 23                10352 	inc	hl
   1DB6 56                10353 	ld	d, (hl)
   1DB7 21 0C 00          10354 	ld	hl, #0x000c
   1DBA 19                10355 	add	hl, de
   1DBB 4D                10356 	ld	c, l
   1DBC 44                10357 	ld	b, h
   1DBD AF                10358 	xor	a, a
   1DBE 02                10359 	ld	(bc), a
   1DBF 03                10360 	inc	bc
   1DC0 02                10361 	ld	(bc), a
   1DC1 F8 00             10362 	ldhl	sp,	#0
   1DC3 7D                10363 	ld	a, l
   1DC4 54                10364 	ld	d, h
   1DC5 F8 0F             10365 	ldhl	sp,	#15
   1DC7 22                10366 	ld	(hl+), a
   1DC8 72                10367 	ld	(hl), d
   1DC9 2B                10368 	dec	hl
   1DCA 5E                10369 	ld	e, (hl)
   1DCB 23                10370 	inc	hl
   1DCC 56                10371 	ld	d, (hl)
   1DCD 21 0E 00          10372 	ld	hl, #0x000e
   1DD0 19                10373 	add	hl, de
   1DD1 4D                10374 	ld	c, l
   1DD2 44                10375 	ld	b, h
   1DD3 AF                10376 	xor	a, a
   1DD4 02                10377 	ld	(bc), a
                          10378 ;./src/main.c:51: set_sprite_data(player.sprite.sprite_number, player.sprite.max_animations, MainChar);
   1DD5 F8 0F             10379 	ldhl	sp,#(16 - 1)
   1DD7 4E                10380 	ld	c, (hl)
   1DD8 23                10381 	inc	hl
   1DD9 46                10382 	ld	b, (hl)
   1DDA 03                10383 	inc	bc
   1DDB 03                10384 	inc	bc
   1DDC 03                10385 	inc	bc
   1DDD 0A                10386 	ld	a, (bc)
   1DDE 47                10387 	ld	b, a
   1DDF 2B                10388 	dec	hl
   1DE0 5E                10389 	ld	e, (hl)
   1DE1 23                10390 	inc	hl
   1DE2 56                10391 	ld	d, (hl)
   1DE3 21 04 00          10392 	ld	hl, #0x0004
   1DE6 19                10393 	add	hl, de
   1DE7 7D                10394 	ld	a, l
   1DE8 54                10395 	ld	d, h
   1DE9 F8 11             10396 	ldhl	sp,	#17
   1DEB 22                10397 	ld	(hl+), a
   1DEC 72                10398 	ld	(hl), d
   1DED 2B                10399 	dec	hl
   1DEE 5E                10400 	ld	e, (hl)
   1DEF 23                10401 	inc	hl
   1DF0 56                10402 	ld	d, (hl)
   1DF1 1A                10403 	ld	a,(de)
   1DF2 4F                10404 	ld	c, a
   1DF3 21r00r00          10405 	ld	hl, #_MainChar
   1DF6 E5                10406 	push	hl
   1DF7 C5                10407 	push	bc
   1DF8 33                10408 	inc	sp
   1DF9 79                10409 	ld	a, c
   1DFA F5                10410 	push	af
   1DFB 33                10411 	inc	sp
   1DFC CDr00r00          10412 	call	_set_sprite_data
   1DFF E8 04             10413 	add	sp, #4
                          10414 ;./src/main.c:52: set_sprite_tile(player.sprite.sprite_number, player.sprite.animation_index);
   1E01 F8 0F             10415 	ldhl	sp,#(16 - 1)
   1E03 4E                10416 	ld	c, (hl)
   1E04 23                10417 	inc	hl
   1E05 46                10418 	ld	b, (hl)
   1E06 03                10419 	inc	bc
   1E07 03                10420 	inc	bc
   1E08 0A                10421 	ld	a, (bc)
   1E09 47                10422 	ld	b, a
   1E0A 23                10423 	inc	hl
   1E0B 5E                10424 	ld	e, (hl)
   1E0C 23                10425 	inc	hl
   1E0D 56                10426 	ld	d, (hl)
   1E0E 1A                10427 	ld	a,(de)
   1E0F C5                10428 	push	bc
   1E10 33                10429 	inc	sp
   1E11 F5                10430 	push	af
   1E12 33                10431 	inc	sp
   1E13 CDr00r00          10432 	call	_set_sprite_tile
   1E16 E8 02             10433 	add	sp, #2
                          10434 ;./src/main.c:53: move_sprite(player.sprite.sprite_number, player.sprite.position.x, player.sprite.position.y);
   1E18 F8 0F             10435 	ldhl	sp,#(16 - 1)
   1E1A 4E                10436 	ld	c, (hl)
   1E1B 23                10437 	inc	hl
   1E1C 46                10438 	ld	b, (hl)
   1E1D 03                10439 	inc	bc
   1E1E 0A                10440 	ld	a, (bc)
   1E1F 47                10441 	ld	b, a
   1E20 2B                10442 	dec	hl
   1E21 5E                10443 	ld	e, (hl)
   1E22 23                10444 	inc	hl
   1E23 56                10445 	ld	d, (hl)
   1E24 1A                10446 	ld	a,(de)
   1E25 23                10447 	inc	hl
   1E26 5E                10448 	ld	e, (hl)
   1E27 23                10449 	inc	hl
   1E28 56                10450 	ld	d, (hl)
   1E29 F5                10451 	push	af
   1E2A 1A                10452 	ld	a,(de)
   1E2B 4F                10453 	ld	c, a
   1E2C F1                10454 	pop	af
   1E2D C5                10455 	push	bc
   1E2E 33                10456 	inc	sp
   1E2F F5                10457 	push	af
   1E30 33                10458 	inc	sp
   1E31 79                10459 	ld	a, c
   1E32 F5                10460 	push	af
   1E33 33                10461 	inc	sp
   1E34 CDr00r00          10462 	call	_move_sprite
   1E37 E8 03             10463 	add	sp, #3
                          10464 ;./src/main.c:54: SHOW_SPRITES;
   1E39 F0r00             10465 	ldh	a, (_LCDC_REG+0)
   1E3B F6 02             10466 	or	a, #0x02
   1E3D E0r00             10467 	ldh	(_LCDC_REG+0),a
                          10468 ;./src/main.c:56: set_map(&player);
   1E3F F8 0F             10469 	ldhl	sp,#(16 - 1)
   1E41 4E                10470 	ld	c, (hl)
   1E42 23                10471 	inc	hl
   1E43 46                10472 	ld	b, (hl)
   1E44 C5                10473 	push	bc
   1E45 CDrE5r0C          10474 	call	_set_map
   1E48 E8 02             10475 	add	sp, #2
                          10476 ;./src/main.c:60: while(1){
   1E4A                   10477 00105$:
                          10478 ;./src/main.c:61: UPDATE_JOYPAD_STATE;
   1E4A E5                10479 	push	hl
   1E4B 21rF1r00          10480 	ld	hl, #_joypad_curr_state
   1E4E 7E                10481 	ld	a, (hl)
   1E4F 21rF0r00          10482 	ld	hl, #_joypad_prev_state
   1E52 77                10483 	ld	(hl), a
   1E53 E1                10484 	pop	hl
   1E54 CDr00r00          10485 	call	_joypad
   1E57 21rF1r00          10486 	ld	hl, #_joypad_curr_state
   1E5A 73                10487 	ld	(hl), e
                          10488 ;./src/main.c:65: player_movement(&player);
   1E5B F8 0F             10489 	ldhl	sp,#(16 - 1)
   1E5D 4E                10490 	ld	c, (hl)
   1E5E 23                10491 	inc	hl
   1E5F 46                10492 	ld	b, (hl)
   1E60 C5                10493 	push	bc
   1E61 CDrA0r02          10494 	call	_player_movement
   1E64 E8 02             10495 	add	sp, #2
                          10496 ;./src/main.c:66: jump(&player);
   1E66 F8 0F             10497 	ldhl	sp,#(16 - 1)
   1E68 4E                10498 	ld	c, (hl)
   1E69 23                10499 	inc	hl
   1E6A 46                10500 	ld	b, (hl)
   1E6B C5                10501 	push	bc
   1E6C CDrDEr03          10502 	call	_jump
   1E6F E8 02             10503 	add	sp, #2
                          10504 ;./src/main.c:69: death_check(&player);
   1E71 F8 0F             10505 	ldhl	sp,#(16 - 1)
   1E73 4E                10506 	ld	c, (hl)
   1E74 23                10507 	inc	hl
   1E75 46                10508 	ld	b, (hl)
   1E76 C5                10509 	push	bc
   1E77 CDrD3r12          10510 	call	_death_check
   1E7A E8 02             10511 	add	sp, #2
                          10512 ;./src/main.c:70: teleporter_check(&player);
   1E7C F8 0F             10513 	ldhl	sp,#(16 - 1)
   1E7E 4E                10514 	ld	c, (hl)
   1E7F 23                10515 	inc	hl
   1E80 46                10516 	ld	b, (hl)
   1E81 C5                10517 	push	bc
   1E82 CDr52r13          10518 	call	_teleporter_check
   1E85 E8 02             10519 	add	sp, #2
                          10520 ;./src/main.c:71: collision_check(&(player.sprite));
   1E87 F8 0F             10521 	ldhl	sp,#(16 - 1)
   1E89 4E                10522 	ld	c, (hl)
   1E8A 23                10523 	inc	hl
   1E8B 46                10524 	ld	b, (hl)
   1E8C C5                10525 	push	bc
   1E8D CDr27r10          10526 	call	_collision_check
   1E90 E8 02             10527 	add	sp, #2
                          10528 ;./src/main.c:74: gravity(&(player.sprite));
   1E92 F8 0F             10529 	ldhl	sp,#(16 - 1)
   1E94 4E                10530 	ld	c, (hl)
   1E95 23                10531 	inc	hl
   1E96 46                10532 	ld	b, (hl)
   1E97 C5                10533 	push	bc
   1E98 CDr80r0E          10534 	call	_gravity
   1E9B E8 02             10535 	add	sp, #2
                          10536 ;./src/main.c:77: update_position(&(player.sprite));
   1E9D F8 0F             10537 	ldhl	sp,#(16 - 1)
   1E9F 4E                10538 	ld	c, (hl)
   1EA0 23                10539 	inc	hl
   1EA1 46                10540 	ld	b, (hl)
   1EA2 C5                10541 	push	bc
   1EA3 CDr97r00          10542 	call	_update_position
   1EA6 E8 02             10543 	add	sp, #2
                          10544 ;./src/main.c:78: draw(&(player.sprite));
   1EA8 F8 0F             10545 	ldhl	sp,#(16 - 1)
   1EAA 4E                10546 	ld	c, (hl)
   1EAB 23                10547 	inc	hl
   1EAC 46                10548 	ld	b, (hl)
   1EAD C5                10549 	push	bc
   1EAE CDr68r00          10550 	call	_draw
   1EB1 E8 02             10551 	add	sp, #2
                          10552 ;./src/main.c:80: win_condition(&player);
   1EB3 F8 0F             10553 	ldhl	sp,#(16 - 1)
   1EB5 4E                10554 	ld	c, (hl)
   1EB6 23                10555 	inc	hl
   1EB7 46                10556 	ld	b, (hl)
   1EB8 C5                10557 	push	bc
   1EB9 CDrB1r0D          10558 	call	_win_condition
   1EBC E8 02             10559 	add	sp, #2
                          10560 ;./src/main.c:84: performantdelay(5);
   1EBE 3E 05             10561 	ld	a, #0x05
   1EC0 F5                10562 	push	af
   1EC1 33                10563 	inc	sp
   1EC2 CDr8Er14          10564 	call	_performantdelay
   1EC5 33                10565 	inc	sp
   1EC6 C3r4Ar1E          10566 	jp	00105$
                          10567 ;./src/main.c:86: }
   1EC9 E8 13             10568 	add	sp, #19
   1ECB C9                10569 	ret
                          10570 	.area _CODE
                          10571 	.area _CABS (ABS)
