                              1 ;--------------------------------------------------------
                              2 ; File Created by SDCC : free open source ANSI-C Compiler
                              3 ; Version 4.0.0 #11528 (MINGW32)
                              4 ;--------------------------------------------------------
                              5 	.module C__Users_Thief3_AppData_Local_Temp_lcc43481
                              6 	.optsdcc -mgbz80
                              7 	
                              8 ;--------------------------------------------------------
                              9 ; Public variables in this module
                             10 ;--------------------------------------------------------
                             11 	.globl _main
                             12 	.globl _performantdelay
                             13 	.globl _teleporter_check
                             14 	.globl _death_check
                             15 	.globl _collision_check
                             16 	.globl _round_down
                             17 	.globl _round_up
                             18 	.globl _gravity
                             19 	.globl _win_condition
                             20 	.globl _set_map
                             21 	.globl _get_world_to_map
                             22 	.globl _jump
                             23 	.globl _player_movement
                             24 	.globl _next_animation
                             25 	.globl _update_position_split
                             26 	.globl _update_position
                             27 	.globl _draw
                             28 	.globl _BGB_profiler_message
                             29 	.globl _sprintf
                             30 	.globl _move_sprite
                             31 	.globl _set_sprite_tile
                             32 	.globl _set_sprite_data
                             33 	.globl _set_bkg_tiles
                             34 	.globl _set_bkg_data
                             35 	.globl _wait_vbl_done
                             36 	.globl _waitpad
                             37 	.globl _joypad
                             38 	.globl _delay
                             39 	.globl _gravity_time
                             40 	.globl _meta_maps
                             41 	.globl _current_world
                             42 	.globl _current_level
                             43 	.globl _BackgroundTiles
                             44 	.globl _MainChar
                             45 	.globl _splash_map
                             46 	.globl _splash_data
                             47 	.globl _you_win_map
                             48 	.globl _you_win_data
                             49 ;--------------------------------------------------------
                             50 ; special function registers
                             51 ;--------------------------------------------------------
                             52 ;--------------------------------------------------------
                             53 ; ram data
                             54 ;--------------------------------------------------------
                             55 	.area _DATA
   0000                      56 _MainChar::
   0000                      57 	.ds 48
   0030                      58 _BackgroundTiles::
   0030                      59 	.ds 192
   00F0                      60 _joypad_prev_state:
   00F0                      61 	.ds 1
   00F1                      62 _joypad_curr_state:
   00F1                      63 	.ds 1
   00F2                      64 _input_timer:
   00F2                      65 	.ds 1
   00F3                      66 ___BGB_PROFILER_INIT:
   00F3                      67 	.ds 2
   00F5                      68 _debug_buffer:
   00F5                      69 	.ds 512
   02F5                      70 _teleporter_active:
   02F5                      71 	.ds 1
   02F6                      72 _current_level::
   02F6                      73 	.ds 1
   02F7                      74 _current_world::
   02F7                      75 	.ds 1
   02F8                      76 _meta_maps::
   02F8                      77 	.ds 4
   02FC                      78 _gravity_time::
   02FC                      79 	.ds 1
                             80 ;--------------------------------------------------------
                             81 ; absolute external ram data
                             82 ;--------------------------------------------------------
                             83 	.area _DABS (ABS)
                             84 ;--------------------------------------------------------
                             85 ; global & static initialisations
                             86 ;--------------------------------------------------------
                             87 	.area _HOME
                             88 	.area _GSINIT
                             89 	.area _GSFINAL
                             90 	.area _GSINIT
                             91 ;./src/../sprites/char.c:26: unsigned char MainChar[] =
   0000 21r00r00             92 	ld	hl, #_MainChar
   0003 36 00                93 	ld	(hl), #0x00
   0005 21r01r00             94 	ld	hl, #(_MainChar + 0x0001)
   0008 36 00                95 	ld	(hl), #0x00
   000A 21r02r00             96 	ld	hl, #(_MainChar + 0x0002)
   000D 36 7E                97 	ld	(hl), #0x7e
   000F 21r03r00             98 	ld	hl, #(_MainChar + 0x0003)
   0012 36 7E                99 	ld	(hl), #0x7e
   0014 21r04r00            100 	ld	hl, #(_MainChar + 0x0004)
   0017 36 42               101 	ld	(hl), #0x42
   0019 21r05r00            102 	ld	hl, #(_MainChar + 0x0005)
   001C 36 76               103 	ld	(hl), #0x76
   001E 21r06r00            104 	ld	hl, #(_MainChar + 0x0006)
   0021 36 42               105 	ld	(hl), #0x42
   0023 21r07r00            106 	ld	hl, #(_MainChar + 0x0007)
   0026 36 76               107 	ld	(hl), #0x76
   0028 21r08r00            108 	ld	hl, #(_MainChar + 0x0008)
   002B 36 4A               109 	ld	(hl), #0x4a
   002D 21r09r00            110 	ld	hl, #(_MainChar + 0x0009)
   0030 36 4A               111 	ld	(hl), #0x4a
   0032 21r0Ar00            112 	ld	hl, #(_MainChar + 0x000a)
   0035 36 7E               113 	ld	(hl), #0x7e
   0037 21r0Br00            114 	ld	hl, #(_MainChar + 0x000b)
   003A 36 7E               115 	ld	(hl), #0x7e
   003C 21r0Cr00            116 	ld	hl, #(_MainChar + 0x000c)
   003F 36 36               117 	ld	(hl), #0x36
   0041 21r0Dr00            118 	ld	hl, #(_MainChar + 0x000d)
   0044 36 36               119 	ld	(hl), #0x36
   0046 21r0Er00            120 	ld	hl, #(_MainChar + 0x000e)
   0049 36 36               121 	ld	(hl), #0x36
   004B 21r0Fr00            122 	ld	hl, #(_MainChar + 0x000f)
   004E 36 36               123 	ld	(hl), #0x36
   0050 21r10r00            124 	ld	hl, #(_MainChar + 0x0010)
   0053 36 00               125 	ld	(hl), #0x00
   0055 21r11r00            126 	ld	hl, #(_MainChar + 0x0011)
   0058 36 00               127 	ld	(hl), #0x00
   005A 21r12r00            128 	ld	hl, #(_MainChar + 0x0012)
   005D 36 7E               129 	ld	(hl), #0x7e
   005F 21r13r00            130 	ld	hl, #(_MainChar + 0x0013)
   0062 36 7E               131 	ld	(hl), #0x7e
   0064 21r14r00            132 	ld	hl, #(_MainChar + 0x0014)
   0067 36 42               133 	ld	(hl), #0x42
   0069 21r15r00            134 	ld	hl, #(_MainChar + 0x0015)
   006C 36 76               135 	ld	(hl), #0x76
   006E 21r16r00            136 	ld	hl, #(_MainChar + 0x0016)
   0071 36 42               137 	ld	(hl), #0x42
   0073 21r17r00            138 	ld	hl, #(_MainChar + 0x0017)
   0076 36 76               139 	ld	(hl), #0x76
   0078 21r18r00            140 	ld	hl, #(_MainChar + 0x0018)
   007B 36 4A               141 	ld	(hl), #0x4a
   007D 21r19r00            142 	ld	hl, #(_MainChar + 0x0019)
   0080 36 4A               143 	ld	(hl), #0x4a
   0082 21r1Ar00            144 	ld	hl, #(_MainChar + 0x001a)
   0085 36 7E               145 	ld	(hl), #0x7e
   0087 21r1Br00            146 	ld	hl, #(_MainChar + 0x001b)
   008A 36 7E               147 	ld	(hl), #0x7e
   008C 21r1Cr00            148 	ld	hl, #(_MainChar + 0x001c)
   008F 36 36               149 	ld	(hl), #0x36
   0091 21r1Dr00            150 	ld	hl, #(_MainChar + 0x001d)
   0094 36 36               151 	ld	(hl), #0x36
   0096 21r1Er00            152 	ld	hl, #(_MainChar + 0x001e)
   0099 36 30               153 	ld	(hl), #0x30
   009B 21r1Fr00            154 	ld	hl, #(_MainChar + 0x001f)
   009E 36 30               155 	ld	(hl), #0x30
   00A0 21r20r00            156 	ld	hl, #(_MainChar + 0x0020)
   00A3 36 00               157 	ld	(hl), #0x00
   00A5 21r21r00            158 	ld	hl, #(_MainChar + 0x0021)
   00A8 36 00               159 	ld	(hl), #0x00
   00AA 21r22r00            160 	ld	hl, #(_MainChar + 0x0022)
   00AD 36 7E               161 	ld	(hl), #0x7e
   00AF 21r23r00            162 	ld	hl, #(_MainChar + 0x0023)
   00B2 36 7E               163 	ld	(hl), #0x7e
   00B4 21r24r00            164 	ld	hl, #(_MainChar + 0x0024)
   00B7 36 42               165 	ld	(hl), #0x42
   00B9 21r25r00            166 	ld	hl, #(_MainChar + 0x0025)
   00BC 36 76               167 	ld	(hl), #0x76
   00BE 21r26r00            168 	ld	hl, #(_MainChar + 0x0026)
   00C1 36 42               169 	ld	(hl), #0x42
   00C3 21r27r00            170 	ld	hl, #(_MainChar + 0x0027)
   00C6 36 76               171 	ld	(hl), #0x76
   00C8 21r28r00            172 	ld	hl, #(_MainChar + 0x0028)
   00CB 36 4A               173 	ld	(hl), #0x4a
   00CD 21r29r00            174 	ld	hl, #(_MainChar + 0x0029)
   00D0 36 4A               175 	ld	(hl), #0x4a
   00D2 21r2Ar00            176 	ld	hl, #(_MainChar + 0x002a)
   00D5 36 7E               177 	ld	(hl), #0x7e
   00D7 21r2Br00            178 	ld	hl, #(_MainChar + 0x002b)
   00DA 36 7E               179 	ld	(hl), #0x7e
   00DC 21r2Cr00            180 	ld	hl, #(_MainChar + 0x002c)
   00DF 36 36               181 	ld	(hl), #0x36
   00E1 21r2Dr00            182 	ld	hl, #(_MainChar + 0x002d)
   00E4 36 36               183 	ld	(hl), #0x36
   00E6 21r2Er00            184 	ld	hl, #(_MainChar + 0x002e)
   00E9 36 06               185 	ld	(hl), #0x06
   00EB 21r2Fr00            186 	ld	hl, #(_MainChar + 0x002f)
   00EE 36 06               187 	ld	(hl), #0x06
                            188 ;./src/../sprites/background.c:26: unsigned char BackgroundTiles[] =
   00F0 21r30r00            189 	ld	hl, #_BackgroundTiles
   00F3 36 00               190 	ld	(hl), #0x00
   00F5 21r31r00            191 	ld	hl, #(_BackgroundTiles + 0x0001)
   00F8 36 00               192 	ld	(hl), #0x00
   00FA 21r32r00            193 	ld	hl, #(_BackgroundTiles + 0x0002)
   00FD 36 00               194 	ld	(hl), #0x00
   00FF 21r33r00            195 	ld	hl, #(_BackgroundTiles + 0x0003)
   0102 36 00               196 	ld	(hl), #0x00
   0104 21r34r00            197 	ld	hl, #(_BackgroundTiles + 0x0004)
   0107 36 00               198 	ld	(hl), #0x00
   0109 21r35r00            199 	ld	hl, #(_BackgroundTiles + 0x0005)
   010C 36 00               200 	ld	(hl), #0x00
   010E 21r36r00            201 	ld	hl, #(_BackgroundTiles + 0x0006)
   0111 36 00               202 	ld	(hl), #0x00
   0113 21r37r00            203 	ld	hl, #(_BackgroundTiles + 0x0007)
   0116 36 00               204 	ld	(hl), #0x00
   0118 21r38r00            205 	ld	hl, #(_BackgroundTiles + 0x0008)
   011B 36 00               206 	ld	(hl), #0x00
   011D 21r39r00            207 	ld	hl, #(_BackgroundTiles + 0x0009)
   0120 36 00               208 	ld	(hl), #0x00
   0122 21r3Ar00            209 	ld	hl, #(_BackgroundTiles + 0x000a)
   0125 36 00               210 	ld	(hl), #0x00
   0127 21r3Br00            211 	ld	hl, #(_BackgroundTiles + 0x000b)
   012A 36 00               212 	ld	(hl), #0x00
   012C 21r3Cr00            213 	ld	hl, #(_BackgroundTiles + 0x000c)
   012F 36 00               214 	ld	(hl), #0x00
   0131 21r3Dr00            215 	ld	hl, #(_BackgroundTiles + 0x000d)
   0134 36 00               216 	ld	(hl), #0x00
   0136 21r3Er00            217 	ld	hl, #(_BackgroundTiles + 0x000e)
   0139 36 00               218 	ld	(hl), #0x00
   013B 21r3Fr00            219 	ld	hl, #(_BackgroundTiles + 0x000f)
   013E 36 00               220 	ld	(hl), #0x00
   0140 21r40r00            221 	ld	hl, #(_BackgroundTiles + 0x0010)
   0143 36 C0               222 	ld	(hl), #0xc0
   0145 21r41r00            223 	ld	hl, #(_BackgroundTiles + 0x0011)
   0148 36 C0               224 	ld	(hl), #0xc0
   014A 21r42r00            225 	ld	hl, #(_BackgroundTiles + 0x0012)
   014D 36 F0               226 	ld	(hl), #0xf0
   014F 21r43r00            227 	ld	hl, #(_BackgroundTiles + 0x0013)
   0152 36 F0               228 	ld	(hl), #0xf0
   0154 21r44r00            229 	ld	hl, #(_BackgroundTiles + 0x0014)
   0157 36 FC               230 	ld	(hl), #0xfc
   0159 21r45r00            231 	ld	hl, #(_BackgroundTiles + 0x0015)
   015C 36 FC               232 	ld	(hl), #0xfc
   015E 21r46r00            233 	ld	hl, #(_BackgroundTiles + 0x0016)
   0161 36 F8               234 	ld	(hl), #0xf8
   0163 21r47r00            235 	ld	hl, #(_BackgroundTiles + 0x0017)
   0166 36 F8               236 	ld	(hl), #0xf8
   0168 21r48r00            237 	ld	hl, #(_BackgroundTiles + 0x0018)
   016B 36 E0               238 	ld	(hl), #0xe0
   016D 21r49r00            239 	ld	hl, #(_BackgroundTiles + 0x0019)
   0170 36 E0               240 	ld	(hl), #0xe0
   0172 21r4Ar00            241 	ld	hl, #(_BackgroundTiles + 0x001a)
   0175 36 80               242 	ld	(hl), #0x80
   0177 21r4Br00            243 	ld	hl, #(_BackgroundTiles + 0x001b)
   017A 36 80               244 	ld	(hl), #0x80
   017C 21r4Cr00            245 	ld	hl, #(_BackgroundTiles + 0x001c)
   017F 36 80               246 	ld	(hl), #0x80
   0181 21r4Dr00            247 	ld	hl, #(_BackgroundTiles + 0x001d)
   0184 36 80               248 	ld	(hl), #0x80
   0186 21r4Er00            249 	ld	hl, #(_BackgroundTiles + 0x001e)
   0189 36 80               250 	ld	(hl), #0x80
   018B 21r4Fr00            251 	ld	hl, #(_BackgroundTiles + 0x001f)
   018E 36 80               252 	ld	(hl), #0x80
   0190 21r50r00            253 	ld	hl, #(_BackgroundTiles + 0x0020)
   0193 36 C0               254 	ld	(hl), #0xc0
   0195 21r51r00            255 	ld	hl, #(_BackgroundTiles + 0x0021)
   0198 36 C0               256 	ld	(hl), #0xc0
   019A 21r52r00            257 	ld	hl, #(_BackgroundTiles + 0x0022)
   019D 36 C0               258 	ld	(hl), #0xc0
   019F 21r53r00            259 	ld	hl, #(_BackgroundTiles + 0x0023)
   01A2 36 C0               260 	ld	(hl), #0xc0
   01A4 21r54r00            261 	ld	hl, #(_BackgroundTiles + 0x0024)
   01A7 36 C0               262 	ld	(hl), #0xc0
   01A9 21r55r00            263 	ld	hl, #(_BackgroundTiles + 0x0025)
   01AC 36 C0               264 	ld	(hl), #0xc0
   01AE 21r56r00            265 	ld	hl, #(_BackgroundTiles + 0x0026)
   01B1 36 C0               266 	ld	(hl), #0xc0
   01B3 21r57r00            267 	ld	hl, #(_BackgroundTiles + 0x0027)
   01B6 36 C0               268 	ld	(hl), #0xc0
   01B8 21r58r00            269 	ld	hl, #(_BackgroundTiles + 0x0028)
   01BB 36 C0               270 	ld	(hl), #0xc0
   01BD 21r59r00            271 	ld	hl, #(_BackgroundTiles + 0x0029)
   01C0 36 C0               272 	ld	(hl), #0xc0
   01C2 21r5Ar00            273 	ld	hl, #(_BackgroundTiles + 0x002a)
   01C5 36 C0               274 	ld	(hl), #0xc0
   01C7 21r5Br00            275 	ld	hl, #(_BackgroundTiles + 0x002b)
   01CA 36 C0               276 	ld	(hl), #0xc0
   01CC 21r5Cr00            277 	ld	hl, #(_BackgroundTiles + 0x002c)
   01CF 36 C0               278 	ld	(hl), #0xc0
   01D1 21r5Dr00            279 	ld	hl, #(_BackgroundTiles + 0x002d)
   01D4 36 C0               280 	ld	(hl), #0xc0
   01D6 21r5Er00            281 	ld	hl, #(_BackgroundTiles + 0x002e)
   01D9 36 C0               282 	ld	(hl), #0xc0
   01DB 21r5Fr00            283 	ld	hl, #(_BackgroundTiles + 0x002f)
   01DE 36 C0               284 	ld	(hl), #0xc0
   01E0 21r60r00            285 	ld	hl, #(_BackgroundTiles + 0x0030)
   01E3 36 FF               286 	ld	(hl), #0xff
   01E5 21r61r00            287 	ld	hl, #(_BackgroundTiles + 0x0031)
   01E8 36 FF               288 	ld	(hl), #0xff
   01EA 21r62r00            289 	ld	hl, #(_BackgroundTiles + 0x0032)
   01ED 36 FF               290 	ld	(hl), #0xff
   01EF 21r63r00            291 	ld	hl, #(_BackgroundTiles + 0x0033)
   01F2 36 FF               292 	ld	(hl), #0xff
   01F4 21r64r00            293 	ld	hl, #(_BackgroundTiles + 0x0034)
   01F7 36 FF               294 	ld	(hl), #0xff
   01F9 21r65r00            295 	ld	hl, #(_BackgroundTiles + 0x0035)
   01FC 36 FF               296 	ld	(hl), #0xff
   01FE 21r66r00            297 	ld	hl, #(_BackgroundTiles + 0x0036)
   0201 36 FF               298 	ld	(hl), #0xff
   0203 21r67r00            299 	ld	hl, #(_BackgroundTiles + 0x0037)
   0206 36 FF               300 	ld	(hl), #0xff
   0208 21r68r00            301 	ld	hl, #(_BackgroundTiles + 0x0038)
   020B 36 FF               302 	ld	(hl), #0xff
   020D 21r69r00            303 	ld	hl, #(_BackgroundTiles + 0x0039)
   0210 36 FF               304 	ld	(hl), #0xff
   0212 21r6Ar00            305 	ld	hl, #(_BackgroundTiles + 0x003a)
   0215 36 FF               306 	ld	(hl), #0xff
   0217 21r6Br00            307 	ld	hl, #(_BackgroundTiles + 0x003b)
   021A 36 FF               308 	ld	(hl), #0xff
   021C 21r6Cr00            309 	ld	hl, #(_BackgroundTiles + 0x003c)
   021F 36 FF               310 	ld	(hl), #0xff
   0221 21r6Dr00            311 	ld	hl, #(_BackgroundTiles + 0x003d)
   0224 36 FF               312 	ld	(hl), #0xff
   0226 21r6Er00            313 	ld	hl, #(_BackgroundTiles + 0x003e)
   0229 36 FF               314 	ld	(hl), #0xff
   022B 21r6Fr00            315 	ld	hl, #(_BackgroundTiles + 0x003f)
   022E 36 FF               316 	ld	(hl), #0xff
   0230 21r70r00            317 	ld	hl, #(_BackgroundTiles + 0x0040)
   0233 36 00               318 	ld	(hl), #0x00
   0235 21r71r00            319 	ld	hl, #(_BackgroundTiles + 0x0041)
   0238 36 FF               320 	ld	(hl), #0xff
   023A 21r72r00            321 	ld	hl, #(_BackgroundTiles + 0x0042)
   023D 36 00               322 	ld	(hl), #0x00
   023F 21r73r00            323 	ld	hl, #(_BackgroundTiles + 0x0043)
   0242 36 FF               324 	ld	(hl), #0xff
   0244 21r74r00            325 	ld	hl, #(_BackgroundTiles + 0x0044)
   0247 36 00               326 	ld	(hl), #0x00
   0249 21r75r00            327 	ld	hl, #(_BackgroundTiles + 0x0045)
   024C 36 FF               328 	ld	(hl), #0xff
   024E 21r76r00            329 	ld	hl, #(_BackgroundTiles + 0x0046)
   0251 36 00               330 	ld	(hl), #0x00
   0253 21r77r00            331 	ld	hl, #(_BackgroundTiles + 0x0047)
   0256 36 FF               332 	ld	(hl), #0xff
   0258 21r78r00            333 	ld	hl, #(_BackgroundTiles + 0x0048)
   025B 36 00               334 	ld	(hl), #0x00
   025D 21r79r00            335 	ld	hl, #(_BackgroundTiles + 0x0049)
   0260 36 FF               336 	ld	(hl), #0xff
   0262 21r7Ar00            337 	ld	hl, #(_BackgroundTiles + 0x004a)
   0265 36 00               338 	ld	(hl), #0x00
   0267 21r7Br00            339 	ld	hl, #(_BackgroundTiles + 0x004b)
   026A 36 FF               340 	ld	(hl), #0xff
   026C 21r7Cr00            341 	ld	hl, #(_BackgroundTiles + 0x004c)
   026F 36 00               342 	ld	(hl), #0x00
   0271 21r7Dr00            343 	ld	hl, #(_BackgroundTiles + 0x004d)
   0274 36 FF               344 	ld	(hl), #0xff
   0276 21r7Er00            345 	ld	hl, #(_BackgroundTiles + 0x004e)
   0279 36 00               346 	ld	(hl), #0x00
   027B 21r7Fr00            347 	ld	hl, #(_BackgroundTiles + 0x004f)
   027E 36 FF               348 	ld	(hl), #0xff
   0280 21r80r00            349 	ld	hl, #(_BackgroundTiles + 0x0050)
   0283 36 18               350 	ld	(hl), #0x18
   0285 21r81r00            351 	ld	hl, #(_BackgroundTiles + 0x0051)
   0288 36 18               352 	ld	(hl), #0x18
   028A 21r82r00            353 	ld	hl, #(_BackgroundTiles + 0x0052)
   028D 36 3C               354 	ld	(hl), #0x3c
   028F 21r83r00            355 	ld	hl, #(_BackgroundTiles + 0x0053)
   0292 36 3C               356 	ld	(hl), #0x3c
   0294 21r84r00            357 	ld	hl, #(_BackgroundTiles + 0x0054)
   0297 36 3C               358 	ld	(hl), #0x3c
   0299 21r85r00            359 	ld	hl, #(_BackgroundTiles + 0x0055)
   029C 36 3C               360 	ld	(hl), #0x3c
   029E 21r86r00            361 	ld	hl, #(_BackgroundTiles + 0x0056)
   02A1 36 7E               362 	ld	(hl), #0x7e
   02A3 21r87r00            363 	ld	hl, #(_BackgroundTiles + 0x0057)
   02A6 36 7E               364 	ld	(hl), #0x7e
   02A8 21r88r00            365 	ld	hl, #(_BackgroundTiles + 0x0058)
   02AB 36 7E               366 	ld	(hl), #0x7e
   02AD 21r89r00            367 	ld	hl, #(_BackgroundTiles + 0x0059)
   02B0 36 7E               368 	ld	(hl), #0x7e
   02B2 21r8Ar00            369 	ld	hl, #(_BackgroundTiles + 0x005a)
   02B5 36 FF               370 	ld	(hl), #0xff
   02B7 21r8Br00            371 	ld	hl, #(_BackgroundTiles + 0x005b)
   02BA 36 FF               372 	ld	(hl), #0xff
   02BC 21r8Cr00            373 	ld	hl, #(_BackgroundTiles + 0x005c)
   02BF 36 FF               374 	ld	(hl), #0xff
   02C1 21r8Dr00            375 	ld	hl, #(_BackgroundTiles + 0x005d)
   02C4 36 FF               376 	ld	(hl), #0xff
   02C6 21r8Er00            377 	ld	hl, #(_BackgroundTiles + 0x005e)
   02C9 36 FF               378 	ld	(hl), #0xff
   02CB 21r8Fr00            379 	ld	hl, #(_BackgroundTiles + 0x005f)
   02CE 36 FF               380 	ld	(hl), #0xff
   02D0 21r90r00            381 	ld	hl, #(_BackgroundTiles + 0x0060)
   02D3 36 E0               382 	ld	(hl), #0xe0
   02D5 21r91r00            383 	ld	hl, #(_BackgroundTiles + 0x0061)
   02D8 36 E0               384 	ld	(hl), #0xe0
   02DA 21r92r00            385 	ld	hl, #(_BackgroundTiles + 0x0062)
   02DD 36 F8               386 	ld	(hl), #0xf8
   02DF 21r93r00            387 	ld	hl, #(_BackgroundTiles + 0x0063)
   02E2 36 F8               388 	ld	(hl), #0xf8
   02E4 21r94r00            389 	ld	hl, #(_BackgroundTiles + 0x0064)
   02E7 36 FE               390 	ld	(hl), #0xfe
   02E9 21r95r00            391 	ld	hl, #(_BackgroundTiles + 0x0065)
   02EC 36 FE               392 	ld	(hl), #0xfe
   02EE 21r96r00            393 	ld	hl, #(_BackgroundTiles + 0x0066)
   02F1 36 FF               394 	ld	(hl), #0xff
   02F3 21r97r00            395 	ld	hl, #(_BackgroundTiles + 0x0067)
   02F6 36 FF               396 	ld	(hl), #0xff
   02F8 21r98r00            397 	ld	hl, #(_BackgroundTiles + 0x0068)
   02FB 36 FF               398 	ld	(hl), #0xff
   02FD 21r99r00            399 	ld	hl, #(_BackgroundTiles + 0x0069)
   0300 36 FF               400 	ld	(hl), #0xff
   0302 21r9Ar00            401 	ld	hl, #(_BackgroundTiles + 0x006a)
   0305 36 FE               402 	ld	(hl), #0xfe
   0307 21r9Br00            403 	ld	hl, #(_BackgroundTiles + 0x006b)
   030A 36 FE               404 	ld	(hl), #0xfe
   030C 21r9Cr00            405 	ld	hl, #(_BackgroundTiles + 0x006c)
   030F 36 F8               406 	ld	(hl), #0xf8
   0311 21r9Dr00            407 	ld	hl, #(_BackgroundTiles + 0x006d)
   0314 36 F8               408 	ld	(hl), #0xf8
   0316 21r9Er00            409 	ld	hl, #(_BackgroundTiles + 0x006e)
   0319 36 E0               410 	ld	(hl), #0xe0
   031B 21r9Fr00            411 	ld	hl, #(_BackgroundTiles + 0x006f)
   031E 36 E0               412 	ld	(hl), #0xe0
   0320 21rA0r00            413 	ld	hl, #(_BackgroundTiles + 0x0070)
   0323 36 FF               414 	ld	(hl), #0xff
   0325 21rA1r00            415 	ld	hl, #(_BackgroundTiles + 0x0071)
   0328 36 FF               416 	ld	(hl), #0xff
   032A 21rA2r00            417 	ld	hl, #(_BackgroundTiles + 0x0072)
   032D 36 FF               418 	ld	(hl), #0xff
   032F 21rA3r00            419 	ld	hl, #(_BackgroundTiles + 0x0073)
   0332 36 FF               420 	ld	(hl), #0xff
   0334 21rA4r00            421 	ld	hl, #(_BackgroundTiles + 0x0074)
   0337 36 FF               422 	ld	(hl), #0xff
   0339 21rA5r00            423 	ld	hl, #(_BackgroundTiles + 0x0075)
   033C 36 FF               424 	ld	(hl), #0xff
   033E 21rA6r00            425 	ld	hl, #(_BackgroundTiles + 0x0076)
   0341 36 7E               426 	ld	(hl), #0x7e
   0343 21rA7r00            427 	ld	hl, #(_BackgroundTiles + 0x0077)
   0346 36 7E               428 	ld	(hl), #0x7e
   0348 21rA8r00            429 	ld	hl, #(_BackgroundTiles + 0x0078)
   034B 36 7E               430 	ld	(hl), #0x7e
   034D 21rA9r00            431 	ld	hl, #(_BackgroundTiles + 0x0079)
   0350 36 7E               432 	ld	(hl), #0x7e
   0352 21rAAr00            433 	ld	hl, #(_BackgroundTiles + 0x007a)
   0355 36 3C               434 	ld	(hl), #0x3c
   0357 21rABr00            435 	ld	hl, #(_BackgroundTiles + 0x007b)
   035A 36 3C               436 	ld	(hl), #0x3c
   035C 21rACr00            437 	ld	hl, #(_BackgroundTiles + 0x007c)
   035F 36 3C               438 	ld	(hl), #0x3c
   0361 21rADr00            439 	ld	hl, #(_BackgroundTiles + 0x007d)
   0364 36 3C               440 	ld	(hl), #0x3c
   0366 21rAEr00            441 	ld	hl, #(_BackgroundTiles + 0x007e)
   0369 36 18               442 	ld	(hl), #0x18
   036B 21rAFr00            443 	ld	hl, #(_BackgroundTiles + 0x007f)
   036E 36 18               444 	ld	(hl), #0x18
   0370 21rB0r00            445 	ld	hl, #(_BackgroundTiles + 0x0080)
   0373 36 07               446 	ld	(hl), #0x07
   0375 21rB1r00            447 	ld	hl, #(_BackgroundTiles + 0x0081)
   0378 36 07               448 	ld	(hl), #0x07
   037A 21rB2r00            449 	ld	hl, #(_BackgroundTiles + 0x0082)
   037D 36 1F               450 	ld	(hl), #0x1f
   037F 21rB3r00            451 	ld	hl, #(_BackgroundTiles + 0x0083)
   0382 36 1F               452 	ld	(hl), #0x1f
   0384 21rB4r00            453 	ld	hl, #(_BackgroundTiles + 0x0084)
   0387 36 7F               454 	ld	(hl), #0x7f
   0389 21rB5r00            455 	ld	hl, #(_BackgroundTiles + 0x0085)
   038C 36 7F               456 	ld	(hl), #0x7f
   038E 21rB6r00            457 	ld	hl, #(_BackgroundTiles + 0x0086)
   0391 36 FF               458 	ld	(hl), #0xff
   0393 21rB7r00            459 	ld	hl, #(_BackgroundTiles + 0x0087)
   0396 36 FF               460 	ld	(hl), #0xff
   0398 21rB8r00            461 	ld	hl, #(_BackgroundTiles + 0x0088)
   039B 36 FF               462 	ld	(hl), #0xff
   039D 21rB9r00            463 	ld	hl, #(_BackgroundTiles + 0x0089)
   03A0 36 FF               464 	ld	(hl), #0xff
   03A2 21rBAr00            465 	ld	hl, #(_BackgroundTiles + 0x008a)
   03A5 36 7F               466 	ld	(hl), #0x7f
   03A7 21rBBr00            467 	ld	hl, #(_BackgroundTiles + 0x008b)
   03AA 36 7F               468 	ld	(hl), #0x7f
   03AC 21rBCr00            469 	ld	hl, #(_BackgroundTiles + 0x008c)
   03AF 36 1F               470 	ld	(hl), #0x1f
   03B1 21rBDr00            471 	ld	hl, #(_BackgroundTiles + 0x008d)
   03B4 36 1F               472 	ld	(hl), #0x1f
   03B6 21rBEr00            473 	ld	hl, #(_BackgroundTiles + 0x008e)
   03B9 36 07               474 	ld	(hl), #0x07
   03BB 21rBFr00            475 	ld	hl, #(_BackgroundTiles + 0x008f)
   03BE 36 07               476 	ld	(hl), #0x07
   03C0 21rC0r00            477 	ld	hl, #(_BackgroundTiles + 0x0090)
   03C3 36 3C               478 	ld	(hl), #0x3c
   03C5 21rC1r00            479 	ld	hl, #(_BackgroundTiles + 0x0091)
   03C8 36 00               480 	ld	(hl), #0x00
   03CA 21rC2r00            481 	ld	hl, #(_BackgroundTiles + 0x0092)
   03CD 36 3C               482 	ld	(hl), #0x3c
   03CF 21rC3r00            483 	ld	hl, #(_BackgroundTiles + 0x0093)
   03D2 36 00               484 	ld	(hl), #0x00
   03D4 21rC4r00            485 	ld	hl, #(_BackgroundTiles + 0x0094)
   03D7 36 3C               486 	ld	(hl), #0x3c
   03D9 21rC5r00            487 	ld	hl, #(_BackgroundTiles + 0x0095)
   03DC 36 00               488 	ld	(hl), #0x00
   03DE 21rC6r00            489 	ld	hl, #(_BackgroundTiles + 0x0096)
   03E1 36 3C               490 	ld	(hl), #0x3c
   03E3 21rC7r00            491 	ld	hl, #(_BackgroundTiles + 0x0097)
   03E6 36 00               492 	ld	(hl), #0x00
   03E8 21rC8r00            493 	ld	hl, #(_BackgroundTiles + 0x0098)
   03EB 36 7E               494 	ld	(hl), #0x7e
   03ED 21rC9r00            495 	ld	hl, #(_BackgroundTiles + 0x0099)
   03F0 36 42               496 	ld	(hl), #0x42
   03F2 21rCAr00            497 	ld	hl, #(_BackgroundTiles + 0x009a)
   03F5 36 7E               498 	ld	(hl), #0x7e
   03F7 21rCBr00            499 	ld	hl, #(_BackgroundTiles + 0x009b)
   03FA 36 42               500 	ld	(hl), #0x42
   03FC 21rCCr00            501 	ld	hl, #(_BackgroundTiles + 0x009c)
   03FF 36 42               502 	ld	(hl), #0x42
   0401 21rCDr00            503 	ld	hl, #(_BackgroundTiles + 0x009d)
   0404 36 7E               504 	ld	(hl), #0x7e
   0406 21rCEr00            505 	ld	hl, #(_BackgroundTiles + 0x009e)
   0409 36 81               506 	ld	(hl), #0x81
   040B 21rCFr00            507 	ld	hl, #(_BackgroundTiles + 0x009f)
   040E 36 FF               508 	ld	(hl), #0xff
   0410 21rD0r00            509 	ld	hl, #(_BackgroundTiles + 0x00a0)
   0413 36 3C               510 	ld	(hl), #0x3c
   0415 21rD1r00            511 	ld	hl, #(_BackgroundTiles + 0x00a1)
   0418 36 00               512 	ld	(hl), #0x00
   041A 21rD2r00            513 	ld	hl, #(_BackgroundTiles + 0x00a2)
   041D 36 3C               514 	ld	(hl), #0x3c
   041F 21rD3r00            515 	ld	hl, #(_BackgroundTiles + 0x00a3)
   0422 36 00               516 	ld	(hl), #0x00
   0424 21rD4r00            517 	ld	hl, #(_BackgroundTiles + 0x00a4)
   0427 36 3C               518 	ld	(hl), #0x3c
   0429 21rD5r00            519 	ld	hl, #(_BackgroundTiles + 0x00a5)
   042C 36 00               520 	ld	(hl), #0x00
   042E 21rD6r00            521 	ld	hl, #(_BackgroundTiles + 0x00a6)
   0431 36 3C               522 	ld	(hl), #0x3c
   0433 21rD7r00            523 	ld	hl, #(_BackgroundTiles + 0x00a7)
   0436 36 00               524 	ld	(hl), #0x00
   0438 21rD8r00            525 	ld	hl, #(_BackgroundTiles + 0x00a8)
   043B 36 7E               526 	ld	(hl), #0x7e
   043D 21rD9r00            527 	ld	hl, #(_BackgroundTiles + 0x00a9)
   0440 36 42               528 	ld	(hl), #0x42
   0442 21rDAr00            529 	ld	hl, #(_BackgroundTiles + 0x00aa)
   0445 36 7E               530 	ld	(hl), #0x7e
   0447 21rDBr00            531 	ld	hl, #(_BackgroundTiles + 0x00ab)
   044A 36 42               532 	ld	(hl), #0x42
   044C 21rDCr00            533 	ld	hl, #(_BackgroundTiles + 0x00ac)
   044F 36 42               534 	ld	(hl), #0x42
   0451 21rDDr00            535 	ld	hl, #(_BackgroundTiles + 0x00ad)
   0454 36 7E               536 	ld	(hl), #0x7e
   0456 21rDEr00            537 	ld	hl, #(_BackgroundTiles + 0x00ae)
   0459 36 81               538 	ld	(hl), #0x81
   045B 21rDFr00            539 	ld	hl, #(_BackgroundTiles + 0x00af)
   045E 36 FF               540 	ld	(hl), #0xff
   0460 21rE0r00            541 	ld	hl, #(_BackgroundTiles + 0x00b0)
   0463 36 3C               542 	ld	(hl), #0x3c
   0465 21rE1r00            543 	ld	hl, #(_BackgroundTiles + 0x00b1)
   0468 36 00               544 	ld	(hl), #0x00
   046A 21rE2r00            545 	ld	hl, #(_BackgroundTiles + 0x00b2)
   046D 36 3C               546 	ld	(hl), #0x3c
   046F 21rE3r00            547 	ld	hl, #(_BackgroundTiles + 0x00b3)
   0472 36 00               548 	ld	(hl), #0x00
   0474 21rE4r00            549 	ld	hl, #(_BackgroundTiles + 0x00b4)
   0477 36 3C               550 	ld	(hl), #0x3c
   0479 21rE5r00            551 	ld	hl, #(_BackgroundTiles + 0x00b5)
   047C 36 00               552 	ld	(hl), #0x00
   047E 21rE6r00            553 	ld	hl, #(_BackgroundTiles + 0x00b6)
   0481 36 3C               554 	ld	(hl), #0x3c
   0483 21rE7r00            555 	ld	hl, #(_BackgroundTiles + 0x00b7)
   0486 36 00               556 	ld	(hl), #0x00
   0488 21rE8r00            557 	ld	hl, #(_BackgroundTiles + 0x00b8)
   048B 36 7E               558 	ld	(hl), #0x7e
   048D 21rE9r00            559 	ld	hl, #(_BackgroundTiles + 0x00b9)
   0490 36 42               560 	ld	(hl), #0x42
   0492 21rEAr00            561 	ld	hl, #(_BackgroundTiles + 0x00ba)
   0495 36 7E               562 	ld	(hl), #0x7e
   0497 21rEBr00            563 	ld	hl, #(_BackgroundTiles + 0x00bb)
   049A 36 42               564 	ld	(hl), #0x42
   049C 21rECr00            565 	ld	hl, #(_BackgroundTiles + 0x00bc)
   049F 36 42               566 	ld	(hl), #0x42
   04A1 21rEDr00            567 	ld	hl, #(_BackgroundTiles + 0x00bd)
   04A4 36 7E               568 	ld	(hl), #0x7e
   04A6 21rEEr00            569 	ld	hl, #(_BackgroundTiles + 0x00be)
   04A9 36 81               570 	ld	(hl), #0x81
   04AB 21rEFr00            571 	ld	hl, #(_BackgroundTiles + 0x00bf)
   04AE 36 FF               572 	ld	(hl), #0xff
                            573 ;d:/Programming/C++/GameBoyJam/gbdk/include/gb/bgb_emu.h:42: static void * __BGB_PROFILER_INIT = &BGB_profiler_message;
   04B0 21rF3r00            574 	ld	hl, #___BGB_PROFILER_INIT
   04B3 36r00               575 	ld	(hl), #<(_BGB_profiler_message)
   04B5 23                  576 	inc	hl
   04B6 36s00               577 	ld	(hl), #>(_BGB_profiler_message)
                            578 ;./src/./player.c:2: static bool teleporter_active = true;
   04B8 21rF5r02            579 	ld	hl, #_teleporter_active
   04BB 36 01               580 	ld	(hl), #0x01
                            581 ;./src/./maps.c:20: UINT8 current_level = 0;
   04BD 21rF6r02            582 	ld	hl, #_current_level
   04C0 36 00               583 	ld	(hl), #0x00
                            584 ;./src/./maps.c:21: UINT8 current_world = 0;
   04C2 21rF7r02            585 	ld	hl, #_current_world
   04C5 36 00               586 	ld	(hl), #0x00
                            587 ;./src/./physics.c:2: UINT8 gravity_time = 0;
   04C7 21rFCr02            588 	ld	hl, #_gravity_time
   04CA 36 00               589 	ld	(hl), #0x00
                            590 ;--------------------------------------------------------
                            591 ; Home
                            592 ;--------------------------------------------------------
                            593 	.area _HOME
                            594 	.area _HOME
                            595 ;--------------------------------------------------------
                            596 ; code
                            597 ;--------------------------------------------------------
                            598 	.area _CODE
                            599 ;./src/../src/input.c:93: static void joypad_wait (UINT8 buttons)
                            600 ;	---------------------------------
                            601 ; Function joypad_wait
                            602 ; ---------------------------------
   0000                     603 _joypad_wait:
                            604 ;./src/../src/input.c:95: while (TRUE) {
   0000                     605 00108$:
                            606 ;./src/../src/input.c:96: UPDATE_JOYPAD_STATE;
   0000 E5                  607 	push	hl
   0001 21rF1r00            608 	ld	hl, #_joypad_curr_state
   0004 7E                  609 	ld	a, (hl)
   0005 21rF0r00            610 	ld	hl, #_joypad_prev_state
   0008 77                  611 	ld	(hl), a
   0009 E1                  612 	pop	hl
   000A CDr00r00            613 	call	_joypad
   000D 21rF1r00            614 	ld	hl, #_joypad_curr_state
   0010 73                  615 	ld	(hl), e
                            616 ;./src/../src/input.c:97: if (JOYPAD_PRESSED(buttons)) {
   0011 21rF0r00            617 	ld	hl, #_joypad_prev_state
   0014 7E                  618 	ld	a, (hl)
   0015 F8 02               619 	ldhl	sp,	#2
   0017 A6                  620 	and	a,(hl)
   0018 20 08               621 	jr	NZ,00105$
   001A 21rF1r00            622 	ld	hl, #_joypad_curr_state
   001D 7E                  623 	ld	a, (hl)
   001E F8 02               624 	ldhl	sp,	#2
   0020 A6                  625 	and	a,(hl)
   0021 C0                  626 	ret	NZ
                            627 ;./src/../src/input.c:98: break;
   0022                     628 00105$:
                            629 ;./src/../src/input.c:100: wait_vbl_done();
   0022 CDr00r00            630 	call	_wait_vbl_done
   0025 18 D9               631 	jr	00108$
                            632 ;./src/../src/input.c:102: }
   0027 C9                  633 	ret
                            634 ;./src/../src/input.c:105: static bool joypad_waittimeout (UINT8 buttons, UINT8 timeout)
                            635 ;	---------------------------------
                            636 ; Function joypad_waittimeout
                            637 ; ---------------------------------
   0028                     638 _joypad_waittimeout:
                            639 ;./src/../src/input.c:107: for (input_timer=0; input_timer<timeout; ++input_timer) {
   0028 21rF2r00            640 	ld	hl, #_input_timer
   002B 36 00               641 	ld	(hl), #0x00
   002D                     642 00109$:
   002D 21rF2r00            643 	ld	hl, #_input_timer
   0030 7E                  644 	ld	a, (hl)
   0031 F8 03               645 	ldhl	sp,	#3
   0033 96                  646 	sub	a, (hl)
   0034 30 2F               647 	jr	NC,00107$
                            648 ;./src/../src/input.c:108: UPDATE_JOYPAD_STATE;
   0036 E5                  649 	push	hl
   0037 21rF1r00            650 	ld	hl, #_joypad_curr_state
   003A 7E                  651 	ld	a, (hl)
   003B 21rF0r00            652 	ld	hl, #_joypad_prev_state
   003E 77                  653 	ld	(hl), a
   003F E1                  654 	pop	hl
   0040 CDr00r00            655 	call	_joypad
   0043 21rF1r00            656 	ld	hl, #_joypad_curr_state
   0046 73                  657 	ld	(hl), e
                            658 ;./src/../src/input.c:109: if (JOYPAD_PRESSED(buttons)) {
   0047 21rF0r00            659 	ld	hl, #_joypad_prev_state
   004A 7E                  660 	ld	a, (hl)
   004B F8 02               661 	ldhl	sp,	#2
   004D A6                  662 	and	a,(hl)
   004E 20 0C               663 	jr	NZ,00105$
   0050 21rF1r00            664 	ld	hl, #_joypad_curr_state
   0053 7E                  665 	ld	a, (hl)
   0054 F8 02               666 	ldhl	sp,	#2
   0056 A6                  667 	and	a,(hl)
   0057 28 03               668 	jr	Z,00105$
                            669 ;./src/../src/input.c:110: return TRUE;
   0059 1E 01               670 	ld	e, #0x01
   005B C9                  671 	ret
   005C                     672 00105$:
                            673 ;./src/../src/input.c:112: wait_vbl_done();
   005C CDr00r00            674 	call	_wait_vbl_done
                            675 ;./src/../src/input.c:107: for (input_timer=0; input_timer<timeout; ++input_timer) {
   005F 21rF2r00            676 	ld	hl, #_input_timer
   0062 34                  677 	inc	(hl)
   0063 18 C8               678 	jr	00109$
   0065                     679 00107$:
                            680 ;./src/../src/input.c:114: return FALSE;
   0065 1E 00               681 	ld	e, #0x00
                            682 ;./src/../src/input.c:115: }
   0067 C9                  683 	ret
                            684 ;./src/./sprites.c:19: void draw(MSprite* sprite){
                            685 ;	---------------------------------
                            686 ; Function draw
                            687 ; ---------------------------------
   0068                     688 _draw::
   0068 E8 FB               689 	add	sp, #-5
                            690 ;./src/./sprites.c:21: move_sprite(sprite->sprite_number, sprite->position.x, sprite->position.y);
   006A F8 07               691 	ldhl	sp,#(8 - 1)
   006C 4E                  692 	ld	c, (hl)
   006D 23                  693 	inc	hl
   006E 46                  694 	ld	b, (hl)
   006F 21 01 00            695 	ld	hl, #0x0001
   0072 09                  696 	add	hl, bc
   0073 33                  697 	inc	sp
   0074 33                  698 	inc	sp
   0075 E5                  699 	push	hl
   0076 D1                  700 	pop	de
   0077 D5                  701 	push	de
   0078 1A                  702 	ld	a,(de)
   0079 F8 03               703 	ldhl	sp,	#3
   007B 77                  704 	ld	(hl), a
   007C 0A                  705 	ld	a, (bc)
   007D 23                  706 	inc	hl
   007E 77                  707 	ld	(hl), a
   007F 03                  708 	inc	bc
   0080 03                  709 	inc	bc
   0081 03                  710 	inc	bc
   0082 03                  711 	inc	bc
   0083 0A                  712 	ld	a, (bc)
   0084 47                  713 	ld	b, a
   0085 2B                  714 	dec	hl
   0086 7E                  715 	ld	a, (hl)
   0087 F5                  716 	push	af
   0088 33                  717 	inc	sp
   0089 23                  718 	inc	hl
   008A 7E                  719 	ld	a, (hl)
   008B F5                  720 	push	af
   008C 33                  721 	inc	sp
   008D C5                  722 	push	bc
   008E 33                  723 	inc	sp
   008F CDr00r00            724 	call	_move_sprite
   0092 E8 03               725 	add	sp, #3
                            726 ;./src/./sprites.c:22: }
   0094 E8 05               727 	add	sp, #5
   0096 C9                  728 	ret
                            729 ;./src/./sprites.c:25: void update_position(MSprite* sprite){
                            730 ;	---------------------------------
                            731 ; Function update_position
                            732 ; ---------------------------------
   0097                     733 _update_position::
   0097 E8 F8               734 	add	sp, #-8
                            735 ;./src/./sprites.c:27: if(!(sprite->col.direction.x == -1 && sprite->speed.x < 0) &&
   0099 F8 0A               736 	ldhl	sp,	#10
   009B 2A                  737 	ld	a, (hl+)
   009C 5E                  738 	ld	e, (hl)
   009D F8 00               739 	ldhl	sp,	#0
   009F 22                  740 	ld	(hl+), a
   00A0 73                  741 	ld	(hl), e
   00A1 D1                  742 	pop	de
   00A2 D5                  743 	push	de
   00A3 21 0A 00            744 	ld	hl, #0x000a
   00A6 19                  745 	add	hl, de
   00A7 4D                  746 	ld	c, l
   00A8 44                  747 	ld	b, h
   00A9 59                  748 	ld	e, c
   00AA 50                  749 	ld	d, b
   00AB 1A                  750 	ld	a,(de)
   00AC F8 02               751 	ldhl	sp,	#2
   00AE 22                  752 	ld	(hl+), a
   00AF 13                  753 	inc	de
   00B0 1A                  754 	ld	a, (de)
   00B1 77                  755 	ld	(hl), a
   00B2 D1                  756 	pop	de
   00B3 D5                  757 	push	de
   00B4 21 05 00            758 	ld	hl, #0x0005
   00B7 19                  759 	add	hl, de
   00B8 7D                  760 	ld	a, l
   00B9 54                  761 	ld	d, h
   00BA F8 04               762 	ldhl	sp,	#4
   00BC 22                  763 	ld	(hl+), a
   00BD 72                  764 	ld	(hl), d
   00BE 2B                  765 	dec	hl
   00BF 5E                  766 	ld	e, (hl)
   00C0 23                  767 	inc	hl
   00C1 56                  768 	ld	d, (hl)
   00C2 1A                  769 	ld	a,(de)
   00C3 23                  770 	inc	hl
   00C4 22                  771 	ld	(hl+), a
   00C5 13                  772 	inc	de
   00C6 1A                  773 	ld	a, (de)
   00C7 77                  774 	ld	(hl), a
   00C8 F8 02               775 	ldhl	sp,	#2
   00CA 2A                  776 	ld	a, (hl+)
   00CB A6                  777 	and	a, (hl)
   00CC 3C                  778 	inc	a
   00CD 20 20               779 	jr	NZ,00106$
   00CF F8 06               780 	ldhl	sp,	#6
   00D1 7E                  781 	ld	a, (hl)
   00D2 D6 00               782 	sub	a, #0x00
   00D4 23                  783 	inc	hl
   00D5 7E                  784 	ld	a, (hl)
   00D6 DE 00               785 	sbc	a, #0x00
   00D8 56                  786 	ld	d, (hl)
   00D9 3E 00               787 	ld	a, #0x00
   00DB 5F                  788 	ld	e, a
   00DC CB 7B               789 	bit	7, e
   00DE 28 07               790 	jr	Z,00149$
   00E0 CB 7A               791 	bit	7, d
   00E2 20 08               792 	jr	NZ,00150$
   00E4 BF                  793 	cp	a, a
   00E5 18 05               794 	jr	00150$
   00E7                     795 00149$:
   00E7 CB 7A               796 	bit	7, d
   00E9 28 01               797 	jr	Z,00150$
   00EB 37                  798 	scf
   00EC                     799 00150$:
   00EC DAr80r01            800 	jp	C, 00102$
   00EF                     801 00106$:
                            802 ;./src/./sprites.c:28: !(sprite->col.direction.x ==  1 && sprite->speed.x > 0)){
   00EF F8 02               803 	ldhl	sp,	#2
   00F1 7E                  804 	ld	a, (hl)
   00F2 3D                  805 	dec	a
   00F3 23                  806 	inc	hl
   00F4 B6                  807 	or	a, (hl)
   00F5 20 20               808 	jr	NZ,00101$
   00F7 F8 06               809 	ldhl	sp,	#6
   00F9 3E 00               810 	ld	a, #0x00
   00FB 96                  811 	sub	a, (hl)
   00FC 23                  812 	inc	hl
   00FD 3E 00               813 	ld	a, #0x00
   00FF 9E                  814 	sbc	a, (hl)
   0100 3E 00               815 	ld	a, #0x00
   0102 57                  816 	ld	d, a
   0103 5E                  817 	ld	e, (hl)
   0104 CB 7B               818 	bit	7, e
   0106 28 07               819 	jr	Z,00153$
   0108 CB 7A               820 	bit	7, d
   010A 20 08               821 	jr	NZ,00154$
   010C BF                  822 	cp	a, a
   010D 18 05               823 	jr	00154$
   010F                     824 00153$:
   010F CB 7A               825 	bit	7, d
   0111 28 01               826 	jr	Z,00154$
   0113 37                  827 	scf
   0114                     828 00154$:
   0114 DAr80r01            829 	jp	C, 00102$
   0117                     830 00101$:
                            831 ;./src/./sprites.c:30: sprite->position.x = FROUNDU(FADD(UTOF(sprite->position.x), sprite->speed.x));
   0117 F8 00               832 	ldhl	sp,	#0
   0119 2A                  833 	ld	a, (hl+)
   011A 5E                  834 	ld	e, (hl)
   011B 23                  835 	inc	hl
   011C 22                  836 	ld	(hl+), a
   011D 73                  837 	ld	(hl), e
   011E D1                  838 	pop	de
   011F D5                  839 	push	de
   0120 1A                  840 	ld	a,(de)
   0121 4F                  841 	ld	c, a
   0122 06 00               842 	ld	b, #0x00
   0124 CB 21               843 	sla	c
   0126 CB 10               844 	rl	b
   0128 CB 21               845 	sla	c
   012A CB 10               846 	rl	b
   012C CB 21               847 	sla	c
   012E CB 10               848 	rl	b
   0130 CB 21               849 	sla	c
   0132 CB 10               850 	rl	b
   0134 F8 06               851 	ldhl	sp,	#6
   0136 2A                  852 	ld	a, (hl+)
   0137 66                  853 	ld	h, (hl)
   0138 6F                  854 	ld	l, a
   0139 09                  855 	add	hl, bc
   013A 7D                  856 	ld	a, l
   013B 54                  857 	ld	d, h
   013C F8 04               858 	ldhl	sp,	#4
   013E 22                  859 	ld	(hl+), a
   013F 72                  860 	ld	(hl), d
   0140 2B                  861 	dec	hl
   0141 5E                  862 	ld	e, (hl)
   0142 23                  863 	inc	hl
   0143 56                  864 	ld	d, (hl)
   0144 21 08 00            865 	ld	hl, #0x0008
   0147 19                  866 	add	hl, de
   0148 4D                  867 	ld	c, l
   0149 44                  868 	ld	b, h
   014A F8 06               869 	ldhl	sp,	#6
   014C 71                  870 	ld	(hl), c
   014D 23                  871 	inc	hl
   014E 70                  872 	ld	(hl), b
   014F CB 78               873 	bit	7, b
   0151 28 10               874 	jr	Z,00115$
   0153 2B                  875 	dec	hl
   0154 2B                  876 	dec	hl
   0155 2B                  877 	dec	hl
   0156 5E                  878 	ld	e, (hl)
   0157 23                  879 	inc	hl
   0158 56                  880 	ld	d, (hl)
   0159 21 17 00            881 	ld	hl, #0x0017
   015C 19                  882 	add	hl, de
   015D 7D                  883 	ld	a, l
   015E 54                  884 	ld	d, h
   015F F8 06               885 	ldhl	sp,	#6
   0161 22                  886 	ld	(hl+), a
   0162 72                  887 	ld	(hl), d
   0163                     888 00115$:
   0163 F8 06               889 	ldhl	sp,#(7 - 1)
   0165 4E                  890 	ld	c, (hl)
   0166 23                  891 	inc	hl
   0167 46                  892 	ld	b, (hl)
   0168 CB 28               893 	sra	b
   016A CB 19               894 	rr	c
   016C CB 28               895 	sra	b
   016E CB 19               896 	rr	c
   0170 CB 28               897 	sra	b
   0172 CB 19               898 	rr	c
   0174 CB 28               899 	sra	b
   0176 CB 19               900 	rr	c
   0178 F8 02               901 	ldhl	sp,	#2
   017A 2A                  902 	ld	a, (hl+)
   017B 66                  903 	ld	h, (hl)
   017C 6F                  904 	ld	l, a
   017D 71                  905 	ld	(hl), c
   017E 18 08               906 	jr	00103$
   0180                     907 00102$:
                            908 ;./src/./sprites.c:33: sprite->speed.x = 0;
   0180 F8 04               909 	ldhl	sp,	#4
   0182 2A                  910 	ld	a, (hl+)
   0183 66                  911 	ld	h, (hl)
   0184 6F                  912 	ld	l, a
   0185 AF                  913 	xor	a, a
   0186 22                  914 	ld	(hl+), a
   0187 77                  915 	ld	(hl), a
   0188                     916 00103$:
                            917 ;./src/./sprites.c:36: if(!(sprite->col.direction.y == -1 && sprite->speed.y < 0) &&
   0188 D1                  918 	pop	de
   0189 D5                  919 	push	de
   018A 21 0C 00            920 	ld	hl, #0x000c
   018D 19                  921 	add	hl, de
   018E 4D                  922 	ld	c, l
   018F 44                  923 	ld	b, h
   0190 59                  924 	ld	e, c
   0191 50                  925 	ld	d, b
   0192 1A                  926 	ld	a,(de)
   0193 F8 04               927 	ldhl	sp,	#4
   0195 22                  928 	ld	(hl+), a
   0196 13                  929 	inc	de
   0197 1A                  930 	ld	a, (de)
   0198 77                  931 	ld	(hl), a
   0199 D1                  932 	pop	de
   019A D5                  933 	push	de
   019B 21 07 00            934 	ld	hl, #0x0007
   019E 19                  935 	add	hl, de
   019F 7D                  936 	ld	a, l
   01A0 54                  937 	ld	d, h
   01A1 F8 06               938 	ldhl	sp,	#6
   01A3 22                  939 	ld	(hl+), a
   01A4 72                  940 	ld	(hl), d
   01A5 2B                  941 	dec	hl
   01A6 5E                  942 	ld	e, (hl)
   01A7 23                  943 	inc	hl
   01A8 56                  944 	ld	d, (hl)
   01A9 1A                  945 	ld	a,(de)
   01AA 4F                  946 	ld	c, a
   01AB 13                  947 	inc	de
   01AC 1A                  948 	ld	a,(de)
   01AD 47                  949 	ld	b, a
   01AE F8 04               950 	ldhl	sp,	#4
   01B0 2A                  951 	ld	a, (hl+)
   01B1 A6                  952 	and	a, (hl)
   01B2 3C                  953 	inc	a
   01B3 20 05               954 	jr	NZ,00112$
   01B5 CB 78               955 	bit	7, b
   01B7 C2r50r02            956 	jp	NZ, 00108$
   01BA                     957 00112$:
                            958 ;./src/./sprites.c:37: !(sprite->col.direction.y ==  1 && sprite->speed.y > 0)){
   01BA F8 04               959 	ldhl	sp,	#4
   01BC 7E                  960 	ld	a, (hl)
   01BD 3D                  961 	dec	a
   01BE 23                  962 	inc	hl
   01BF B6                  963 	or	a, (hl)
   01C0 20 1B               964 	jr	NZ,00107$
   01C2 78                  965 	ld	a, b
   01C3 5F                  966 	ld	e, a
   01C4 3E 00               967 	ld	a, #0x00
   01C6 57                  968 	ld	d, a
   01C7 AF                  969 	xor	a, a
   01C8 B9                  970 	cp	a, c
   01C9 98                  971 	sbc	a, b
   01CA CB 7B               972 	bit	7, e
   01CC 28 07               973 	jr	Z,00161$
   01CE CB 7A               974 	bit	7, d
   01D0 20 08               975 	jr	NZ,00162$
   01D2 BF                  976 	cp	a, a
   01D3 18 05               977 	jr	00162$
   01D5                     978 00161$:
   01D5 CB 7A               979 	bit	7, d
   01D7 28 01               980 	jr	Z,00162$
   01D9 37                  981 	scf
   01DA                     982 00162$:
   01DA DAr50r02            983 	jp	C, 00108$
   01DD                     984 00107$:
                            985 ;./src/./sprites.c:38: sprite->position.y = FROUNDU(FADD(UTOF(sprite->position.y), sprite->speed.y));
   01DD D1                  986 	pop	de
   01DE D5                  987 	push	de
   01DF 21 01 00            988 	ld	hl, #0x0001
   01E2 19                  989 	add	hl, de
   01E3 7D                  990 	ld	a, l
   01E4 54                  991 	ld	d, h
   01E5 F8 06               992 	ldhl	sp,	#6
   01E7 22                  993 	ld	(hl+), a
   01E8 72                  994 	ld	(hl), d
   01E9 2B                  995 	dec	hl
   01EA 5E                  996 	ld	e, (hl)
   01EB 23                  997 	inc	hl
   01EC 56                  998 	ld	d, (hl)
   01ED 1A                  999 	ld	a,(de)
   01EE 5F                 1000 	ld	e, a
   01EF 16 00              1001 	ld	d, #0x00
   01F1 CB 23              1002 	sla	e
   01F3 CB 12              1003 	rl	d
   01F5 CB 23              1004 	sla	e
   01F7 CB 12              1005 	rl	d
   01F9 CB 23              1006 	sla	e
   01FB CB 12              1007 	rl	d
   01FD CB 23              1008 	sla	e
   01FF CB 12              1009 	rl	d
   0201 F8 04              1010 	ldhl	sp,	#4
   0203 73                 1011 	ld	(hl), e
   0204 23                 1012 	inc	hl
   0205 72                 1013 	ld	(hl), d
   0206 2B                 1014 	dec	hl
   0207 2A                 1015 	ld	a, (hl+)
   0208 66                 1016 	ld	h, (hl)
   0209 6F                 1017 	ld	l, a
   020A 09                 1018 	add	hl, bc
   020B 7D                 1019 	ld	a, l
   020C 54                 1020 	ld	d, h
   020D F8 02              1021 	ldhl	sp,	#2
   020F 22                 1022 	ld	(hl+), a
   0210 72                 1023 	ld	(hl), d
   0211 2B                 1024 	dec	hl
   0212 5E                 1025 	ld	e, (hl)
   0213 23                 1026 	inc	hl
   0214 56                 1027 	ld	d, (hl)
   0215 21 08 00           1028 	ld	hl, #0x0008
   0218 19                 1029 	add	hl, de
   0219 4D                 1030 	ld	c, l
   021A 44                 1031 	ld	b, h
   021B F8 04              1032 	ldhl	sp,	#4
   021D 71                 1033 	ld	(hl), c
   021E 23                 1034 	inc	hl
   021F 70                 1035 	ld	(hl), b
   0220 CB 78              1036 	bit	7, b
   0222 28 10              1037 	jr	Z,00116$
   0224 2B                 1038 	dec	hl
   0225 2B                 1039 	dec	hl
   0226 2B                 1040 	dec	hl
   0227 5E                 1041 	ld	e, (hl)
   0228 23                 1042 	inc	hl
   0229 56                 1043 	ld	d, (hl)
   022A 21 17 00           1044 	ld	hl, #0x0017
   022D 19                 1045 	add	hl, de
   022E 7D                 1046 	ld	a, l
   022F 54                 1047 	ld	d, h
   0230 F8 04              1048 	ldhl	sp,	#4
   0232 22                 1049 	ld	(hl+), a
   0233 72                 1050 	ld	(hl), d
   0234                    1051 00116$:
   0234 F8 04              1052 	ldhl	sp,#(5 - 1)
   0236 4E                 1053 	ld	c, (hl)
   0237 23                 1054 	inc	hl
   0238 46                 1055 	ld	b, (hl)
   0239 CB 28              1056 	sra	b
   023B CB 19              1057 	rr	c
   023D CB 28              1058 	sra	b
   023F CB 19              1059 	rr	c
   0241 CB 28              1060 	sra	b
   0243 CB 19              1061 	rr	c
   0245 CB 28              1062 	sra	b
   0247 CB 19              1063 	rr	c
   0249 23                 1064 	inc	hl
   024A 2A                 1065 	ld	a, (hl+)
   024B 66                 1066 	ld	h, (hl)
   024C 6F                 1067 	ld	l, a
   024D 71                 1068 	ld	(hl), c
   024E 18 08              1069 	jr	00113$
   0250                    1070 00108$:
                           1071 ;./src/./sprites.c:41: sprite->speed.y = 0;
   0250 F8 06              1072 	ldhl	sp,	#6
   0252 2A                 1073 	ld	a, (hl+)
   0253 66                 1074 	ld	h, (hl)
   0254 6F                 1075 	ld	l, a
   0255 AF                 1076 	xor	a, a
   0256 22                 1077 	ld	(hl+), a
   0257 77                 1078 	ld	(hl), a
   0258                    1079 00113$:
                           1080 ;./src/./sprites.c:43: }
   0258 E8 08              1081 	add	sp, #8
   025A C9                 1082 	ret
                           1083 ;./src/./sprites.c:45: void update_position_split(UINT16 x, UINT16 y){
                           1084 ;	---------------------------------
                           1085 ; Function update_position_split
                           1086 ; ---------------------------------
   025B                    1087 _update_position_split::
                           1088 ;./src/./sprites.c:46: }
   025B C9                 1089 	ret
                           1090 ;./src/./player.c:9: void next_animation(MSprite* sprite){
                           1091 ;	---------------------------------
                           1092 ; Function next_animation
                           1093 ; ---------------------------------
   025C                    1094 _next_animation::
   025C E8 FB              1095 	add	sp, #-5
                           1096 ;./src/./player.c:10: ++(sprite->animation_index);
   025E F8 07              1097 	ldhl	sp,	#7
   0260 2A                 1098 	ld	a, (hl+)
   0261 5E                 1099 	ld	e, (hl)
   0262 F8 00              1100 	ldhl	sp,	#0
   0264 22                 1101 	ld	(hl+), a
   0265 73                 1102 	ld	(hl), e
   0266 C1                 1103 	pop	bc
   0267 C5                 1104 	push	bc
   0268 03                 1105 	inc	bc
   0269 03                 1106 	inc	bc
   026A 0A                 1107 	ld	a, (bc)
   026B 3C                 1108 	inc	a
   026C 23                 1109 	inc	hl
   026D 77                 1110 	ld	(hl),a
   026E 02                 1111 	ld	(bc), a
                           1112 ;./src/./player.c:11: if(sprite->animation_index == sprite->max_animations){
   026F D1                 1113 	pop	de
   0270 D5                 1114 	push	de
   0271 21 03 00           1115 	ld	hl, #0x0003
   0274 19                 1116 	add	hl, de
   0275 7D                 1117 	ld	a, l
   0276 54                 1118 	ld	d, h
   0277 F8 03              1119 	ldhl	sp,	#3
   0279 22                 1120 	ld	(hl+), a
   027A 72                 1121 	ld	(hl), d
   027B 2B                 1122 	dec	hl
   027C 5E                 1123 	ld	e, (hl)
   027D 23                 1124 	inc	hl
   027E 56                 1125 	ld	d, (hl)
   027F 1A                 1126 	ld	a,(de)
   0280 32                 1127 	ld	(hl-), a
   0281 2B                 1128 	dec	hl
   0282 2A                 1129 	ld	a, (hl+)
   0283 23                 1130 	inc	hl
   0284 96                 1131 	sub	a, (hl)
   0285 20 02              1132 	jr	NZ,00102$
                           1133 ;./src/./player.c:12: sprite->animation_index = 0;
   0287 AF                 1134 	xor	a, a
   0288 02                 1135 	ld	(bc), a
   0289                    1136 00102$:
                           1137 ;./src/./player.c:14: set_sprite_tile(sprite->sprite_number, sprite->animation_index);
   0289 0A                 1138 	ld	a, (bc)
   028A 47                 1139 	ld	b, a
   028B D1                 1140 	pop	de
   028C D5                 1141 	push	de
   028D 21 04 00           1142 	ld	hl, #0x0004
   0290 19                 1143 	add	hl, de
   0291 4D                 1144 	ld	c,l
   0292 7C                 1145 	ld	a,h
   0293 7E                 1146 	ld	a, (hl)
   0294 C5                 1147 	push	bc
   0295 33                 1148 	inc	sp
   0296 F5                 1149 	push	af
   0297 33                 1150 	inc	sp
   0298 CDr00r00           1151 	call	_set_sprite_tile
   029B E8 02              1152 	add	sp, #2
                           1153 ;./src/./player.c:15: }
   029D E8 05              1154 	add	sp, #5
   029F C9                 1155 	ret
                           1156 ;./src/./player.c:17: void player_movement(MPlayer* player)
                           1157 ;	---------------------------------
                           1158 ; Function player_movement
                           1159 ; ---------------------------------
   02A0                    1160 _player_movement::
   02A0 E8 F8              1161 	add	sp, #-8
                           1162 ;./src/./player.c:20: if(JOYPAD_DOWN_PAD_L){
   02A2 CDr00r00           1163 	call	_joypad
   02A5 F8 07              1164 	ldhl	sp,	#7
   02A7 73                 1165 	ld	(hl), e
                           1166 ;./src/./player.c:25: player->sprite.speed.x = ITOF(-movement_speed);  //FSUB(player->sprite.speed.x, FDIV(movement_speed.x,FPS));
   02A8 F8 0A              1167 	ldhl	sp,	#10
   02AA 2A                 1168 	ld	a, (hl+)
   02AB 5E                 1169 	ld	e, (hl)
   02AC F8 00              1170 	ldhl	sp,	#0
   02AE 22                 1171 	ld	(hl+), a
   02AF 73                 1172 	ld	(hl), e
   02B0 D1                 1173 	pop	de
   02B1 D5                 1174 	push	de
   02B2 21 05 00           1175 	ld	hl, #0x0005
   02B5 19                 1176 	add	hl, de
   02B6 4D                 1177 	ld	c, l
   02B7 44                 1178 	ld	b, h
                           1179 ;./src/./player.c:20: if(JOYPAD_DOWN_PAD_L){
   02B8 F8 07              1180 	ldhl	sp,	#7
   02BA CB 4E              1181 	bit	1, (hl)
   02BC 28 17              1182 	jr	Z,00108$
                           1183 ;./src/./player.c:24: teleporter_active = true;
   02BE 21rF5r02           1184 	ld	hl, #_teleporter_active
   02C1 36 01              1185 	ld	(hl), #0x01
                           1186 ;./src/./player.c:25: player->sprite.speed.x = ITOF(-movement_speed);  //FSUB(player->sprite.speed.x, FDIV(movement_speed.x,FPS));
   02C3 3E B0              1187 	ld	a, #0xb0
   02C5 02                 1188 	ld	(bc), a
   02C6 03                 1189 	inc	bc
   02C7 3E FF              1190 	ld	a, #0xff
   02C9 02                 1191 	ld	(bc), a
                           1192 ;./src/./player.c:27: next_animation(&(player->sprite));
   02CA E1                 1193 	pop	hl
   02CB E5                 1194 	push	hl
   02CC E5                 1195 	push	hl
   02CD CDr5Cr02           1196 	call	_next_animation
   02D0 E8 02              1197 	add	sp, #2
   02D2 C3rADr03           1198 	jp	00109$
   02D5                    1199 00108$:
                           1200 ;./src/./player.c:29: else if(JOYPAD_DOWN_PAD_R){
   02D5 C5                 1201 	push	bc
   02D6 CDr00r00           1202 	call	_joypad
   02D9 7B                 1203 	ld	a, e
   02DA C1                 1204 	pop	bc
   02DB 0F                 1205 	rrca
   02DC D2r97r03           1206 	jp	NC,00105$
                           1207 ;./src/./player.c:33: teleporter_active = true;
   02DF 21rF5r02           1208 	ld	hl, #_teleporter_active
   02E2 36 01              1209 	ld	(hl), #0x01
                           1210 ;./src/./player.c:34: player->sprite.speed.x = ITOF(movement_speed);//movement_speed.x;// FADD(player->sprite.speed.x, FDIV(movement_speed.x,FPS));
   02E4 69                 1211 	ld	l, c
   02E5 60                 1212 	ld	h, b
   02E6 36 50              1213 	ld	(hl), #0x50
   02E8 23                 1214 	inc	hl
   02E9 36 00              1215 	ld	(hl), #0x00
                           1216 ;./src/./player.c:35: DEBUG_LOG_MESSAGE("speed: %d -> %d.%d",
   02EB 59                 1217 	ld	e, c
   02EC 50                 1218 	ld	d, b
   02ED 1A                 1219 	ld	a,(de)
   02EE F8 02              1220 	ldhl	sp,	#2
   02F0 22                 1221 	ld	(hl+), a
   02F1 13                 1222 	inc	de
   02F2 1A                 1223 	ld	a, (de)
   02F3 32                 1224 	ld	(hl-), a
   02F4 7E                 1225 	ld	a, (hl)
   02F5 E6 0F              1226 	and	a, #0x0f
   02F7 4F                 1227 	ld	c, a
   02F8 06 00              1228 	ld	b, #0x00
   02FA 69                 1229 	ld	l, c
   02FB 60                 1230 	ld	h, b
   02FC 29                 1231 	add	hl, hl
   02FD 29                 1232 	add	hl, hl
   02FE 09                 1233 	add	hl, bc
   02FF 29                 1234 	add	hl, hl
   0300 4D                 1235 	ld	c, l
   0301 44                 1236 	ld	b, h
   0302 F8 06              1237 	ldhl	sp,	#6
   0304 71                 1238 	ld	(hl), c
   0305 23                 1239 	inc	hl
   0306 70                 1240 	ld	(hl), b
   0307 CB 78              1241 	bit	7, b
   0309 28 0A              1242 	jr	Z,00115$
   030B 21 0F 00           1243 	ld	hl, #0x000f
   030E 09                 1244 	add	hl, bc
   030F 7D                 1245 	ld	a, l
   0310 54                 1246 	ld	d, h
   0311 F8 06              1247 	ldhl	sp,	#6
   0313 22                 1248 	ld	(hl+), a
   0314 72                 1249 	ld	(hl), d
   0315                    1250 00115$:
   0315 F8 06              1251 	ldhl	sp,	#6
   0317 3A                 1252 	ld	a, (hl-)
   0318 2B                 1253 	dec	hl
   0319 77                 1254 	ld	(hl), a
   031A F8 07              1255 	ldhl	sp,	#7
   031C 3A                 1256 	ld	a, (hl-)
   031D 2B                 1257 	dec	hl
   031E 77                 1258 	ld	(hl), a
   031F CB 2E              1259 	sra	(hl)
   0321 2B                 1260 	dec	hl
   0322 CB 1E              1261 	rr	(hl)
   0324 23                 1262 	inc	hl
   0325 CB 2E              1263 	sra	(hl)
   0327 2B                 1264 	dec	hl
   0328 CB 1E              1265 	rr	(hl)
   032A 23                 1266 	inc	hl
   032B CB 2E              1267 	sra	(hl)
   032D 2B                 1268 	dec	hl
   032E CB 1E              1269 	rr	(hl)
   0330 23                 1270 	inc	hl
   0331 CB 2E              1271 	sra	(hl)
   0333 2B                 1272 	dec	hl
   0334 CB 1E              1273 	rr	(hl)
   0336 2B                 1274 	dec	hl
   0337 2B                 1275 	dec	hl
   0338 4E                 1276 	ld	c, (hl)
   0339 23                 1277 	inc	hl
   033A 46                 1278 	ld	b, (hl)
   033B CB 28              1279 	sra	b
   033D CB 19              1280 	rr	c
   033F CB 28              1281 	sra	b
   0341 CB 19              1282 	rr	c
   0343 CB 28              1283 	sra	b
   0345 CB 19              1284 	rr	c
   0347 CB 28              1285 	sra	b
   0349 CB 19              1286 	rr	c
   034B 2B                 1287 	dec	hl
   034C 5E                 1288 	ld	e, (hl)
   034D 23                 1289 	inc	hl
   034E 56                 1290 	ld	d, (hl)
   034F 21 08 00           1291 	ld	hl, #0x0008
   0352 19                 1292 	add	hl, de
   0353 7D                 1293 	ld	a, l
   0354 54                 1294 	ld	d, h
   0355 F8 06              1295 	ldhl	sp,	#6
   0357 22                 1296 	ld	(hl+), a
   0358 72                 1297 	ld	(hl), d
   0359 2B                 1298 	dec	hl
   035A 5E                 1299 	ld	e, (hl)
   035B 23                 1300 	inc	hl
   035C 56                 1301 	ld	d, (hl)
   035D CB 2A              1302 	sra	d
   035F CB 1B              1303 	rr	e
   0361 CB 2A              1304 	sra	d
   0363 CB 1B              1305 	rr	e
   0365 CB 2A              1306 	sra	d
   0367 CB 1B              1307 	rr	e
   0369 CB 2A              1308 	sra	d
   036B CB 1B              1309 	rr	e
   036D F8 04              1310 	ldhl	sp,	#4
   036F 2A                 1311 	ld	a, (hl+)
   0370 66                 1312 	ld	h, (hl)
   0371 6F                 1313 	ld	l, a
   0372 E5                 1314 	push	hl
   0373 C5                 1315 	push	bc
   0374 D5                 1316 	push	de
   0375 21rCBr03           1317 	ld	hl, #___str_0
   0378 E5                 1318 	push	hl
   0379 21rF5r00           1319 	ld	hl, #_debug_buffer
   037C E5                 1320 	push	hl
   037D CDr00r00           1321 	call	_sprintf
   0380 E8 0A              1322 	add	sp, #10
   0382 52                 1323 	ld d, d 
   0383 18 08              1324 	jr 3800$ 
   0385 64 64              1325 	.dw 0x6464 
   0387 01 00              1326 	.dw 0x0001 
   0389rF5r00              1327 	.dw #_debug_buffer 
   038B 00 00              1328 	.dw 0 
   038D                    1329 	 3800$:
                           1330 ;./src/./player.c:39: next_animation(&(player->sprite));
   038D E1                 1331 	pop	hl
   038E E5                 1332 	push	hl
   038F E5                 1333 	push	hl
   0390 CDr5Cr02           1334 	call	_next_animation
   0393 E8 02              1335 	add	sp, #2
   0395 18 16              1336 	jr	00109$
   0397                    1337 00105$:
                           1338 ;./src/./player.c:42: else if(JOYPAD_UP_PAD_L && JOYPAD_UP_PAD_R){
   0397 C5                 1339 	push	bc
   0398 CDr00r00           1340 	call	_joypad
   039B C1                 1341 	pop	bc
   039C CB 4B              1342 	bit	1, e
   039E 20 0D              1343 	jr	NZ,00109$
   03A0 C5                 1344 	push	bc
   03A1 CDr00r00           1345 	call	_joypad
   03A4 7B                 1346 	ld	a, e
   03A5 C1                 1347 	pop	bc
   03A6 0F                 1348 	rrca
   03A7 38 04              1349 	jr	C,00109$
                           1350 ;./src/./player.c:43: player->sprite.speed.x = 0;
   03A9 AF                 1351 	xor	a, a
   03AA 02                 1352 	ld	(bc), a
   03AB 03                 1353 	inc	bc
   03AC 02                 1354 	ld	(bc), a
   03AD                    1355 00109$:
                           1356 ;./src/./player.c:54: if(JOYPAD_DOWN_PAD_D){
   03AD CDr00r00           1357 	call	_joypad
   03B0 CB 5B              1358 	bit	3, e
   03B2 28 14              1359 	jr	Z,00113$
                           1360 ;./src/./player.c:55: teleporter_active = true;
   03B4 21rF5r02           1361 	ld	hl, #_teleporter_active
   03B7 36 01              1362 	ld	(hl), #0x01
                           1363 ;./src/./player.c:56: player->sprite.speed.y = ITOF(movement_speed);//FADD(player->sprite.speed.y, FDIV(movement_speed.y, FPS));
   03B9 D1                 1364 	pop	de
   03BA D5                 1365 	push	de
   03BB 21 07 00           1366 	ld	hl, #0x0007
   03BE 19                 1367 	add	hl, de
   03BF 4D                 1368 	ld	c, l
   03C0 44                 1369 	ld	b, h
   03C1 3E 50              1370 	ld	a, #0x50
   03C3 02                 1371 	ld	(bc), a
   03C4 03                 1372 	inc	bc
   03C5 3E 00              1373 	ld	a, #0x00
   03C7 02                 1374 	ld	(bc), a
                           1375 ;./src/./player.c:58: else if(JOYPAD_RELEASED_PAD_D){
   03C8                    1376 00113$:
                           1377 ;./src/./player.c:61: }
   03C8 E8 08              1378 	add	sp, #8
   03CA C9                 1379 	ret
   03CB                    1380 ___str_0:
   03CB 73 70 65 65 64 3A  1381 	.ascii "speed: %d -> %d.%d"
        20 25 64 20 2D 3E
        20 25 64 2E 25 64
   03DD 00                 1382 	.db 0x00
                           1383 ;./src/./player.c:63: void jump(MPlayer* player){
                           1384 ;	---------------------------------
                           1385 ; Function jump
                           1386 ; ---------------------------------
   03DE                    1387 _jump::
   03DE E8 FA              1388 	add	sp, #-6
                           1389 ;./src/./player.c:64: if(JOYPAD_DOWN_A && player->sprite.col.has_collided){
   03E0 CDr00r00           1390 	call	_joypad
   03E3 CB 63              1391 	bit	4, e
   03E5 CAr85r04           1392 	jp	Z,00114$
   03E8 F8 08              1393 	ldhl	sp,	#8
   03EA 2A                 1394 	ld	a, (hl+)
   03EB 5E                 1395 	ld	e, (hl)
   03EC F8 00              1396 	ldhl	sp,	#0
   03EE 22                 1397 	ld	(hl+), a
   03EF 73                 1398 	ld	(hl), e
   03F0 D1                 1399 	pop	de
   03F1 D5                 1400 	push	de
   03F2 21 09 00           1401 	ld	hl, #0x0009
   03F5 19                 1402 	add	hl, de
   03F6 4D                 1403 	ld	c, l
   03F7 44                 1404 	ld	b, h
   03F8 0A                 1405 	ld	a, (bc)
   03F9 CB 47              1406 	bit	0, a
   03FB CAr85r04           1407 	jp	Z, 00114$
                           1408 ;./src/./player.c:66: if(player->sprite.col.direction.y == -1){
   03FE D1                 1409 	pop	de
   03FF D5                 1410 	push	de
   0400 21 0A 00           1411 	ld	hl, #0x000a
   0403 19                 1412 	add	hl, de
   0404 7D                 1413 	ld	a, l
   0405 54                 1414 	ld	d, h
   0406 F8 02              1415 	ldhl	sp,	#2
   0408 22                 1416 	ld	(hl+), a
   0409 72                 1417 	ld	(hl), d
   040A D1                 1418 	pop	de
   040B D5                 1419 	push	de
   040C 21 0C 00           1420 	ld	hl, #0x000c
   040F 19                 1421 	add	hl, de
   0410 4D                 1422 	ld	c, l
   0411 44                 1423 	ld	b, h
   0412 59                 1424 	ld	e, c
   0413 50                 1425 	ld	d, b
   0414 1A                 1426 	ld	a,(de)
   0415 F8 04              1427 	ldhl	sp,	#4
   0417 22                 1428 	ld	(hl+), a
   0418 13                 1429 	inc	de
   0419 1A                 1430 	ld	a, (de)
   041A 32                 1431 	ld	(hl-), a
   041B 2A                 1432 	ld	a, (hl+)
   041C A6                 1433 	and	a, (hl)
   041D 3C                 1434 	inc	a
   041E CAr85r04           1435 	jp	Z,00114$
   0421 18 03              1436 	jr	00102$
                           1437 ;./src/./player.c:67: return;
   0423 C3r85r04           1438 	jp	00114$
   0426                    1439 00102$:
                           1440 ;./src/./player.c:69: teleporter_active = true;
   0426 21rF5r02           1441 	ld	hl, #_teleporter_active
   0429 36 01              1442 	ld	(hl), #0x01
                           1443 ;./src/./player.c:70: if((player->sprite.col.direction.y == 1 ||
   042B 69                 1444 	ld	l, c
   042C 60                 1445 	ld	h, b
   042D 4E                 1446 	ld	c, (hl)
   042E 23                 1447 	inc	hl
   042F 46                 1448 	ld	b, (hl)
   0430 79                 1449 	ld	a, c
   0431 3D                 1450 	dec	a
   0432 B0                 1451 	or	a, b
   0433 28 0C              1452 	jr	Z,00103$
                           1453 ;./src/./player.c:71: player->sprite.col.direction.x != 0)){
   0435 F8 02              1454 	ldhl	sp,#(3 - 1)
   0437 5E                 1455 	ld	e, (hl)
   0438 23                 1456 	inc	hl
   0439 56                 1457 	ld	d, (hl)
   043A 1A                 1458 	ld	a,(de)
   043B 4F                 1459 	ld	c, a
   043C 13                 1460 	inc	de
   043D 1A                 1461 	ld	a,(de)
   043E B1                 1462 	or	a, c
   043F 28 0F              1463 	jr	Z,00104$
   0441                    1464 00103$:
                           1465 ;./src/./player.c:72: player->sprite.speed.y = ITOF(-6);
   0441 D1                 1466 	pop	de
   0442 D5                 1467 	push	de
   0443 21 07 00           1468 	ld	hl, #0x0007
   0446 19                 1469 	add	hl, de
   0447 4D                 1470 	ld	c, l
   0448 44                 1471 	ld	b, h
   0449 3E A0              1472 	ld	a, #0xa0
   044B 02                 1473 	ld	(bc), a
   044C 03                 1474 	inc	bc
   044D 3E FF              1475 	ld	a, #0xff
   044F 02                 1476 	ld	(bc), a
   0450                    1477 00104$:
                           1478 ;./src/./player.c:75: if(player->sprite.col.direction.x == -1){
   0450 F8 02              1479 	ldhl	sp,#(3 - 1)
   0452 5E                 1480 	ld	e, (hl)
   0453 23                 1481 	inc	hl
   0454 56                 1482 	ld	d, (hl)
   0455 1A                 1483 	ld	a,(de)
   0456 4F                 1484 	ld	c, a
   0457 13                 1485 	inc	de
   0458 1A                 1486 	ld	a,(de)
   0459 47                 1487 	ld	b, a
                           1488 ;./src/./player.c:76: player->sprite.speed.x = ITOF(7);
   045A D1                 1489 	pop	de
   045B D5                 1490 	push	de
   045C 21 05 00           1491 	ld	hl, #0x0005
   045F 19                 1492 	add	hl, de
   0460 7D                 1493 	ld	a, l
   0461 54                 1494 	ld	d, h
   0462 F8 04              1495 	ldhl	sp,	#4
   0464 22                 1496 	ld	(hl+), a
   0465 72                 1497 	ld	(hl), d
                           1498 ;./src/./player.c:75: if(player->sprite.col.direction.x == -1){
   0466 79                 1499 	ld	a, c
   0467 A0                 1500 	and	a, b
   0468 3C                 1501 	inc	a
   0469 20 0B              1502 	jr	NZ,00109$
                           1503 ;./src/./player.c:76: player->sprite.speed.x = ITOF(7);
   046B 2B                 1504 	dec	hl
   046C 2A                 1505 	ld	a, (hl+)
   046D 66                 1506 	ld	h, (hl)
   046E 6F                 1507 	ld	l, a
   046F 36 70              1508 	ld	(hl), #0x70
   0471 23                 1509 	inc	hl
   0472 36 00              1510 	ld	(hl), #0x00
   0474 18 0F              1511 	jr	00114$
   0476                    1512 00109$:
                           1513 ;./src/./player.c:78: else if (player->sprite.col.direction.x == 1){
   0476 79                 1514 	ld	a, c
   0477 3D                 1515 	dec	a
   0478 B0                 1516 	or	a, b
   0479 20 0A              1517 	jr	NZ,00114$
                           1518 ;./src/./player.c:79: player->sprite.speed.x = ITOF(-7);
   047B F8 04              1519 	ldhl	sp,	#4
   047D 2A                 1520 	ld	a, (hl+)
   047E 66                 1521 	ld	h, (hl)
   047F 6F                 1522 	ld	l, a
   0480 36 90              1523 	ld	(hl), #0x90
   0482 23                 1524 	inc	hl
   0483 36 FF              1525 	ld	(hl), #0xff
   0485                    1526 00114$:
                           1527 ;./src/./player.c:82: }
   0485 E8 06              1528 	add	sp, #6
   0487 C9                 1529 	ret
                           1530 ;./src/./maps.c:23: UINT16 get_world_to_map(UINT16 x, UINT16 y){
                           1531 ;	---------------------------------
                           1532 ; Function get_world_to_map
                           1533 ; ---------------------------------
   0488                    1534 _get_world_to_map::
   0488 E8 FE              1535 	add	sp, #-2
                           1536 ;./src/./maps.c:24: return ((x - 8 ) >> 3) + ((y - 16) >> 3 )* 20;
   048A F8 04              1537 	ldhl	sp,#(5 - 1)
   048C 5E                 1538 	ld	e, (hl)
   048D 23                 1539 	inc	hl
   048E 56                 1540 	ld	d, (hl)
   048F 21 08 00           1541 	ld	hl, #0x0008
   0492 7B                 1542 	ld	a, e
   0493 95                 1543 	sub	a, l
   0494 5F                 1544 	ld	e, a
   0495 7A                 1545 	ld	a, d
   0496 9C                 1546 	sbc	a, h
   0497 47                 1547 	ld	b, a
   0498 4B                 1548 	ld	c, e
   0499 F8 00              1549 	ldhl	sp,	#0
   049B 71                 1550 	ld	(hl), c
   049C 23                 1551 	inc	hl
   049D 70                 1552 	ld	(hl), b
   049E CB 3E              1553 	srl	(hl)
   04A0 2B                 1554 	dec	hl
   04A1 CB 1E              1555 	rr	(hl)
   04A3 23                 1556 	inc	hl
   04A4 CB 3E              1557 	srl	(hl)
   04A6 2B                 1558 	dec	hl
   04A7 CB 1E              1559 	rr	(hl)
   04A9 23                 1560 	inc	hl
   04AA CB 3E              1561 	srl	(hl)
   04AC 2B                 1562 	dec	hl
   04AD CB 1E              1563 	rr	(hl)
   04AF F8 06              1564 	ldhl	sp,#(7 - 1)
   04B1 5E                 1565 	ld	e, (hl)
   04B2 23                 1566 	inc	hl
   04B3 56                 1567 	ld	d, (hl)
   04B4 21 10 00           1568 	ld	hl, #0x0010
   04B7 7B                 1569 	ld	a, e
   04B8 95                 1570 	sub	a, l
   04B9 5F                 1571 	ld	e, a
   04BA 7A                 1572 	ld	a, d
   04BB 9C                 1573 	sbc	a, h
   04BC 47                 1574 	ld	b, a
   04BD 4B                 1575 	ld	c, e
   04BE CB 38              1576 	srl	b
   04C0 CB 19              1577 	rr	c
   04C2 CB 38              1578 	srl	b
   04C4 CB 19              1579 	rr	c
   04C6 CB 38              1580 	srl	b
   04C8 CB 19              1581 	rr	c
   04CA 69                 1582 	ld	l, c
   04CB 60                 1583 	ld	h, b
   04CC 29                 1584 	add	hl, hl
   04CD 29                 1585 	add	hl, hl
   04CE 09                 1586 	add	hl, bc
   04CF 29                 1587 	add	hl, hl
   04D0 29                 1588 	add	hl, hl
   04D1 4D                 1589 	ld	c, l
   04D2 44                 1590 	ld	b, h
   04D3 E1                 1591 	pop	hl
   04D4 E5                 1592 	push	hl
   04D5 09                 1593 	add	hl, bc
   04D6 4D                 1594 	ld	c, l
   04D7 44                 1595 	ld	b, h
   04D8 59                 1596 	ld	e, c
   04D9 50                 1597 	ld	d, b
                           1598 ;./src/./maps.c:25: }
   04DA E8 02              1599 	add	sp, #2
   04DC C9                 1600 	ret
   04DD                    1601 _you_win_data:
   04DD FF                 1602 	.db #0xff	; 255
   04DE 00                 1603 	.db #0x00	; 0
   04DF FF                 1604 	.db #0xff	; 255
   04E0 00                 1605 	.db #0x00	; 0
   04E1 FF                 1606 	.db #0xff	; 255
   04E2 00                 1607 	.db #0x00	; 0
   04E3 FF                 1608 	.db #0xff	; 255
   04E4 00                 1609 	.db #0x00	; 0
   04E5 FF                 1610 	.db #0xff	; 255
   04E6 00                 1611 	.db #0x00	; 0
   04E7 FF                 1612 	.db #0xff	; 255
   04E8 00                 1613 	.db #0x00	; 0
   04E9 FF                 1614 	.db #0xff	; 255
   04EA 00                 1615 	.db #0x00	; 0
   04EB FF                 1616 	.db #0xff	; 255
   04EC 00                 1617 	.db #0x00	; 0
   04ED FF                 1618 	.db #0xff	; 255
   04EE 70                 1619 	.db #0x70	; 112	'p'
   04EF FF                 1620 	.db #0xff	; 255
   04F0 78                 1621 	.db #0x78	; 120	'x'
   04F1 FF                 1622 	.db #0xff	; 255
   04F2 78                 1623 	.db #0x78	; 120	'x'
   04F3 FF                 1624 	.db #0xff	; 255
   04F4 7C                 1625 	.db #0x7c	; 124
   04F5 FF                 1626 	.db #0xff	; 255
   04F6 7C                 1627 	.db #0x7c	; 124
   04F7 FE                 1628 	.db #0xfe	; 254
   04F8 7F                 1629 	.db #0x7f	; 127
   04F9 FE                 1630 	.db #0xfe	; 254
   04FA 7F                 1631 	.db #0x7f	; 127
   04FB FF                 1632 	.db #0xff	; 255
   04FC 7F                 1633 	.db #0x7f	; 127
   04FD CF                 1634 	.db #0xcf	; 207
   04FE 30                 1635 	.db #0x30	; 48	'0'
   04FF 87                 1636 	.db #0x87	; 135
   0500 78                 1637 	.db #0x78	; 120	'x'
   0501 87                 1638 	.db #0x87	; 135
   0502 78                 1639 	.db #0x78	; 120	'x'
   0503 03                 1640 	.db #0x03	; 3
   0504 FC                 1641 	.db #0xfc	; 252
   0505 03                 1642 	.db #0x03	; 3
   0506 FC                 1643 	.db #0xfc	; 252
   0507 01                 1644 	.db #0x01	; 1
   0508 FF                 1645 	.db #0xff	; 255
   0509 01                 1646 	.db #0x01	; 1
   050A FF                 1647 	.db #0xff	; 255
   050B 03                 1648 	.db #0x03	; 3
   050C FF                 1649 	.db #0xff	; 255
   050D FF                 1650 	.db #0xff	; 255
   050E 30                 1651 	.db #0x30	; 48	'0'
   050F FF                 1652 	.db #0xff	; 255
   0510 78                 1653 	.db #0x78	; 120	'x'
   0511 FF                 1654 	.db #0xff	; 255
   0512 78                 1655 	.db #0x78	; 120	'x'
   0513 FF                 1656 	.db #0xff	; 255
   0514 FC                 1657 	.db #0xfc	; 252
   0515 FF                 1658 	.db #0xff	; 255
   0516 FC                 1659 	.db #0xfc	; 252
   0517 FE                 1660 	.db #0xfe	; 254
   0518 FF                 1661 	.db #0xff	; 255
   0519 FE                 1662 	.db #0xfe	; 254
   051A FF                 1663 	.db #0xff	; 255
   051B FF                 1664 	.db #0xff	; 255
   051C FF                 1665 	.db #0xff	; 255
   051D FF                 1666 	.db #0xff	; 255
   051E 3C                 1667 	.db #0x3c	; 60
   051F FF                 1668 	.db #0xff	; 255
   0520 7C                 1669 	.db #0x7c	; 124
   0521 FF                 1670 	.db #0xff	; 255
   0522 7C                 1671 	.db #0x7c	; 124
   0523 FF                 1672 	.db #0xff	; 255
   0524 FC                 1673 	.db #0xfc	; 252
   0525 FF                 1674 	.db #0xff	; 255
   0526 FC                 1675 	.db #0xfc	; 252
   0527 FF                 1676 	.db #0xff	; 255
   0528 FC                 1677 	.db #0xfc	; 252
   0529 FF                 1678 	.db #0xff	; 255
   052A FC                 1679 	.db #0xfc	; 252
   052B FF                 1680 	.db #0xff	; 255
   052C FC                 1681 	.db #0xfc	; 252
   052D FF                 1682 	.db #0xff	; 255
   052E 00                 1683 	.db #0x00	; 0
   052F FF                 1684 	.db #0xff	; 255
   0530 00                 1685 	.db #0x00	; 0
   0531 FF                 1686 	.db #0xff	; 255
   0532 00                 1687 	.db #0x00	; 0
   0533 FF                 1688 	.db #0xff	; 255
   0534 00                 1689 	.db #0x00	; 0
   0535 FF                 1690 	.db #0xff	; 255
   0536 00                 1691 	.db #0x00	; 0
   0537 FF                 1692 	.db #0xff	; 255
   0538 00                 1693 	.db #0x00	; 0
   0539 FF                 1694 	.db #0xff	; 255
   053A 00                 1695 	.db #0x00	; 0
   053B FF                 1696 	.db #0xff	; 255
   053C 07                 1697 	.db #0x07	; 7
   053D FF                 1698 	.db #0xff	; 255
   053E 00                 1699 	.db #0x00	; 0
   053F FF                 1700 	.db #0xff	; 255
   0540 00                 1701 	.db #0x00	; 0
   0541 FF                 1702 	.db #0xff	; 255
   0542 00                 1703 	.db #0x00	; 0
   0543 FF                 1704 	.db #0xff	; 255
   0544 00                 1705 	.db #0x00	; 0
   0545 FF                 1706 	.db #0xff	; 255
   0546 00                 1707 	.db #0x00	; 0
   0547 FF                 1708 	.db #0xff	; 255
   0548 00                 1709 	.db #0x00	; 0
   0549 FF                 1710 	.db #0xff	; 255
   054A 00                 1711 	.db #0x00	; 0
   054B FF                 1712 	.db #0xff	; 255
   054C E0                 1713 	.db #0xe0	; 224
   054D FF                 1714 	.db #0xff	; 255
   054E 00                 1715 	.db #0x00	; 0
   054F FF                 1716 	.db #0xff	; 255
   0550 00                 1717 	.db #0x00	; 0
   0551 FF                 1718 	.db #0xff	; 255
   0552 00                 1719 	.db #0x00	; 0
   0553 FF                 1720 	.db #0xff	; 255
   0554 00                 1721 	.db #0x00	; 0
   0555 FF                 1722 	.db #0xff	; 255
   0556 00                 1723 	.db #0x00	; 0
   0557 FF                 1724 	.db #0xff	; 255
   0558 00                 1725 	.db #0x00	; 0
   0559 FF                 1726 	.db #0xff	; 255
   055A 00                 1727 	.db #0x00	; 0
   055B FF                 1728 	.db #0xff	; 255
   055C 7E                 1729 	.db #0x7e	; 126
   055D FF                 1730 	.db #0xff	; 255
   055E 00                 1731 	.db #0x00	; 0
   055F FF                 1732 	.db #0xff	; 255
   0560 00                 1733 	.db #0x00	; 0
   0561 FF                 1734 	.db #0xff	; 255
   0562 00                 1735 	.db #0x00	; 0
   0563 FF                 1736 	.db #0xff	; 255
   0564 00                 1737 	.db #0x00	; 0
   0565 FF                 1738 	.db #0xff	; 255
   0566 00                 1739 	.db #0x00	; 0
   0567 FF                 1740 	.db #0xff	; 255
   0568 00                 1741 	.db #0x00	; 0
   0569 FF                 1742 	.db #0xff	; 255
   056A 00                 1743 	.db #0x00	; 0
   056B FF                 1744 	.db #0xff	; 255
   056C FF                 1745 	.db #0xff	; 255
   056D FF                 1746 	.db #0xff	; 255
   056E 00                 1747 	.db #0x00	; 0
   056F FF                 1748 	.db #0xff	; 255
   0570 00                 1749 	.db #0x00	; 0
   0571 FF                 1750 	.db #0xff	; 255
   0572 00                 1751 	.db #0x00	; 0
   0573 FF                 1752 	.db #0xff	; 255
   0574 00                 1753 	.db #0x00	; 0
   0575 FF                 1754 	.db #0xff	; 255
   0576 00                 1755 	.db #0x00	; 0
   0577 FF                 1756 	.db #0xff	; 255
   0578 00                 1757 	.db #0x00	; 0
   0579 FF                 1758 	.db #0xff	; 255
   057A 00                 1759 	.db #0x00	; 0
   057B FF                 1760 	.db #0xff	; 255
   057C 03                 1761 	.db #0x03	; 3
   057D FF                 1762 	.db #0xff	; 255
   057E 00                 1763 	.db #0x00	; 0
   057F FF                 1764 	.db #0xff	; 255
   0580 00                 1765 	.db #0x00	; 0
   0581 FF                 1766 	.db #0xff	; 255
   0582 00                 1767 	.db #0x00	; 0
   0583 FF                 1768 	.db #0xff	; 255
   0584 00                 1769 	.db #0x00	; 0
   0585 FF                 1770 	.db #0xff	; 255
   0586 00                 1771 	.db #0x00	; 0
   0587 FF                 1772 	.db #0xff	; 255
   0588 00                 1773 	.db #0x00	; 0
   0589 FF                 1774 	.db #0xff	; 255
   058A 00                 1775 	.db #0x00	; 0
   058B FF                 1776 	.db #0xff	; 255
   058C F0                 1777 	.db #0xf0	; 240
   058D FF                 1778 	.db #0xff	; 255
   058E 7F                 1779 	.db #0x7f	; 127
   058F FF                 1780 	.db #0xff	; 255
   0590 7F                 1781 	.db #0x7f	; 127
   0591 FF                 1782 	.db #0xff	; 255
   0592 7F                 1783 	.db #0x7f	; 127
   0593 FF                 1784 	.db #0xff	; 255
   0594 7F                 1785 	.db #0x7f	; 127
   0595 FF                 1786 	.db #0xff	; 255
   0596 7F                 1787 	.db #0x7f	; 127
   0597 FF                 1788 	.db #0xff	; 255
   0598 7F                 1789 	.db #0x7f	; 127
   0599 FF                 1790 	.db #0xff	; 255
   059A 7F                 1791 	.db #0x7f	; 127
   059B FF                 1792 	.db #0xff	; 255
   059C 7F                 1793 	.db #0x7f	; 127
   059D 03                 1794 	.db #0x03	; 3
   059E FF                 1795 	.db #0xff	; 255
   059F 87                 1796 	.db #0x87	; 135
   05A0 FF                 1797 	.db #0xff	; 255
   05A1 87                 1798 	.db #0x87	; 135
   05A2 FF                 1799 	.db #0xff	; 255
   05A3 CF                 1800 	.db #0xcf	; 207
   05A4 FF                 1801 	.db #0xff	; 255
   05A5 CF                 1802 	.db #0xcf	; 207
   05A6 FF                 1803 	.db #0xff	; 255
   05A7 FF                 1804 	.db #0xff	; 255
   05A8 FF                 1805 	.db #0xff	; 255
   05A9 FF                 1806 	.db #0xff	; 255
   05AA FF                 1807 	.db #0xff	; 255
   05AB FF                 1808 	.db #0xff	; 255
   05AC FF                 1809 	.db #0xff	; 255
   05AD FF                 1810 	.db #0xff	; 255
   05AE FF                 1811 	.db #0xff	; 255
   05AF FF                 1812 	.db #0xff	; 255
   05B0 FF                 1813 	.db #0xff	; 255
   05B1 FF                 1814 	.db #0xff	; 255
   05B2 FF                 1815 	.db #0xff	; 255
   05B3 FF                 1816 	.db #0xff	; 255
   05B4 FF                 1817 	.db #0xff	; 255
   05B5 FF                 1818 	.db #0xff	; 255
   05B6 FF                 1819 	.db #0xff	; 255
   05B7 FF                 1820 	.db #0xff	; 255
   05B8 FF                 1821 	.db #0xff	; 255
   05B9 FF                 1822 	.db #0xff	; 255
   05BA FF                 1823 	.db #0xff	; 255
   05BB FF                 1824 	.db #0xff	; 255
   05BC FF                 1825 	.db #0xff	; 255
   05BD FF                 1826 	.db #0xff	; 255
   05BE FC                 1827 	.db #0xfc	; 252
   05BF FF                 1828 	.db #0xff	; 255
   05C0 FC                 1829 	.db #0xfc	; 252
   05C1 FF                 1830 	.db #0xff	; 255
   05C2 FC                 1831 	.db #0xfc	; 252
   05C3 FF                 1832 	.db #0xff	; 255
   05C4 FC                 1833 	.db #0xfc	; 252
   05C5 FF                 1834 	.db #0xff	; 255
   05C6 FC                 1835 	.db #0xfc	; 252
   05C7 FF                 1836 	.db #0xff	; 255
   05C8 FC                 1837 	.db #0xfc	; 252
   05C9 FF                 1838 	.db #0xff	; 255
   05CA FC                 1839 	.db #0xfc	; 252
   05CB FF                 1840 	.db #0xff	; 255
   05CC FC                 1841 	.db #0xfc	; 252
   05CD FF                 1842 	.db #0xff	; 255
   05CE 07                 1843 	.db #0x07	; 7
   05CF FF                 1844 	.db #0xff	; 255
   05D0 07                 1845 	.db #0x07	; 7
   05D1 FF                 1846 	.db #0xff	; 255
   05D2 07                 1847 	.db #0x07	; 7
   05D3 FF                 1848 	.db #0xff	; 255
   05D4 07                 1849 	.db #0x07	; 7
   05D5 FF                 1850 	.db #0xff	; 255
   05D6 07                 1851 	.db #0x07	; 7
   05D7 FF                 1852 	.db #0xff	; 255
   05D8 07                 1853 	.db #0x07	; 7
   05D9 FF                 1854 	.db #0xff	; 255
   05DA 00                 1855 	.db #0x00	; 0
   05DB FF                 1856 	.db #0xff	; 255
   05DC 00                 1857 	.db #0x00	; 0
   05DD FF                 1858 	.db #0xff	; 255
   05DE E0                 1859 	.db #0xe0	; 224
   05DF FF                 1860 	.db #0xff	; 255
   05E0 E0                 1861 	.db #0xe0	; 224
   05E1 FF                 1862 	.db #0xff	; 255
   05E2 E0                 1863 	.db #0xe0	; 224
   05E3 FF                 1864 	.db #0xff	; 255
   05E4 E0                 1865 	.db #0xe0	; 224
   05E5 FF                 1866 	.db #0xff	; 255
   05E6 E0                 1867 	.db #0xe0	; 224
   05E7 FF                 1868 	.db #0xff	; 255
   05E8 E0                 1869 	.db #0xe0	; 224
   05E9 FF                 1870 	.db #0xff	; 255
   05EA FF                 1871 	.db #0xff	; 255
   05EB FF                 1872 	.db #0xff	; 255
   05EC FF                 1873 	.db #0xff	; 255
   05ED FF                 1874 	.db #0xff	; 255
   05EE 7E                 1875 	.db #0x7e	; 126
   05EF FF                 1876 	.db #0xff	; 255
   05F0 7E                 1877 	.db #0x7e	; 126
   05F1 FF                 1878 	.db #0xff	; 255
   05F2 7E                 1879 	.db #0x7e	; 126
   05F3 FF                 1880 	.db #0xff	; 255
   05F4 7E                 1881 	.db #0x7e	; 126
   05F5 FF                 1882 	.db #0xff	; 255
   05F6 7E                 1883 	.db #0x7e	; 126
   05F7 FF                 1884 	.db #0xff	; 255
   05F8 7E                 1885 	.db #0x7e	; 126
   05F9 FF                 1886 	.db #0xff	; 255
   05FA F0                 1887 	.db #0xf0	; 240
   05FB FF                 1888 	.db #0xff	; 255
   05FC F0                 1889 	.db #0xf0	; 240
   05FD FF                 1890 	.db #0xff	; 255
   05FE 07                 1891 	.db #0x07	; 7
   05FF FF                 1892 	.db #0xff	; 255
   0600 07                 1893 	.db #0x07	; 7
   0601 FF                 1894 	.db #0xff	; 255
   0602 7F                 1895 	.db #0x7f	; 127
   0603 FF                 1896 	.db #0xff	; 255
   0604 7F                 1897 	.db #0x7f	; 127
   0605 FF                 1898 	.db #0xff	; 255
   0606 7F                 1899 	.db #0x7f	; 127
   0607 FF                 1900 	.db #0xff	; 255
   0608 7F                 1901 	.db #0x7f	; 127
   0609 FF                 1902 	.db #0xff	; 255
   060A 7F                 1903 	.db #0x7f	; 127
   060B FF                 1904 	.db #0xff	; 255
   060C 7F                 1905 	.db #0x7f	; 127
   060D FF                 1906 	.db #0xff	; 255
   060E FF                 1907 	.db #0xff	; 255
   060F FF                 1908 	.db #0xff	; 255
   0610 FF                 1909 	.db #0xff	; 255
   0611 FF                 1910 	.db #0xff	; 255
   0612 00                 1911 	.db #0x00	; 0
   0613 FF                 1912 	.db #0xff	; 255
   0614 00                 1913 	.db #0x00	; 0
   0615 FF                 1914 	.db #0xff	; 255
   0616 00                 1915 	.db #0x00	; 0
   0617 FF                 1916 	.db #0xff	; 255
   0618 00                 1917 	.db #0x00	; 0
   0619 FF                 1918 	.db #0xff	; 255
   061A 00                 1919 	.db #0x00	; 0
   061B FF                 1920 	.db #0xff	; 255
   061C 00                 1921 	.db #0x00	; 0
   061D FF                 1922 	.db #0xff	; 255
   061E E0                 1923 	.db #0xe0	; 224
   061F FF                 1924 	.db #0xff	; 255
   0620 E0                 1925 	.db #0xe0	; 224
   0621 FF                 1926 	.db #0xff	; 255
   0622 FC                 1927 	.db #0xfc	; 252
   0623 FF                 1928 	.db #0xff	; 255
   0624 FC                 1929 	.db #0xfc	; 252
   0625 FF                 1930 	.db #0xff	; 255
   0626 FC                 1931 	.db #0xfc	; 252
   0627 FF                 1932 	.db #0xff	; 255
   0628 FC                 1933 	.db #0xfc	; 252
   0629 FF                 1934 	.db #0xff	; 255
   062A FC                 1935 	.db #0xfc	; 252
   062B FF                 1936 	.db #0xff	; 255
   062C FC                 1937 	.db #0xfc	; 252
   062D FF                 1938 	.db #0xff	; 255
   062E E0                 1939 	.db #0xe0	; 224
   062F FF                 1940 	.db #0xff	; 255
   0630 E0                 1941 	.db #0xe0	; 224
   0631 FF                 1942 	.db #0xff	; 255
   0632 E0                 1943 	.db #0xe0	; 224
   0633 FF                 1944 	.db #0xff	; 255
   0634 E0                 1945 	.db #0xe0	; 224
   0635 FF                 1946 	.db #0xff	; 255
   0636 E0                 1947 	.db #0xe0	; 224
   0637 FF                 1948 	.db #0xff	; 255
   0638 E0                 1949 	.db #0xe0	; 224
   0639 FF                 1950 	.db #0xff	; 255
   063A E0                 1951 	.db #0xe0	; 224
   063B FF                 1952 	.db #0xff	; 255
   063C E0                 1953 	.db #0xe0	; 224
   063D FF                 1954 	.db #0xff	; 255
   063E 03                 1955 	.db #0x03	; 3
   063F FF                 1956 	.db #0xff	; 255
   0640 03                 1957 	.db #0x03	; 3
   0641 FF                 1958 	.db #0xff	; 255
   0642 03                 1959 	.db #0x03	; 3
   0643 FF                 1960 	.db #0xff	; 255
   0644 03                 1961 	.db #0x03	; 3
   0645 FF                 1962 	.db #0xff	; 255
   0646 03                 1963 	.db #0x03	; 3
   0647 FF                 1964 	.db #0xff	; 255
   0648 03                 1965 	.db #0x03	; 3
   0649 FF                 1966 	.db #0xff	; 255
   064A 03                 1967 	.db #0x03	; 3
   064B FF                 1968 	.db #0xff	; 255
   064C 03                 1969 	.db #0x03	; 3
   064D FF                 1970 	.db #0xff	; 255
   064E F0                 1971 	.db #0xf0	; 240
   064F FF                 1972 	.db #0xff	; 255
   0650 F0                 1973 	.db #0xf0	; 240
   0651 FF                 1974 	.db #0xff	; 255
   0652 F0                 1975 	.db #0xf0	; 240
   0653 FF                 1976 	.db #0xff	; 255
   0654 F0                 1977 	.db #0xf0	; 240
   0655 FF                 1978 	.db #0xff	; 255
   0656 F0                 1979 	.db #0xf0	; 240
   0657 FF                 1980 	.db #0xff	; 255
   0658 F0                 1981 	.db #0xf0	; 240
   0659 FF                 1982 	.db #0xff	; 255
   065A F0                 1983 	.db #0xf0	; 240
   065B FF                 1984 	.db #0xff	; 255
   065C F0                 1985 	.db #0xf0	; 240
   065D FF                 1986 	.db #0xff	; 255
   065E FF                 1987 	.db #0xff	; 255
   065F FF                 1988 	.db #0xff	; 255
   0660 FF                 1989 	.db #0xff	; 255
   0661 FF                 1990 	.db #0xff	; 255
   0662 1F                 1991 	.db #0x1f	; 31
   0663 FF                 1992 	.db #0xff	; 255
   0664 1F                 1993 	.db #0x1f	; 31
   0665 FF                 1994 	.db #0xff	; 255
   0666 1F                 1995 	.db #0x1f	; 31
   0667 FF                 1996 	.db #0xff	; 255
   0668 1F                 1997 	.db #0x1f	; 31
   0669 FF                 1998 	.db #0xff	; 255
   066A 1F                 1999 	.db #0x1f	; 31
   066B FF                 2000 	.db #0xff	; 255
   066C 1F                 2001 	.db #0x1f	; 31
   066D FF                 2002 	.db #0xff	; 255
   066E F0                 2003 	.db #0xf0	; 240
   066F FF                 2004 	.db #0xff	; 255
   0670 F0                 2005 	.db #0xf0	; 240
   0671 FF                 2006 	.db #0xff	; 255
   0672 80                 2007 	.db #0x80	; 128
   0673 FF                 2008 	.db #0xff	; 255
   0674 80                 2009 	.db #0x80	; 128
   0675 FF                 2010 	.db #0xff	; 255
   0676 80                 2011 	.db #0x80	; 128
   0677 FF                 2012 	.db #0xff	; 255
   0678 80                 2013 	.db #0x80	; 128
   0679 FF                 2014 	.db #0xff	; 255
   067A 80                 2015 	.db #0x80	; 128
   067B FF                 2016 	.db #0xff	; 255
   067C 80                 2017 	.db #0x80	; 128
   067D FF                 2018 	.db #0xff	; 255
   067E 03                 2019 	.db #0x03	; 3
   067F FF                 2020 	.db #0xff	; 255
   0680 03                 2021 	.db #0x03	; 3
   0681 FF                 2022 	.db #0xff	; 255
   0682 03                 2023 	.db #0x03	; 3
   0683 FF                 2024 	.db #0xff	; 255
   0684 03                 2025 	.db #0x03	; 3
   0685 FF                 2026 	.db #0xff	; 255
   0686 03                 2027 	.db #0x03	; 3
   0687 FF                 2028 	.db #0xff	; 255
   0688 3F                 2029 	.db #0x3f	; 63
   0689 FF                 2030 	.db #0xff	; 255
   068A 3F                 2031 	.db #0x3f	; 63
   068B FF                 2032 	.db #0xff	; 255
   068C 3F                 2033 	.db #0x3f	; 63
   068D FF                 2034 	.db #0xff	; 255
   068E 7F                 2035 	.db #0x7f	; 127
   068F FF                 2036 	.db #0xff	; 255
   0690 7F                 2037 	.db #0x7f	; 127
   0691 FF                 2038 	.db #0xff	; 255
   0692 7F                 2039 	.db #0x7f	; 127
   0693 FF                 2040 	.db #0xff	; 255
   0694 7F                 2041 	.db #0x7f	; 127
   0695 FF                 2042 	.db #0xff	; 255
   0696 00                 2043 	.db #0x00	; 0
   0697 FF                 2044 	.db #0xff	; 255
   0698 00                 2045 	.db #0x00	; 0
   0699 FF                 2046 	.db #0xff	; 255
   069A 00                 2047 	.db #0x00	; 0
   069B FF                 2048 	.db #0xff	; 255
   069C 7F                 2049 	.db #0x7f	; 127
   069D FF                 2050 	.db #0xff	; 255
   069E FF                 2051 	.db #0xff	; 255
   069F FF                 2052 	.db #0xff	; 255
   06A0 FF                 2053 	.db #0xff	; 255
   06A1 FF                 2054 	.db #0xff	; 255
   06A2 FF                 2055 	.db #0xff	; 255
   06A3 FF                 2056 	.db #0xff	; 255
   06A4 FF                 2057 	.db #0xff	; 255
   06A5 FF                 2058 	.db #0xff	; 255
   06A6 00                 2059 	.db #0x00	; 0
   06A7 FF                 2060 	.db #0xff	; 255
   06A8 00                 2061 	.db #0x00	; 0
   06A9 FF                 2062 	.db #0xff	; 255
   06AA 00                 2063 	.db #0x00	; 0
   06AB FF                 2064 	.db #0xff	; 255
   06AC FF                 2065 	.db #0xff	; 255
   06AD FF                 2066 	.db #0xff	; 255
   06AE FC                 2067 	.db #0xfc	; 252
   06AF FF                 2068 	.db #0xff	; 255
   06B0 FC                 2069 	.db #0xfc	; 252
   06B1 FF                 2070 	.db #0xff	; 255
   06B2 FC                 2071 	.db #0xfc	; 252
   06B3 FF                 2072 	.db #0xff	; 255
   06B4 FC                 2073 	.db #0xfc	; 252
   06B5 FF                 2074 	.db #0xff	; 255
   06B6 00                 2075 	.db #0x00	; 0
   06B7 FF                 2076 	.db #0xff	; 255
   06B8 00                 2077 	.db #0x00	; 0
   06B9 FF                 2078 	.db #0xff	; 255
   06BA 00                 2079 	.db #0x00	; 0
   06BB FF                 2080 	.db #0xff	; 255
   06BC FC                 2081 	.db #0xfc	; 252
   06BD FF                 2082 	.db #0xff	; 255
   06BE 1F                 2083 	.db #0x1f	; 31
   06BF FF                 2084 	.db #0xff	; 255
   06C0 1F                 2085 	.db #0x1f	; 31
   06C1 FF                 2086 	.db #0xff	; 255
   06C2 1F                 2087 	.db #0x1f	; 31
   06C3 FF                 2088 	.db #0xff	; 255
   06C4 1F                 2089 	.db #0x1f	; 31
   06C5 FF                 2090 	.db #0xff	; 255
   06C6 00                 2091 	.db #0x00	; 0
   06C7 FF                 2092 	.db #0xff	; 255
   06C8 00                 2093 	.db #0x00	; 0
   06C9 FF                 2094 	.db #0xff	; 255
   06CA 00                 2095 	.db #0x00	; 0
   06CB FF                 2096 	.db #0xff	; 255
   06CC 00                 2097 	.db #0x00	; 0
   06CD FF                 2098 	.db #0xff	; 255
   06CE 80                 2099 	.db #0x80	; 128
   06CF FF                 2100 	.db #0xff	; 255
   06D0 80                 2101 	.db #0x80	; 128
   06D1 FF                 2102 	.db #0xff	; 255
   06D2 80                 2103 	.db #0x80	; 128
   06D3 FF                 2104 	.db #0xff	; 255
   06D4 80                 2105 	.db #0x80	; 128
   06D5 FF                 2106 	.db #0xff	; 255
   06D6 00                 2107 	.db #0x00	; 0
   06D7 FF                 2108 	.db #0xff	; 255
   06D8 00                 2109 	.db #0x00	; 0
   06D9 FF                 2110 	.db #0xff	; 255
   06DA 00                 2111 	.db #0x00	; 0
   06DB FF                 2112 	.db #0xff	; 255
   06DC 00                 2113 	.db #0x00	; 0
   06DD FF                 2114 	.db #0xff	; 255
   06DE 07                 2115 	.db #0x07	; 7
   06DF FF                 2116 	.db #0xff	; 255
   06E0 07                 2117 	.db #0x07	; 7
   06E1 FF                 2118 	.db #0xff	; 255
   06E2 07                 2119 	.db #0x07	; 7
   06E3 FF                 2120 	.db #0xff	; 255
   06E4 07                 2121 	.db #0x07	; 7
   06E5 FF                 2122 	.db #0xff	; 255
   06E6 00                 2123 	.db #0x00	; 0
   06E7 FF                 2124 	.db #0xff	; 255
   06E8 00                 2125 	.db #0x00	; 0
   06E9 FF                 2126 	.db #0xff	; 255
   06EA 00                 2127 	.db #0x00	; 0
   06EB FF                 2128 	.db #0xff	; 255
   06EC 00                 2129 	.db #0x00	; 0
   06ED FF                 2130 	.db #0xff	; 255
   06EE FF                 2131 	.db #0xff	; 255
   06EF FF                 2132 	.db #0xff	; 255
   06F0 FF                 2133 	.db #0xff	; 255
   06F1 FF                 2134 	.db #0xff	; 255
   06F2 FF                 2135 	.db #0xff	; 255
   06F3 FF                 2136 	.db #0xff	; 255
   06F4 FF                 2137 	.db #0xff	; 255
   06F5 FF                 2138 	.db #0xff	; 255
   06F6 00                 2139 	.db #0x00	; 0
   06F7 FF                 2140 	.db #0xff	; 255
   06F8 00                 2141 	.db #0x00	; 0
   06F9 FF                 2142 	.db #0xff	; 255
   06FA 00                 2143 	.db #0x00	; 0
   06FB FF                 2144 	.db #0xff	; 255
   06FC 00                 2145 	.db #0x00	; 0
   06FD FF                 2146 	.db #0xff	; 255
   06FE E0                 2147 	.db #0xe0	; 224
   06FF FF                 2148 	.db #0xff	; 255
   0700 E0                 2149 	.db #0xe0	; 224
   0701 FF                 2150 	.db #0xff	; 255
   0702 E0                 2151 	.db #0xe0	; 224
   0703 FF                 2152 	.db #0xff	; 255
   0704 E0                 2153 	.db #0xe0	; 224
   0705 FF                 2154 	.db #0xff	; 255
   0706 00                 2155 	.db #0x00	; 0
   0707 FF                 2156 	.db #0xff	; 255
   0708 00                 2157 	.db #0x00	; 0
   0709 FF                 2158 	.db #0xff	; 255
   070A 00                 2159 	.db #0x00	; 0
   070B FF                 2160 	.db #0xff	; 255
   070C 00                 2161 	.db #0x00	; 0
   070D FF                 2162 	.db #0xff	; 255
   070E E0                 2163 	.db #0xe0	; 224
   070F FF                 2164 	.db #0xff	; 255
   0710 1F                 2165 	.db #0x1f	; 31
   0711 FF                 2166 	.db #0xff	; 255
   0712 1F                 2167 	.db #0x1f	; 31
   0713 FF                 2168 	.db #0xff	; 255
   0714 1F                 2169 	.db #0x1f	; 31
   0715 FF                 2170 	.db #0xff	; 255
   0716 00                 2171 	.db #0x00	; 0
   0717 FF                 2172 	.db #0xff	; 255
   0718 00                 2173 	.db #0x00	; 0
   0719 FF                 2174 	.db #0xff	; 255
   071A 00                 2175 	.db #0x00	; 0
   071B FF                 2176 	.db #0xff	; 255
   071C 00                 2177 	.db #0x00	; 0
   071D FF                 2178 	.db #0xff	; 255
   071E 3F                 2179 	.db #0x3f	; 63
   071F FF                 2180 	.db #0xff	; 255
   0720 FF                 2181 	.db #0xff	; 255
   0721 FF                 2182 	.db #0xff	; 255
   0722 FF                 2183 	.db #0xff	; 255
   0723 FF                 2184 	.db #0xff	; 255
   0724 FF                 2185 	.db #0xff	; 255
   0725 FF                 2186 	.db #0xff	; 255
   0726 00                 2187 	.db #0x00	; 0
   0727 FF                 2188 	.db #0xff	; 255
   0728 00                 2189 	.db #0x00	; 0
   0729 FF                 2190 	.db #0xff	; 255
   072A 00                 2191 	.db #0x00	; 0
   072B FF                 2192 	.db #0xff	; 255
   072C 00                 2193 	.db #0x00	; 0
   072D FF                 2194 	.db #0xff	; 255
   072E F0                 2195 	.db #0xf0	; 240
   072F FF                 2196 	.db #0xff	; 255
   0730 80                 2197 	.db #0x80	; 128
   0731 FF                 2198 	.db #0xff	; 255
   0732 80                 2199 	.db #0x80	; 128
   0733 FF                 2200 	.db #0xff	; 255
   0734 80                 2201 	.db #0x80	; 128
   0735 FF                 2202 	.db #0xff	; 255
   0736 00                 2203 	.db #0x00	; 0
   0737 FF                 2204 	.db #0xff	; 255
   0738 00                 2205 	.db #0x00	; 0
   0739 FF                 2206 	.db #0xff	; 255
   073A 00                 2207 	.db #0x00	; 0
   073B FF                 2208 	.db #0xff	; 255
   073C 00                 2209 	.db #0x00	; 0
   073D FF                 2210 	.db #0xff	; 255
   073E FF                 2211 	.db #0xff	; 255
   073F FF                 2212 	.db #0xff	; 255
   0740 FF                 2213 	.db #0xff	; 255
   0741 FF                 2214 	.db #0xff	; 255
   0742 FF                 2215 	.db #0xff	; 255
   0743 F0                 2216 	.db #0xf0	; 240
   0744 FF                 2217 	.db #0xff	; 255
   0745 F0                 2218 	.db #0xf0	; 240
   0746 FF                 2219 	.db #0xff	; 255
   0747 F0                 2220 	.db #0xf0	; 240
   0748 FF                 2221 	.db #0xff	; 255
   0749 F0                 2222 	.db #0xf0	; 240
   074A FF                 2223 	.db #0xff	; 255
   074B F0                 2224 	.db #0xf0	; 240
   074C FF                 2225 	.db #0xff	; 255
   074D FF                 2226 	.db #0xff	; 255
   074E FF                 2227 	.db #0xff	; 255
   074F FF                 2228 	.db #0xff	; 255
   0750 FF                 2229 	.db #0xff	; 255
   0751 FF                 2230 	.db #0xff	; 255
   0752 FF                 2231 	.db #0xff	; 255
   0753 00                 2232 	.db #0x00	; 0
   0754 FF                 2233 	.db #0xff	; 255
   0755 00                 2234 	.db #0x00	; 0
   0756 FF                 2235 	.db #0xff	; 255
   0757 00                 2236 	.db #0x00	; 0
   0758 FF                 2237 	.db #0xff	; 255
   0759 00                 2238 	.db #0x00	; 0
   075A FF                 2239 	.db #0xff	; 255
   075B 00                 2240 	.db #0x00	; 0
   075C FF                 2241 	.db #0xff	; 255
   075D FF                 2242 	.db #0xff	; 255
   075E FF                 2243 	.db #0xff	; 255
   075F FF                 2244 	.db #0xff	; 255
   0760 FF                 2245 	.db #0xff	; 255
   0761 FF                 2246 	.db #0xff	; 255
   0762 FF                 2247 	.db #0xff	; 255
   0763 1F                 2248 	.db #0x1f	; 31
   0764 E0                 2249 	.db #0xe0	; 224
   0765 1F                 2250 	.db #0x1f	; 31
   0766 E0                 2251 	.db #0xe0	; 224
   0767 1F                 2252 	.db #0x1f	; 31
   0768 E0                 2253 	.db #0xe0	; 224
   0769 1F                 2254 	.db #0x1f	; 31
   076A E0                 2255 	.db #0xe0	; 224
   076B 1F                 2256 	.db #0x1f	; 31
   076C E0                 2257 	.db #0xe0	; 224
   076D FF                 2258 	.db #0xff	; 255
   076E FF                 2259 	.db #0xff	; 255
   076F FF                 2260 	.db #0xff	; 255
   0770 FF                 2261 	.db #0xff	; 255
   0771 FF                 2262 	.db #0xff	; 255
   0772 FF                 2263 	.db #0xff	; 255
   0773 FC                 2264 	.db #0xfc	; 252
   0774 03                 2265 	.db #0x03	; 3
   0775 FC                 2266 	.db #0xfc	; 252
   0776 03                 2267 	.db #0x03	; 3
   0777 FC                 2268 	.db #0xfc	; 252
   0778 03                 2269 	.db #0x03	; 3
   0779 FC                 2270 	.db #0xfc	; 252
   077A 03                 2271 	.db #0x03	; 3
   077B FC                 2272 	.db #0xfc	; 252
   077C 03                 2273 	.db #0x03	; 3
   077D FF                 2274 	.db #0xff	; 255
   077E FF                 2275 	.db #0xff	; 255
   077F FF                 2276 	.db #0xff	; 255
   0780 FF                 2277 	.db #0xff	; 255
   0781 FF                 2278 	.db #0xff	; 255
   0782 FF                 2279 	.db #0xff	; 255
   0783 7F                 2280 	.db #0x7f	; 127
   0784 FF                 2281 	.db #0xff	; 255
   0785 7F                 2282 	.db #0x7f	; 127
   0786 FF                 2283 	.db #0xff	; 255
   0787 7F                 2284 	.db #0x7f	; 127
   0788 FF                 2285 	.db #0xff	; 255
   0789 7F                 2286 	.db #0x7f	; 127
   078A FF                 2287 	.db #0xff	; 255
   078B 7F                 2288 	.db #0x7f	; 127
   078C FF                 2289 	.db #0xff	; 255
   078D FF                 2290 	.db #0xff	; 255
   078E 00                 2291 	.db #0x00	; 0
   078F FF                 2292 	.db #0xff	; 255
   0790 00                 2293 	.db #0x00	; 0
   0791 FF                 2294 	.db #0xff	; 255
   0792 07                 2295 	.db #0x07	; 7
   0793 FF                 2296 	.db #0xff	; 255
   0794 07                 2297 	.db #0x07	; 7
   0795 FF                 2298 	.db #0xff	; 255
   0796 07                 2299 	.db #0x07	; 7
   0797 FF                 2300 	.db #0xff	; 255
   0798 07                 2301 	.db #0x07	; 7
   0799 FF                 2302 	.db #0xff	; 255
   079A 07                 2303 	.db #0x07	; 7
   079B FF                 2304 	.db #0xff	; 255
   079C 07                 2305 	.db #0x07	; 7
   079D FF                 2306 	.db #0xff	; 255
   079E 00                 2307 	.db #0x00	; 0
   079F FF                 2308 	.db #0xff	; 255
   07A0 00                 2309 	.db #0x00	; 0
   07A1 FF                 2310 	.db #0xff	; 255
   07A2 80                 2311 	.db #0x80	; 128
   07A3 FF                 2312 	.db #0xff	; 255
   07A4 80                 2313 	.db #0x80	; 128
   07A5 FF                 2314 	.db #0xff	; 255
   07A6 80                 2315 	.db #0x80	; 128
   07A7 FF                 2316 	.db #0xff	; 255
   07A8 80                 2317 	.db #0x80	; 128
   07A9 FF                 2318 	.db #0xff	; 255
   07AA 80                 2319 	.db #0x80	; 128
   07AB FF                 2320 	.db #0xff	; 255
   07AC 80                 2321 	.db #0x80	; 128
   07AD FF                 2322 	.db #0xff	; 255
   07AE 00                 2323 	.db #0x00	; 0
   07AF FF                 2324 	.db #0xff	; 255
   07B0 00                 2325 	.db #0x00	; 0
   07B1 FF                 2326 	.db #0xff	; 255
   07B2 1F                 2327 	.db #0x1f	; 31
   07B3 FF                 2328 	.db #0xff	; 255
   07B4 1F                 2329 	.db #0x1f	; 31
   07B5 FF                 2330 	.db #0xff	; 255
   07B6 1F                 2331 	.db #0x1f	; 31
   07B7 FF                 2332 	.db #0xff	; 255
   07B8 1F                 2333 	.db #0x1f	; 31
   07B9 FF                 2334 	.db #0xff	; 255
   07BA 1F                 2335 	.db #0x1f	; 31
   07BB FF                 2336 	.db #0xff	; 255
   07BC 1F                 2337 	.db #0x1f	; 31
   07BD FF                 2338 	.db #0xff	; 255
   07BE 00                 2339 	.db #0x00	; 0
   07BF FF                 2340 	.db #0xff	; 255
   07C0 00                 2341 	.db #0x00	; 0
   07C1 FF                 2342 	.db #0xff	; 255
   07C2 C0                 2343 	.db #0xc0	; 192
   07C3 FF                 2344 	.db #0xff	; 255
   07C4 C0                 2345 	.db #0xc0	; 192
   07C5 FF                 2346 	.db #0xff	; 255
   07C6 C0                 2347 	.db #0xc0	; 192
   07C7 FF                 2348 	.db #0xff	; 255
   07C8 CF                 2349 	.db #0xcf	; 207
   07C9 FF                 2350 	.db #0xff	; 255
   07CA CF                 2351 	.db #0xcf	; 207
   07CB FF                 2352 	.db #0xff	; 255
   07CC CF                 2353 	.db #0xcf	; 207
   07CD FF                 2354 	.db #0xff	; 255
   07CE 00                 2355 	.db #0x00	; 0
   07CF FF                 2356 	.db #0xff	; 255
   07D0 00                 2357 	.db #0x00	; 0
   07D1 FF                 2358 	.db #0xff	; 255
   07D2 FF                 2359 	.db #0xff	; 255
   07D3 FF                 2360 	.db #0xff	; 255
   07D4 FF                 2361 	.db #0xff	; 255
   07D5 FF                 2362 	.db #0xff	; 255
   07D6 FF                 2363 	.db #0xff	; 255
   07D7 FF                 2364 	.db #0xff	; 255
   07D8 E0                 2365 	.db #0xe0	; 224
   07D9 FF                 2366 	.db #0xff	; 255
   07DA E0                 2367 	.db #0xe0	; 224
   07DB FF                 2368 	.db #0xff	; 255
   07DC E0                 2369 	.db #0xe0	; 224
   07DD FF                 2370 	.db #0xff	; 255
   07DE 00                 2371 	.db #0x00	; 0
   07DF FF                 2372 	.db #0xff	; 255
   07E0 00                 2373 	.db #0x00	; 0
   07E1 FF                 2374 	.db #0xff	; 255
   07E2 FC                 2375 	.db #0xfc	; 252
   07E3 FF                 2376 	.db #0xff	; 255
   07E4 FC                 2377 	.db #0xfc	; 252
   07E5 FF                 2378 	.db #0xff	; 255
   07E6 FC                 2379 	.db #0xfc	; 252
   07E7 FF                 2380 	.db #0xff	; 255
   07E8 1F                 2381 	.db #0x1f	; 31
   07E9 FF                 2382 	.db #0xff	; 255
   07EA 1F                 2383 	.db #0x1f	; 31
   07EB FF                 2384 	.db #0xff	; 255
   07EC 1F                 2385 	.db #0x1f	; 31
   07ED FF                 2386 	.db #0xff	; 255
   07EE 00                 2387 	.db #0x00	; 0
   07EF FF                 2388 	.db #0xff	; 255
   07F0 00                 2389 	.db #0x00	; 0
   07F1 FF                 2390 	.db #0xff	; 255
   07F2 1C                 2391 	.db #0x1c	; 28
   07F3 FF                 2392 	.db #0xff	; 255
   07F4 1C                 2393 	.db #0x1c	; 28
   07F5 FF                 2394 	.db #0xff	; 255
   07F6 1C                 2395 	.db #0x1c	; 28
   07F7 FF                 2396 	.db #0xff	; 255
   07F8 9C                 2397 	.db #0x9c	; 156
   07F9 FF                 2398 	.db #0xff	; 255
   07FA 9F                 2399 	.db #0x9f	; 159
   07FB FF                 2400 	.db #0xff	; 255
   07FC 9F                 2401 	.db #0x9f	; 159
   07FD FF                 2402 	.db #0xff	; 255
   07FE 00                 2403 	.db #0x00	; 0
   07FF FF                 2404 	.db #0xff	; 255
   0800 00                 2405 	.db #0x00	; 0
   0801 FF                 2406 	.db #0xff	; 255
   0802 00                 2407 	.db #0x00	; 0
   0803 FF                 2408 	.db #0xff	; 255
   0804 00                 2409 	.db #0x00	; 0
   0805 FF                 2410 	.db #0xff	; 255
   0806 00                 2411 	.db #0x00	; 0
   0807 FF                 2412 	.db #0xff	; 255
   0808 00                 2413 	.db #0x00	; 0
   0809 FF                 2414 	.db #0xff	; 255
   080A C0                 2415 	.db #0xc0	; 192
   080B FF                 2416 	.db #0xff	; 255
   080C C0                 2417 	.db #0xc0	; 192
   080D FF                 2418 	.db #0xff	; 255
   080E 00                 2419 	.db #0x00	; 0
   080F FF                 2420 	.db #0xff	; 255
   0810 00                 2421 	.db #0x00	; 0
   0811 FF                 2422 	.db #0xff	; 255
   0812 7F                 2423 	.db #0x7f	; 127
   0813 FF                 2424 	.db #0xff	; 255
   0814 7F                 2425 	.db #0x7f	; 127
   0815 FF                 2426 	.db #0xff	; 255
   0816 7F                 2427 	.db #0x7f	; 127
   0817 FF                 2428 	.db #0xff	; 255
   0818 7F                 2429 	.db #0x7f	; 127
   0819 FF                 2430 	.db #0xff	; 255
   081A 7F                 2431 	.db #0x7f	; 127
   081B FF                 2432 	.db #0xff	; 255
   081C 7F                 2433 	.db #0x7f	; 127
   081D F0                 2434 	.db #0xf0	; 240
   081E FF                 2435 	.db #0xff	; 255
   081F F0                 2436 	.db #0xf0	; 240
   0820 FF                 2437 	.db #0xff	; 255
   0821 F0                 2438 	.db #0xf0	; 240
   0822 FF                 2439 	.db #0xff	; 255
   0823 F0                 2440 	.db #0xf0	; 240
   0824 FF                 2441 	.db #0xff	; 255
   0825 F0                 2442 	.db #0xf0	; 240
   0826 FF                 2443 	.db #0xff	; 255
   0827 F0                 2444 	.db #0xf0	; 240
   0828 FF                 2445 	.db #0xff	; 255
   0829 F0                 2446 	.db #0xf0	; 240
   082A FF                 2447 	.db #0xff	; 255
   082B F0                 2448 	.db #0xf0	; 240
   082C FF                 2449 	.db #0xff	; 255
   082D 00                 2450 	.db #0x00	; 0
   082E FF                 2451 	.db #0xff	; 255
   082F 00                 2452 	.db #0x00	; 0
   0830 FF                 2453 	.db #0xff	; 255
   0831 00                 2454 	.db #0x00	; 0
   0832 FF                 2455 	.db #0xff	; 255
   0833 00                 2456 	.db #0x00	; 0
   0834 FF                 2457 	.db #0xff	; 255
   0835 00                 2458 	.db #0x00	; 0
   0836 FF                 2459 	.db #0xff	; 255
   0837 00                 2460 	.db #0x00	; 0
   0838 FF                 2461 	.db #0xff	; 255
   0839 00                 2462 	.db #0x00	; 0
   083A FF                 2463 	.db #0xff	; 255
   083B 00                 2464 	.db #0x00	; 0
   083C FF                 2465 	.db #0xff	; 255
   083D 1F                 2466 	.db #0x1f	; 31
   083E E0                 2467 	.db #0xe0	; 224
   083F 1F                 2468 	.db #0x1f	; 31
   0840 E0                 2469 	.db #0xe0	; 224
   0841 1F                 2470 	.db #0x1f	; 31
   0842 E0                 2471 	.db #0xe0	; 224
   0843 1F                 2472 	.db #0x1f	; 31
   0844 E0                 2473 	.db #0xe0	; 224
   0845 1F                 2474 	.db #0x1f	; 31
   0846 E0                 2475 	.db #0xe0	; 224
   0847 1F                 2476 	.db #0x1f	; 31
   0848 E0                 2477 	.db #0xe0	; 224
   0849 1F                 2478 	.db #0x1f	; 31
   084A E0                 2479 	.db #0xe0	; 224
   084B 1F                 2480 	.db #0x1f	; 31
   084C E0                 2481 	.db #0xe0	; 224
   084D FC                 2482 	.db #0xfc	; 252
   084E 03                 2483 	.db #0x03	; 3
   084F FC                 2484 	.db #0xfc	; 252
   0850 03                 2485 	.db #0x03	; 3
   0851 FC                 2486 	.db #0xfc	; 252
   0852 03                 2487 	.db #0x03	; 3
   0853 FC                 2488 	.db #0xfc	; 252
   0854 03                 2489 	.db #0x03	; 3
   0855 FC                 2490 	.db #0xfc	; 252
   0856 03                 2491 	.db #0x03	; 3
   0857 FC                 2492 	.db #0xfc	; 252
   0858 03                 2493 	.db #0x03	; 3
   0859 FC                 2494 	.db #0xfc	; 252
   085A 03                 2495 	.db #0x03	; 3
   085B FC                 2496 	.db #0xfc	; 252
   085C 03                 2497 	.db #0x03	; 3
   085D 7F                 2498 	.db #0x7f	; 127
   085E FF                 2499 	.db #0xff	; 255
   085F 7F                 2500 	.db #0x7f	; 127
   0860 FF                 2501 	.db #0xff	; 255
   0861 7F                 2502 	.db #0x7f	; 127
   0862 FF                 2503 	.db #0xff	; 255
   0863 7F                 2504 	.db #0x7f	; 127
   0864 FF                 2505 	.db #0xff	; 255
   0865 7F                 2506 	.db #0x7f	; 127
   0866 FF                 2507 	.db #0xff	; 255
   0867 7F                 2508 	.db #0x7f	; 127
   0868 FF                 2509 	.db #0xff	; 255
   0869 7F                 2510 	.db #0x7f	; 127
   086A FF                 2511 	.db #0xff	; 255
   086B 7F                 2512 	.db #0x7f	; 127
   086C FF                 2513 	.db #0xff	; 255
   086D FF                 2514 	.db #0xff	; 255
   086E 07                 2515 	.db #0x07	; 7
   086F FF                 2516 	.db #0xff	; 255
   0870 07                 2517 	.db #0x07	; 7
   0871 FF                 2518 	.db #0xff	; 255
   0872 07                 2519 	.db #0x07	; 7
   0873 FF                 2520 	.db #0xff	; 255
   0874 07                 2521 	.db #0x07	; 7
   0875 FF                 2522 	.db #0xff	; 255
   0876 07                 2523 	.db #0x07	; 7
   0877 FF                 2524 	.db #0xff	; 255
   0878 07                 2525 	.db #0x07	; 7
   0879 FF                 2526 	.db #0xff	; 255
   087A 07                 2527 	.db #0x07	; 7
   087B FF                 2528 	.db #0xff	; 255
   087C 07                 2529 	.db #0x07	; 7
   087D FF                 2530 	.db #0xff	; 255
   087E 80                 2531 	.db #0x80	; 128
   087F FF                 2532 	.db #0xff	; 255
   0880 8F                 2533 	.db #0x8f	; 143
   0881 FF                 2534 	.db #0xff	; 255
   0882 8F                 2535 	.db #0x8f	; 143
   0883 FF                 2536 	.db #0xff	; 255
   0884 8F                 2537 	.db #0x8f	; 143
   0885 FF                 2538 	.db #0xff	; 255
   0886 8F                 2539 	.db #0x8f	; 143
   0887 FF                 2540 	.db #0xff	; 255
   0888 FF                 2541 	.db #0xff	; 255
   0889 FF                 2542 	.db #0xff	; 255
   088A FF                 2543 	.db #0xff	; 255
   088B FF                 2544 	.db #0xff	; 255
   088C FF                 2545 	.db #0xff	; 255
   088D FF                 2546 	.db #0xff	; 255
   088E 1F                 2547 	.db #0x1f	; 31
   088F FF                 2548 	.db #0xff	; 255
   0890 1F                 2549 	.db #0x1f	; 31
   0891 FF                 2550 	.db #0xff	; 255
   0892 1F                 2551 	.db #0x1f	; 31
   0893 FF                 2552 	.db #0xff	; 255
   0894 1F                 2553 	.db #0x1f	; 31
   0895 FF                 2554 	.db #0xff	; 255
   0896 1F                 2555 	.db #0x1f	; 31
   0897 FF                 2556 	.db #0xff	; 255
   0898 FF                 2557 	.db #0xff	; 255
   0899 FF                 2558 	.db #0xff	; 255
   089A FF                 2559 	.db #0xff	; 255
   089B FF                 2560 	.db #0xff	; 255
   089C FF                 2561 	.db #0xff	; 255
   089D FF                 2562 	.db #0xff	; 255
   089E CF                 2563 	.db #0xcf	; 207
   089F FF                 2564 	.db #0xff	; 255
   08A0 CF                 2565 	.db #0xcf	; 207
   08A1 FF                 2566 	.db #0xff	; 255
   08A2 CF                 2567 	.db #0xcf	; 207
   08A3 FF                 2568 	.db #0xff	; 255
   08A4 CF                 2569 	.db #0xcf	; 207
   08A5 FF                 2570 	.db #0xff	; 255
   08A6 CF                 2571 	.db #0xcf	; 207
   08A7 FF                 2572 	.db #0xff	; 255
   08A8 CF                 2573 	.db #0xcf	; 207
   08A9 FF                 2574 	.db #0xff	; 255
   08AA CF                 2575 	.db #0xcf	; 207
   08AB FF                 2576 	.db #0xff	; 255
   08AC CF                 2577 	.db #0xcf	; 207
   08AD FF                 2578 	.db #0xff	; 255
   08AE 1F                 2579 	.db #0x1f	; 31
   08AF FF                 2580 	.db #0xff	; 255
   08B0 1F                 2581 	.db #0x1f	; 31
   08B1 FF                 2582 	.db #0xff	; 255
   08B2 1F                 2583 	.db #0x1f	; 31
   08B3 FF                 2584 	.db #0xff	; 255
   08B4 1F                 2585 	.db #0x1f	; 31
   08B5 FF                 2586 	.db #0xff	; 255
   08B6 1F                 2587 	.db #0x1f	; 31
   08B7 FF                 2588 	.db #0xff	; 255
   08B8 1F                 2589 	.db #0x1f	; 31
   08B9 FF                 2590 	.db #0xff	; 255
   08BA 1F                 2591 	.db #0x1f	; 31
   08BB FF                 2592 	.db #0xff	; 255
   08BC 1F                 2593 	.db #0x1f	; 31
   08BD FF                 2594 	.db #0xff	; 255
   08BE 9F                 2595 	.db #0x9f	; 159
   08BF FF                 2596 	.db #0xff	; 255
   08C0 9F                 2597 	.db #0x9f	; 159
   08C1 FF                 2598 	.db #0xff	; 255
   08C2 9F                 2599 	.db #0x9f	; 159
   08C3 FF                 2600 	.db #0xff	; 255
   08C4 9F                 2601 	.db #0x9f	; 159
   08C5 FF                 2602 	.db #0xff	; 255
   08C6 9F                 2603 	.db #0x9f	; 159
   08C7 FF                 2604 	.db #0xff	; 255
   08C8 9C                 2605 	.db #0x9c	; 156
   08C9 FF                 2606 	.db #0xff	; 255
   08CA 9C                 2607 	.db #0x9c	; 156
   08CB FF                 2608 	.db #0xff	; 255
   08CC 9C                 2609 	.db #0x9c	; 156
   08CD FF                 2610 	.db #0xff	; 255
   08CE C0                 2611 	.db #0xc0	; 192
   08CF FF                 2612 	.db #0xff	; 255
   08D0 F8                 2613 	.db #0xf8	; 248
   08D1 FF                 2614 	.db #0xff	; 255
   08D2 F8                 2615 	.db #0xf8	; 248
   08D3 FF                 2616 	.db #0xff	; 255
   08D4 F8                 2617 	.db #0xf8	; 248
   08D5 FF                 2618 	.db #0xff	; 255
   08D6 F8                 2619 	.db #0xf8	; 248
   08D7 FF                 2620 	.db #0xff	; 255
   08D8 3F                 2621 	.db #0x3f	; 63
   08D9 FF                 2622 	.db #0xff	; 255
   08DA 3F                 2623 	.db #0x3f	; 63
   08DB FF                 2624 	.db #0xff	; 255
   08DC 3F                 2625 	.db #0x3f	; 63
   08DD FF                 2626 	.db #0xff	; 255
   08DE 7F                 2627 	.db #0x7f	; 127
   08DF FF                 2628 	.db #0xff	; 255
   08E0 7F                 2629 	.db #0x7f	; 127
   08E1 FF                 2630 	.db #0xff	; 255
   08E2 7F                 2631 	.db #0x7f	; 127
   08E3 FF                 2632 	.db #0xff	; 255
   08E4 7F                 2633 	.db #0x7f	; 127
   08E5 FF                 2634 	.db #0xff	; 255
   08E6 7F                 2635 	.db #0x7f	; 127
   08E7 FF                 2636 	.db #0xff	; 255
   08E8 FF                 2637 	.db #0xff	; 255
   08E9 FF                 2638 	.db #0xff	; 255
   08EA FF                 2639 	.db #0xff	; 255
   08EB FF                 2640 	.db #0xff	; 255
   08EC FF                 2641 	.db #0xff	; 255
   08ED FF                 2642 	.db #0xff	; 255
   08EE 07                 2643 	.db #0x07	; 7
   08EF FF                 2644 	.db #0xff	; 255
   08F0 07                 2645 	.db #0x07	; 7
   08F1 FF                 2646 	.db #0xff	; 255
   08F2 07                 2647 	.db #0x07	; 7
   08F3 FF                 2648 	.db #0xff	; 255
   08F4 07                 2649 	.db #0x07	; 7
   08F5 FF                 2650 	.db #0xff	; 255
   08F6 07                 2651 	.db #0x07	; 7
   08F7 FF                 2652 	.db #0xff	; 255
   08F8 07                 2653 	.db #0x07	; 7
   08F9 FF                 2654 	.db #0xff	; 255
   08FA 07                 2655 	.db #0x07	; 7
   08FB FF                 2656 	.db #0xff	; 255
   08FC 00                 2657 	.db #0x00	; 0
   08FD FF                 2658 	.db #0xff	; 255
   08FE FF                 2659 	.db #0xff	; 255
   08FF FF                 2660 	.db #0xff	; 255
   0900 F0                 2661 	.db #0xf0	; 240
   0901 FF                 2662 	.db #0xff	; 255
   0902 F0                 2663 	.db #0xf0	; 240
   0903 FF                 2664 	.db #0xff	; 255
   0904 F0                 2665 	.db #0xf0	; 240
   0905 FF                 2666 	.db #0xff	; 255
   0906 80                 2667 	.db #0x80	; 128
   0907 FF                 2668 	.db #0xff	; 255
   0908 80                 2669 	.db #0x80	; 128
   0909 FF                 2670 	.db #0xff	; 255
   090A 80                 2671 	.db #0x80	; 128
   090B FF                 2672 	.db #0xff	; 255
   090C 00                 2673 	.db #0x00	; 0
   090D FF                 2674 	.db #0xff	; 255
   090E FF                 2675 	.db #0xff	; 255
   090F FF                 2676 	.db #0xff	; 255
   0910 FF                 2677 	.db #0xff	; 255
   0911 FF                 2678 	.db #0xff	; 255
   0912 FF                 2679 	.db #0xff	; 255
   0913 FF                 2680 	.db #0xff	; 255
   0914 FF                 2681 	.db #0xff	; 255
   0915 FF                 2682 	.db #0xff	; 255
   0916 1F                 2683 	.db #0x1f	; 31
   0917 FF                 2684 	.db #0xff	; 255
   0918 1F                 2685 	.db #0x1f	; 31
   0919 FF                 2686 	.db #0xff	; 255
   091A 1F                 2687 	.db #0x1f	; 31
   091B FF                 2688 	.db #0xff	; 255
   091C 00                 2689 	.db #0x00	; 0
   091D FF                 2690 	.db #0xff	; 255
   091E CF                 2691 	.db #0xcf	; 207
   091F FF                 2692 	.db #0xff	; 255
   0920 CF                 2693 	.db #0xcf	; 207
   0921 FF                 2694 	.db #0xff	; 255
   0922 CF                 2695 	.db #0xcf	; 207
   0923 FF                 2696 	.db #0xff	; 255
   0924 C0                 2697 	.db #0xc0	; 192
   0925 FF                 2698 	.db #0xff	; 255
   0926 C0                 2699 	.db #0xc0	; 192
   0927 FF                 2700 	.db #0xff	; 255
   0928 C0                 2701 	.db #0xc0	; 192
   0929 FF                 2702 	.db #0xff	; 255
   092A C0                 2703 	.db #0xc0	; 192
   092B FF                 2704 	.db #0xff	; 255
   092C 00                 2705 	.db #0x00	; 0
   092D FF                 2706 	.db #0xff	; 255
   092E E0                 2707 	.db #0xe0	; 224
   092F FF                 2708 	.db #0xff	; 255
   0930 E0                 2709 	.db #0xe0	; 224
   0931 FF                 2710 	.db #0xff	; 255
   0932 E0                 2711 	.db #0xe0	; 224
   0933 FF                 2712 	.db #0xff	; 255
   0934 FF                 2713 	.db #0xff	; 255
   0935 FF                 2714 	.db #0xff	; 255
   0936 FF                 2715 	.db #0xff	; 255
   0937 FF                 2716 	.db #0xff	; 255
   0938 FF                 2717 	.db #0xff	; 255
   0939 FF                 2718 	.db #0xff	; 255
   093A FF                 2719 	.db #0xff	; 255
   093B FF                 2720 	.db #0xff	; 255
   093C 00                 2721 	.db #0x00	; 0
   093D FF                 2722 	.db #0xff	; 255
   093E 1F                 2723 	.db #0x1f	; 31
   093F FF                 2724 	.db #0xff	; 255
   0940 1F                 2725 	.db #0x1f	; 31
   0941 FF                 2726 	.db #0xff	; 255
   0942 1F                 2727 	.db #0x1f	; 31
   0943 FF                 2728 	.db #0xff	; 255
   0944 FC                 2729 	.db #0xfc	; 252
   0945 FF                 2730 	.db #0xff	; 255
   0946 FC                 2731 	.db #0xfc	; 252
   0947 FF                 2732 	.db #0xff	; 255
   0948 FC                 2733 	.db #0xfc	; 252
   0949 FF                 2734 	.db #0xff	; 255
   094A FC                 2735 	.db #0xfc	; 252
   094B FF                 2736 	.db #0xff	; 255
   094C 00                 2737 	.db #0x00	; 0
   094D FF                 2738 	.db #0xff	; 255
   094E 9C                 2739 	.db #0x9c	; 156
   094F FF                 2740 	.db #0xff	; 255
   0950 9C                 2741 	.db #0x9c	; 156
   0951 FF                 2742 	.db #0xff	; 255
   0952 9C                 2743 	.db #0x9c	; 156
   0953 FF                 2744 	.db #0xff	; 255
   0954 1C                 2745 	.db #0x1c	; 28
   0955 FF                 2746 	.db #0xff	; 255
   0956 1C                 2747 	.db #0x1c	; 28
   0957 FF                 2748 	.db #0xff	; 255
   0958 1C                 2749 	.db #0x1c	; 28
   0959 FF                 2750 	.db #0xff	; 255
   095A 1C                 2751 	.db #0x1c	; 28
   095B FF                 2752 	.db #0xff	; 255
   095C 00                 2753 	.db #0x00	; 0
   095D FF                 2754 	.db #0xff	; 255
   095E 3F                 2755 	.db #0x3f	; 63
   095F FF                 2756 	.db #0xff	; 255
   0960 03                 2757 	.db #0x03	; 3
   0961 FF                 2758 	.db #0xff	; 255
   0962 03                 2759 	.db #0x03	; 3
   0963 FF                 2760 	.db #0xff	; 255
   0964 03                 2761 	.db #0x03	; 3
   0965 FF                 2762 	.db #0xff	; 255
   0966 00                 2763 	.db #0x00	; 0
   0967 FF                 2764 	.db #0xff	; 255
   0968 00                 2765 	.db #0x00	; 0
   0969 FF                 2766 	.db #0xff	; 255
   096A 00                 2767 	.db #0x00	; 0
   096B FF                 2768 	.db #0xff	; 255
   096C 00                 2769 	.db #0x00	; 0
   096D FF                 2770 	.db #0xff	; 255
   096E FF                 2771 	.db #0xff	; 255
   096F FF                 2772 	.db #0xff	; 255
   0970 FF                 2773 	.db #0xff	; 255
   0971 FF                 2774 	.db #0xff	; 255
   0972 FF                 2775 	.db #0xff	; 255
   0973 FF                 2776 	.db #0xff	; 255
   0974 FF                 2777 	.db #0xff	; 255
   0975 FF                 2778 	.db #0xff	; 255
   0976 7F                 2779 	.db #0x7f	; 127
   0977 FF                 2780 	.db #0xff	; 255
   0978 7F                 2781 	.db #0x7f	; 127
   0979 FF                 2782 	.db #0xff	; 255
   097A 7F                 2783 	.db #0x7f	; 127
   097B FF                 2784 	.db #0xff	; 255
   097C 00                 2785 	.db #0x00	; 0
   097D F0                 2786 	.db #0xf0	; 240
   097E FF                 2787 	.db #0xff	; 255
   097F FF                 2788 	.db #0xff	; 255
   0980 F0                 2789 	.db #0xf0	; 240
   0981 FF                 2790 	.db #0xff	; 255
   0982 F0                 2791 	.db #0xf0	; 240
   0983 FF                 2792 	.db #0xff	; 255
   0984 F0                 2793 	.db #0xf0	; 240
   0985 FF                 2794 	.db #0xff	; 255
   0986 F0                 2795 	.db #0xf0	; 240
   0987 FF                 2796 	.db #0xff	; 255
   0988 F0                 2797 	.db #0xf0	; 240
   0989 FF                 2798 	.db #0xff	; 255
   098A F0                 2799 	.db #0xf0	; 240
   098B FF                 2800 	.db #0xff	; 255
   098C F0                 2801 	.db #0xf0	; 240
   098D 00                 2802 	.db #0x00	; 0
   098E FF                 2803 	.db #0xff	; 255
   098F FF                 2804 	.db #0xff	; 255
   0990 00                 2805 	.db #0x00	; 0
   0991 FF                 2806 	.db #0xff	; 255
   0992 00                 2807 	.db #0x00	; 0
   0993 FF                 2808 	.db #0xff	; 255
   0994 00                 2809 	.db #0x00	; 0
   0995 FF                 2810 	.db #0xff	; 255
   0996 00                 2811 	.db #0x00	; 0
   0997 FF                 2812 	.db #0xff	; 255
   0998 00                 2813 	.db #0x00	; 0
   0999 FF                 2814 	.db #0xff	; 255
   099A 00                 2815 	.db #0x00	; 0
   099B FF                 2816 	.db #0xff	; 255
   099C 00                 2817 	.db #0x00	; 0
   099D 1F                 2818 	.db #0x1f	; 31
   099E E0                 2819 	.db #0xe0	; 224
   099F FF                 2820 	.db #0xff	; 255
   09A0 1F                 2821 	.db #0x1f	; 31
   09A1 FF                 2822 	.db #0xff	; 255
   09A2 1F                 2823 	.db #0x1f	; 31
   09A3 FF                 2824 	.db #0xff	; 255
   09A4 1F                 2825 	.db #0x1f	; 31
   09A5 FF                 2826 	.db #0xff	; 255
   09A6 1F                 2827 	.db #0x1f	; 31
   09A7 FF                 2828 	.db #0xff	; 255
   09A8 1F                 2829 	.db #0x1f	; 31
   09A9 FF                 2830 	.db #0xff	; 255
   09AA 1F                 2831 	.db #0x1f	; 31
   09AB FF                 2832 	.db #0xff	; 255
   09AC 1F                 2833 	.db #0x1f	; 31
   09AD FC                 2834 	.db #0xfc	; 252
   09AE 03                 2835 	.db #0x03	; 3
   09AF FF                 2836 	.db #0xff	; 255
   09B0 FC                 2837 	.db #0xfc	; 252
   09B1 FF                 2838 	.db #0xff	; 255
   09B2 FC                 2839 	.db #0xfc	; 252
   09B3 FF                 2840 	.db #0xff	; 255
   09B4 FC                 2841 	.db #0xfc	; 252
   09B5 FF                 2842 	.db #0xff	; 255
   09B6 FC                 2843 	.db #0xfc	; 252
   09B7 FF                 2844 	.db #0xff	; 255
   09B8 FC                 2845 	.db #0xfc	; 252
   09B9 FF                 2846 	.db #0xff	; 255
   09BA FC                 2847 	.db #0xfc	; 252
   09BB FF                 2848 	.db #0xff	; 255
   09BC FC                 2849 	.db #0xfc	; 252
   09BD 7F                 2850 	.db #0x7f	; 127
   09BE FF                 2851 	.db #0xff	; 255
   09BF FF                 2852 	.db #0xff	; 255
   09C0 7F                 2853 	.db #0x7f	; 127
   09C1 FF                 2854 	.db #0xff	; 255
   09C2 7F                 2855 	.db #0x7f	; 127
   09C3 FF                 2856 	.db #0xff	; 255
   09C4 7F                 2857 	.db #0x7f	; 127
   09C5 FF                 2858 	.db #0xff	; 255
   09C6 7F                 2859 	.db #0x7f	; 127
   09C7 FF                 2860 	.db #0xff	; 255
   09C8 7F                 2861 	.db #0x7f	; 127
   09C9 FF                 2862 	.db #0xff	; 255
   09CA 7F                 2863 	.db #0x7f	; 127
   09CB FF                 2864 	.db #0xff	; 255
   09CC 7F                 2865 	.db #0x7f	; 127
   09CD FF                 2866 	.db #0xff	; 255
   09CE F0                 2867 	.db #0xf0	; 240
   09CF FF                 2868 	.db #0xff	; 255
   09D0 F0                 2869 	.db #0xf0	; 240
   09D1 FF                 2870 	.db #0xff	; 255
   09D2 F0                 2871 	.db #0xf0	; 240
   09D3 FF                 2872 	.db #0xff	; 255
   09D4 F0                 2873 	.db #0xf0	; 240
   09D5 FF                 2874 	.db #0xff	; 255
   09D6 FF                 2875 	.db #0xff	; 255
   09D7 FF                 2876 	.db #0xff	; 255
   09D8 FF                 2877 	.db #0xff	; 255
   09D9 FF                 2878 	.db #0xff	; 255
   09DA FF                 2879 	.db #0xff	; 255
   09DB FF                 2880 	.db #0xff	; 255
   09DC FF                 2881 	.db #0xff	; 255
   09DD FF                 2882 	.db #0xff	; 255
   09DE 00                 2883 	.db #0x00	; 0
   09DF FF                 2884 	.db #0xff	; 255
   09E0 00                 2885 	.db #0x00	; 0
   09E1 FF                 2886 	.db #0xff	; 255
   09E2 00                 2887 	.db #0x00	; 0
   09E3 FF                 2888 	.db #0xff	; 255
   09E4 00                 2889 	.db #0x00	; 0
   09E5 FF                 2890 	.db #0xff	; 255
   09E6 FF                 2891 	.db #0xff	; 255
   09E7 FF                 2892 	.db #0xff	; 255
   09E8 FF                 2893 	.db #0xff	; 255
   09E9 FF                 2894 	.db #0xff	; 255
   09EA FF                 2895 	.db #0xff	; 255
   09EB FF                 2896 	.db #0xff	; 255
   09EC FF                 2897 	.db #0xff	; 255
   09ED FF                 2898 	.db #0xff	; 255
   09EE 1F                 2899 	.db #0x1f	; 31
   09EF FF                 2900 	.db #0xff	; 255
   09F0 1F                 2901 	.db #0x1f	; 31
   09F1 FF                 2902 	.db #0xff	; 255
   09F2 1F                 2903 	.db #0x1f	; 31
   09F3 FF                 2904 	.db #0xff	; 255
   09F4 1F                 2905 	.db #0x1f	; 31
   09F5 FF                 2906 	.db #0xff	; 255
   09F6 FF                 2907 	.db #0xff	; 255
   09F7 FF                 2908 	.db #0xff	; 255
   09F8 FF                 2909 	.db #0xff	; 255
   09F9 FF                 2910 	.db #0xff	; 255
   09FA FF                 2911 	.db #0xff	; 255
   09FB FF                 2912 	.db #0xff	; 255
   09FC FF                 2913 	.db #0xff	; 255
   09FD FF                 2914 	.db #0xff	; 255
   09FE FC                 2915 	.db #0xfc	; 252
   09FF FF                 2916 	.db #0xff	; 255
   0A00 FC                 2917 	.db #0xfc	; 252
   0A01 FF                 2918 	.db #0xff	; 255
   0A02 FC                 2919 	.db #0xfc	; 252
   0A03 FF                 2920 	.db #0xff	; 255
   0A04 FC                 2921 	.db #0xfc	; 252
   0A05 FF                 2922 	.db #0xff	; 255
   0A06 FF                 2923 	.db #0xff	; 255
   0A07 FF                 2924 	.db #0xff	; 255
   0A08 FF                 2925 	.db #0xff	; 255
   0A09 FF                 2926 	.db #0xff	; 255
   0A0A FF                 2927 	.db #0xff	; 255
   0A0B FF                 2928 	.db #0xff	; 255
   0A0C FF                 2929 	.db #0xff	; 255
   0A0D FF                 2930 	.db #0xff	; 255
   0A0E 7F                 2931 	.db #0x7f	; 127
   0A0F FF                 2932 	.db #0xff	; 255
   0A10 7F                 2933 	.db #0x7f	; 127
   0A11 FF                 2934 	.db #0xff	; 255
   0A12 7F                 2935 	.db #0x7f	; 127
   0A13 FF                 2936 	.db #0xff	; 255
   0A14 7F                 2937 	.db #0x7f	; 127
   0A15 FF                 2938 	.db #0xff	; 255
   0A16 FF                 2939 	.db #0xff	; 255
   0A17 FF                 2940 	.db #0xff	; 255
   0A18 FF                 2941 	.db #0xff	; 255
   0A19 FF                 2942 	.db #0xff	; 255
   0A1A FF                 2943 	.db #0xff	; 255
   0A1B FF                 2944 	.db #0xff	; 255
   0A1C FF                 2945 	.db #0xff	; 255
   0A1D FF                 2946 	.db #0xff	; 255
   0A1E 00                 2947 	.db #0x00	; 0
   0A1F FF                 2948 	.db #0xff	; 255
   0A20 00                 2949 	.db #0x00	; 0
   0A21 FF                 2950 	.db #0xff	; 255
   0A22 01                 2951 	.db #0x01	; 1
   0A23 FF                 2952 	.db #0xff	; 255
   0A24 01                 2953 	.db #0x01	; 1
   0A25 FF                 2954 	.db #0xff	; 255
   0A26 01                 2955 	.db #0x01	; 1
   0A27 FF                 2956 	.db #0xff	; 255
   0A28 01                 2957 	.db #0x01	; 1
   0A29 FF                 2958 	.db #0xff	; 255
   0A2A 01                 2959 	.db #0x01	; 1
   0A2B FF                 2960 	.db #0xff	; 255
   0A2C 01                 2961 	.db #0x01	; 1
   0A2D FF                 2962 	.db #0xff	; 255
   0A2E 00                 2963 	.db #0x00	; 0
   0A2F FF                 2964 	.db #0xff	; 255
   0A30 00                 2965 	.db #0x00	; 0
   0A31 FF                 2966 	.db #0xff	; 255
   0A32 FF                 2967 	.db #0xff	; 255
   0A33 FF                 2968 	.db #0xff	; 255
   0A34 FF                 2969 	.db #0xff	; 255
   0A35 FF                 2970 	.db #0xff	; 255
   0A36 FF                 2971 	.db #0xff	; 255
   0A37 FF                 2972 	.db #0xff	; 255
   0A38 FF                 2973 	.db #0xff	; 255
   0A39 FF                 2974 	.db #0xff	; 255
   0A3A FF                 2975 	.db #0xff	; 255
   0A3B FF                 2976 	.db #0xff	; 255
   0A3C FF                 2977 	.db #0xff	; 255
   0A3D FF                 2978 	.db #0xff	; 255
   0A3E 00                 2979 	.db #0x00	; 0
   0A3F FF                 2980 	.db #0xff	; 255
   0A40 00                 2981 	.db #0x00	; 0
   0A41 FF                 2982 	.db #0xff	; 255
   0A42 F3                 2983 	.db #0xf3	; 243
   0A43 FF                 2984 	.db #0xff	; 255
   0A44 F3                 2985 	.db #0xf3	; 243
   0A45 FF                 2986 	.db #0xff	; 255
   0A46 F3                 2987 	.db #0xf3	; 243
   0A47 FF                 2988 	.db #0xff	; 255
   0A48 F3                 2989 	.db #0xf3	; 243
   0A49 FF                 2990 	.db #0xff	; 255
   0A4A F3                 2991 	.db #0xf3	; 243
   0A4B FF                 2992 	.db #0xff	; 255
   0A4C F3                 2993 	.db #0xf3	; 243
   0A4D FF                 2994 	.db #0xff	; 255
   0A4E 00                 2995 	.db #0x00	; 0
   0A4F FF                 2996 	.db #0xff	; 255
   0A50 00                 2997 	.db #0x00	; 0
   0A51 FF                 2998 	.db #0xff	; 255
   0A52 E7                 2999 	.db #0xe7	; 231
   0A53 FF                 3000 	.db #0xff	; 255
   0A54 E7                 3001 	.db #0xe7	; 231
   0A55 FF                 3002 	.db #0xff	; 255
   0A56 E7                 3003 	.db #0xe7	; 231
   0A57 FF                 3004 	.db #0xff	; 255
   0A58 E7                 3005 	.db #0xe7	; 231
   0A59 FF                 3006 	.db #0xff	; 255
   0A5A E7                 3007 	.db #0xe7	; 231
   0A5B FF                 3008 	.db #0xff	; 255
   0A5C E7                 3009 	.db #0xe7	; 231
   0A5D FF                 3010 	.db #0xff	; 255
   0A5E 00                 3011 	.db #0x00	; 0
   0A5F FF                 3012 	.db #0xff	; 255
   0A60 00                 3013 	.db #0x00	; 0
   0A61 FF                 3014 	.db #0xff	; 255
   0A62 C0                 3015 	.db #0xc0	; 192
   0A63 FF                 3016 	.db #0xff	; 255
   0A64 C0                 3017 	.db #0xc0	; 192
   0A65 FF                 3018 	.db #0xff	; 255
   0A66 C0                 3019 	.db #0xc0	; 192
   0A67 FF                 3020 	.db #0xff	; 255
   0A68 C0                 3021 	.db #0xc0	; 192
   0A69 FF                 3022 	.db #0xff	; 255
   0A6A C0                 3023 	.db #0xc0	; 192
   0A6B FF                 3024 	.db #0xff	; 255
   0A6C C0                 3025 	.db #0xc0	; 192
   0A6D FF                 3026 	.db #0xff	; 255
   0A6E 01                 3027 	.db #0x01	; 1
   0A6F FF                 3028 	.db #0xff	; 255
   0A70 01                 3029 	.db #0x01	; 1
   0A71 FF                 3030 	.db #0xff	; 255
   0A72 01                 3031 	.db #0x01	; 1
   0A73 FF                 3032 	.db #0xff	; 255
   0A74 01                 3033 	.db #0x01	; 1
   0A75 FF                 3034 	.db #0xff	; 255
   0A76 01                 3035 	.db #0x01	; 1
   0A77 FF                 3036 	.db #0xff	; 255
   0A78 01                 3037 	.db #0x01	; 1
   0A79 FF                 3038 	.db #0xff	; 255
   0A7A 01                 3039 	.db #0x01	; 1
   0A7B FF                 3040 	.db #0xff	; 255
   0A7C 01                 3041 	.db #0x01	; 1
   0A7D FF                 3042 	.db #0xff	; 255
   0A7E F3                 3043 	.db #0xf3	; 243
   0A7F FF                 3044 	.db #0xff	; 255
   0A80 F3                 3045 	.db #0xf3	; 243
   0A81 FF                 3046 	.db #0xff	; 255
   0A82 F3                 3047 	.db #0xf3	; 243
   0A83 FF                 3048 	.db #0xff	; 255
   0A84 F3                 3049 	.db #0xf3	; 243
   0A85 FF                 3050 	.db #0xff	; 255
   0A86 F3                 3051 	.db #0xf3	; 243
   0A87 FF                 3052 	.db #0xff	; 255
   0A88 F3                 3053 	.db #0xf3	; 243
   0A89 FF                 3054 	.db #0xff	; 255
   0A8A F3                 3055 	.db #0xf3	; 243
   0A8B FF                 3056 	.db #0xff	; 255
   0A8C F3                 3057 	.db #0xf3	; 243
   0A8D FF                 3058 	.db #0xff	; 255
   0A8E E7                 3059 	.db #0xe7	; 231
   0A8F FF                 3060 	.db #0xff	; 255
   0A90 E7                 3061 	.db #0xe7	; 231
   0A91 FF                 3062 	.db #0xff	; 255
   0A92 E7                 3063 	.db #0xe7	; 231
   0A93 FF                 3064 	.db #0xff	; 255
   0A94 E7                 3065 	.db #0xe7	; 231
   0A95 FF                 3066 	.db #0xff	; 255
   0A96 E7                 3067 	.db #0xe7	; 231
   0A97 FF                 3068 	.db #0xff	; 255
   0A98 E7                 3069 	.db #0xe7	; 231
   0A99 FF                 3070 	.db #0xff	; 255
   0A9A E7                 3071 	.db #0xe7	; 231
   0A9B FF                 3072 	.db #0xff	; 255
   0A9C E7                 3073 	.db #0xe7	; 231
   0A9D FF                 3074 	.db #0xff	; 255
   0A9E C0                 3075 	.db #0xc0	; 192
   0A9F FF                 3076 	.db #0xff	; 255
   0AA0 C0                 3077 	.db #0xc0	; 192
   0AA1 FF                 3078 	.db #0xff	; 255
   0AA2 C0                 3079 	.db #0xc0	; 192
   0AA3 FF                 3080 	.db #0xff	; 255
   0AA4 C0                 3081 	.db #0xc0	; 192
   0AA5 FF                 3082 	.db #0xff	; 255
   0AA6 C0                 3083 	.db #0xc0	; 192
   0AA7 FF                 3084 	.db #0xff	; 255
   0AA8 C0                 3085 	.db #0xc0	; 192
   0AA9 FF                 3086 	.db #0xff	; 255
   0AAA C0                 3087 	.db #0xc0	; 192
   0AAB FF                 3088 	.db #0xff	; 255
   0AAC C0                 3089 	.db #0xc0	; 192
   0AAD FF                 3090 	.db #0xff	; 255
   0AAE 7F                 3091 	.db #0x7f	; 127
   0AAF FF                 3092 	.db #0xff	; 255
   0AB0 00                 3093 	.db #0x00	; 0
   0AB1 FF                 3094 	.db #0xff	; 255
   0AB2 00                 3095 	.db #0x00	; 0
   0AB3 FF                 3096 	.db #0xff	; 255
   0AB4 00                 3097 	.db #0x00	; 0
   0AB5 FF                 3098 	.db #0xff	; 255
   0AB6 00                 3099 	.db #0x00	; 0
   0AB7 FF                 3100 	.db #0xff	; 255
   0AB8 00                 3101 	.db #0x00	; 0
   0AB9 FF                 3102 	.db #0xff	; 255
   0ABA 00                 3103 	.db #0x00	; 0
   0ABB FF                 3104 	.db #0xff	; 255
   0ABC 00                 3105 	.db #0x00	; 0
   0ABD FF                 3106 	.db #0xff	; 255
   0ABE FF                 3107 	.db #0xff	; 255
   0ABF FF                 3108 	.db #0xff	; 255
   0AC0 0F                 3109 	.db #0x0f	; 15
   0AC1 FF                 3110 	.db #0xff	; 255
   0AC2 0F                 3111 	.db #0x0f	; 15
   0AC3 FF                 3112 	.db #0xff	; 255
   0AC4 0F                 3113 	.db #0x0f	; 15
   0AC5 FF                 3114 	.db #0xff	; 255
   0AC6 0F                 3115 	.db #0x0f	; 15
   0AC7 FF                 3116 	.db #0xff	; 255
   0AC8 0F                 3117 	.db #0x0f	; 15
   0AC9 FF                 3118 	.db #0xff	; 255
   0ACA 0F                 3119 	.db #0x0f	; 15
   0ACB FF                 3120 	.db #0xff	; 255
   0ACC 0F                 3121 	.db #0x0f	; 15
   0ACD FF                 3122 	.db #0xff	; 255
   0ACE FF                 3123 	.db #0xff	; 255
   0ACF FF                 3124 	.db #0xff	; 255
   0AD0 E0                 3125 	.db #0xe0	; 224
   0AD1 FF                 3126 	.db #0xff	; 255
   0AD2 E0                 3127 	.db #0xe0	; 224
   0AD3 FF                 3128 	.db #0xff	; 255
   0AD4 E0                 3129 	.db #0xe0	; 224
   0AD5 FF                 3130 	.db #0xff	; 255
   0AD6 E0                 3131 	.db #0xe0	; 224
   0AD7 FF                 3132 	.db #0xff	; 255
   0AD8 E0                 3133 	.db #0xe0	; 224
   0AD9 FF                 3134 	.db #0xff	; 255
   0ADA E0                 3135 	.db #0xe0	; 224
   0ADB FF                 3136 	.db #0xff	; 255
   0ADC E0                 3137 	.db #0xe0	; 224
   0ADD FF                 3138 	.db #0xff	; 255
   0ADE FF                 3139 	.db #0xff	; 255
   0ADF FF                 3140 	.db #0xff	; 255
   0AE0 03                 3141 	.db #0x03	; 3
   0AE1 FF                 3142 	.db #0xff	; 255
   0AE2 03                 3143 	.db #0x03	; 3
   0AE3 FF                 3144 	.db #0xff	; 255
   0AE4 03                 3145 	.db #0x03	; 3
   0AE5 FF                 3146 	.db #0xff	; 255
   0AE6 03                 3147 	.db #0x03	; 3
   0AE7 FF                 3148 	.db #0xff	; 255
   0AE8 03                 3149 	.db #0x03	; 3
   0AE9 FF                 3150 	.db #0xff	; 255
   0AEA 03                 3151 	.db #0x03	; 3
   0AEB FF                 3152 	.db #0xff	; 255
   0AEC 03                 3153 	.db #0x03	; 3
   0AED FF                 3154 	.db #0xff	; 255
   0AEE 00                 3155 	.db #0x00	; 0
   0AEF FF                 3156 	.db #0xff	; 255
   0AF0 00                 3157 	.db #0x00	; 0
   0AF1 FF                 3158 	.db #0xff	; 255
   0AF2 00                 3159 	.db #0x00	; 0
   0AF3 FF                 3160 	.db #0xff	; 255
   0AF4 01                 3161 	.db #0x01	; 1
   0AF5 FF                 3162 	.db #0xff	; 255
   0AF6 01                 3163 	.db #0x01	; 1
   0AF7 FF                 3164 	.db #0xff	; 255
   0AF8 01                 3165 	.db #0x01	; 1
   0AF9 FF                 3166 	.db #0xff	; 255
   0AFA 01                 3167 	.db #0x01	; 1
   0AFB FF                 3168 	.db #0xff	; 255
   0AFC 00                 3169 	.db #0x00	; 0
   0AFD FF                 3170 	.db #0xff	; 255
   0AFE 00                 3171 	.db #0x00	; 0
   0AFF FF                 3172 	.db #0xff	; 255
   0B00 00                 3173 	.db #0x00	; 0
   0B01 FF                 3174 	.db #0xff	; 255
   0B02 00                 3175 	.db #0x00	; 0
   0B03 FF                 3176 	.db #0xff	; 255
   0B04 FF                 3177 	.db #0xff	; 255
   0B05 FF                 3178 	.db #0xff	; 255
   0B06 FF                 3179 	.db #0xff	; 255
   0B07 FF                 3180 	.db #0xff	; 255
   0B08 FF                 3181 	.db #0xff	; 255
   0B09 FF                 3182 	.db #0xff	; 255
   0B0A FF                 3183 	.db #0xff	; 255
   0B0B FF                 3184 	.db #0xff	; 255
   0B0C 00                 3185 	.db #0x00	; 0
   0B0D FF                 3186 	.db #0xff	; 255
   0B0E 00                 3187 	.db #0x00	; 0
   0B0F FF                 3188 	.db #0xff	; 255
   0B10 00                 3189 	.db #0x00	; 0
   0B11 FF                 3190 	.db #0xff	; 255
   0B12 00                 3191 	.db #0x00	; 0
   0B13 FF                 3192 	.db #0xff	; 255
   0B14 F3                 3193 	.db #0xf3	; 243
   0B15 FF                 3194 	.db #0xff	; 255
   0B16 F3                 3195 	.db #0xf3	; 243
   0B17 FF                 3196 	.db #0xff	; 255
   0B18 F3                 3197 	.db #0xf3	; 243
   0B19 FF                 3198 	.db #0xff	; 255
   0B1A F3                 3199 	.db #0xf3	; 243
   0B1B FF                 3200 	.db #0xff	; 255
   0B1C 00                 3201 	.db #0x00	; 0
   0B1D FF                 3202 	.db #0xff	; 255
   0B1E 00                 3203 	.db #0x00	; 0
   0B1F FF                 3204 	.db #0xff	; 255
   0B20 00                 3205 	.db #0x00	; 0
   0B21 FF                 3206 	.db #0xff	; 255
   0B22 00                 3207 	.db #0x00	; 0
   0B23 FF                 3208 	.db #0xff	; 255
   0B24 E7                 3209 	.db #0xe7	; 231
   0B25 FF                 3210 	.db #0xff	; 255
   0B26 E7                 3211 	.db #0xe7	; 231
   0B27 FF                 3212 	.db #0xff	; 255
   0B28 E7                 3213 	.db #0xe7	; 231
   0B29 FF                 3214 	.db #0xff	; 255
   0B2A E7                 3215 	.db #0xe7	; 231
   0B2B FF                 3216 	.db #0xff	; 255
   0B2C 00                 3217 	.db #0x00	; 0
   0B2D FF                 3218 	.db #0xff	; 255
   0B2E 00                 3219 	.db #0x00	; 0
   0B2F FF                 3220 	.db #0xff	; 255
   0B30 00                 3221 	.db #0x00	; 0
   0B31 FF                 3222 	.db #0xff	; 255
   0B32 00                 3223 	.db #0x00	; 0
   0B33 FF                 3224 	.db #0xff	; 255
   0B34 C0                 3225 	.db #0xc0	; 192
   0B35 FF                 3226 	.db #0xff	; 255
   0B36 C0                 3227 	.db #0xc0	; 192
   0B37 FF                 3228 	.db #0xff	; 255
   0B38 C0                 3229 	.db #0xc0	; 192
   0B39 FF                 3230 	.db #0xff	; 255
   0B3A C0                 3231 	.db #0xc0	; 192
   0B3B FF                 3232 	.db #0xff	; 255
   0B3C 00                 3233 	.db #0x00	; 0
   0B3D FF                 3234 	.db #0xff	; 255
   0B3E 0F                 3235 	.db #0x0f	; 15
   0B3F FF                 3236 	.db #0xff	; 255
   0B40 0F                 3237 	.db #0x0f	; 15
   0B41 FF                 3238 	.db #0xff	; 255
   0B42 0F                 3239 	.db #0x0f	; 15
   0B43 FF                 3240 	.db #0xff	; 255
   0B44 0F                 3241 	.db #0x0f	; 15
   0B45 FF                 3242 	.db #0xff	; 255
   0B46 0F                 3243 	.db #0x0f	; 15
   0B47 FF                 3244 	.db #0xff	; 255
   0B48 0F                 3245 	.db #0x0f	; 15
   0B49 FF                 3246 	.db #0xff	; 255
   0B4A 0F                 3247 	.db #0x0f	; 15
   0B4B FF                 3248 	.db #0xff	; 255
   0B4C 0F                 3249 	.db #0x0f	; 15
   0B4D FF                 3250 	.db #0xff	; 255
   0B4E 0F                 3251 	.db #0x0f	; 15
   0B4F FF                 3252 	.db #0xff	; 255
   0B50 0F                 3253 	.db #0x0f	; 15
   0B51 FF                 3254 	.db #0xff	; 255
   0B52 0F                 3255 	.db #0x0f	; 15
   0B53 FF                 3256 	.db #0xff	; 255
   0B54 0F                 3257 	.db #0x0f	; 15
   0B55 FF                 3258 	.db #0xff	; 255
   0B56 00                 3259 	.db #0x00	; 0
   0B57 FF                 3260 	.db #0xff	; 255
   0B58 00                 3261 	.db #0x00	; 0
   0B59 FF                 3262 	.db #0xff	; 255
   0B5A 00                 3263 	.db #0x00	; 0
   0B5B FF                 3264 	.db #0xff	; 255
   0B5C 00                 3265 	.db #0x00	; 0
   0B5D FF                 3266 	.db #0xff	; 255
   0B5E 03                 3267 	.db #0x03	; 3
   0B5F FF                 3268 	.db #0xff	; 255
   0B60 03                 3269 	.db #0x03	; 3
   0B61 FF                 3270 	.db #0xff	; 255
   0B62 03                 3271 	.db #0x03	; 3
   0B63 FF                 3272 	.db #0xff	; 255
   0B64 03                 3273 	.db #0x03	; 3
   0B65 FF                 3274 	.db #0xff	; 255
   0B66 00                 3275 	.db #0x00	; 0
   0B67 FF                 3276 	.db #0xff	; 255
   0B68 00                 3277 	.db #0x00	; 0
   0B69 FF                 3278 	.db #0xff	; 255
   0B6A 00                 3279 	.db #0x00	; 0
   0B6B FF                 3280 	.db #0xff	; 255
   0B6C 00                 3281 	.db #0x00	; 0
   0B6D FF                 3282 	.db #0xff	; 255
   0B6E FC                 3283 	.db #0xfc	; 252
   0B6F FF                 3284 	.db #0xff	; 255
   0B70 FC                 3285 	.db #0xfc	; 252
   0B71 FF                 3286 	.db #0xff	; 255
   0B72 FC                 3287 	.db #0xfc	; 252
   0B73 FF                 3288 	.db #0xff	; 255
   0B74 FC                 3289 	.db #0xfc	; 252
   0B75 FF                 3290 	.db #0xff	; 255
   0B76 00                 3291 	.db #0x00	; 0
   0B77 FF                 3292 	.db #0xff	; 255
   0B78 00                 3293 	.db #0x00	; 0
   0B79 FF                 3294 	.db #0xff	; 255
   0B7A 00                 3295 	.db #0x00	; 0
   0B7B FF                 3296 	.db #0xff	; 255
   0B7C 00                 3297 	.db #0x00	; 0
   0B7D                    3298 _you_win_map:
   0B7D 00                 3299 	.db #0x00	; 0
   0B7E 00                 3300 	.db #0x00	; 0
   0B7F 00                 3301 	.db #0x00	; 0
   0B80 00                 3302 	.db #0x00	; 0
   0B81 00                 3303 	.db #0x00	; 0
   0B82 00                 3304 	.db #0x00	; 0
   0B83 00                 3305 	.db #0x00	; 0
   0B84 00                 3306 	.db #0x00	; 0
   0B85 00                 3307 	.db #0x00	; 0
   0B86 00                 3308 	.db #0x00	; 0
   0B87 00                 3309 	.db #0x00	; 0
   0B88 00                 3310 	.db #0x00	; 0
   0B89 00                 3311 	.db #0x00	; 0
   0B8A 00                 3312 	.db #0x00	; 0
   0B8B 00                 3313 	.db #0x00	; 0
   0B8C 00                 3314 	.db #0x00	; 0
   0B8D 00                 3315 	.db #0x00	; 0
   0B8E 00                 3316 	.db #0x00	; 0
   0B8F 00                 3317 	.db #0x00	; 0
   0B90 00                 3318 	.db #0x00	; 0
   0B91 00                 3319 	.db #0x00	; 0
   0B92 01                 3320 	.db #0x01	; 1
   0B93 02                 3321 	.db #0x02	; 2
   0B94 03                 3322 	.db #0x03	; 3
   0B95 02                 3323 	.db #0x02	; 2
   0B96 03                 3324 	.db #0x03	; 3
   0B97 02                 3325 	.db #0x02	; 2
   0B98 03                 3326 	.db #0x03	; 3
   0B99 02                 3327 	.db #0x02	; 2
   0B9A 04                 3328 	.db #0x04	; 4
   0B9B 05                 3329 	.db #0x05	; 5
   0B9C 06                 3330 	.db #0x06	; 6
   0B9D 07                 3331 	.db #0x07	; 7
   0B9E 05                 3332 	.db #0x05	; 5
   0B9F 08                 3333 	.db #0x08	; 8
   0BA0 06                 3334 	.db #0x06	; 6
   0BA1 06                 3335 	.db #0x06	; 6
   0BA2 09                 3336 	.db #0x09	; 9
   0BA3 0A                 3337 	.db #0x0a	; 10
   0BA4 00                 3338 	.db #0x00	; 0
   0BA5 00                 3339 	.db #0x00	; 0
   0BA6 0B                 3340 	.db #0x0b	; 11
   0BA7 0C                 3341 	.db #0x0c	; 12
   0BA8 0D                 3342 	.db #0x0d	; 13
   0BA9 0C                 3343 	.db #0x0c	; 12
   0BAA 0D                 3344 	.db #0x0d	; 13
   0BAB 0C                 3345 	.db #0x0c	; 12
   0BAC 0D                 3346 	.db #0x0d	; 13
   0BAD 0C                 3347 	.db #0x0c	; 12
   0BAE 0E                 3348 	.db #0x0e	; 14
   0BAF 0F                 3349 	.db #0x0f	; 15
   0BB0 10                 3350 	.db #0x10	; 16
   0BB1 11                 3351 	.db #0x11	; 17
   0BB2 12                 3352 	.db #0x12	; 18
   0BB3 13                 3353 	.db #0x13	; 19
   0BB4 14                 3354 	.db #0x14	; 20
   0BB5 15                 3355 	.db #0x15	; 21
   0BB6 16                 3356 	.db #0x16	; 22
   0BB7 17                 3357 	.db #0x17	; 23
   0BB8 00                 3358 	.db #0x00	; 0
   0BB9 00                 3359 	.db #0x00	; 0
   0BBA 0B                 3360 	.db #0x0b	; 11
   0BBB 0D                 3361 	.db #0x0d	; 13
   0BBC 0D                 3362 	.db #0x0d	; 13
   0BBD 0D                 3363 	.db #0x0d	; 13
   0BBE 0D                 3364 	.db #0x0d	; 13
   0BBF 0D                 3365 	.db #0x0d	; 13
   0BC0 0D                 3366 	.db #0x0d	; 13
   0BC1 0D                 3367 	.db #0x0d	; 13
   0BC2 0E                 3368 	.db #0x0e	; 14
   0BC3 00                 3369 	.db #0x00	; 0
   0BC4 18                 3370 	.db #0x18	; 24
   0BC5 19                 3371 	.db #0x19	; 25
   0BC6 0B                 3372 	.db #0x0b	; 11
   0BC7 00                 3373 	.db #0x00	; 0
   0BC8 0E                 3374 	.db #0x0e	; 14
   0BC9 15                 3375 	.db #0x15	; 21
   0BCA 1A                 3376 	.db #0x1a	; 26
   0BCB 17                 3377 	.db #0x17	; 23
   0BCC 00                 3378 	.db #0x00	; 0
   0BCD 00                 3379 	.db #0x00	; 0
   0BCE 1B                 3380 	.db #0x1b	; 27
   0BCF 1C                 3381 	.db #0x1c	; 28
   0BD0 1C                 3382 	.db #0x1c	; 28
   0BD1 1C                 3383 	.db #0x1c	; 28
   0BD2 1C                 3384 	.db #0x1c	; 28
   0BD3 1C                 3385 	.db #0x1c	; 28
   0BD4 1C                 3386 	.db #0x1c	; 28
   0BD5 1C                 3387 	.db #0x1c	; 28
   0BD6 1D                 3388 	.db #0x1d	; 29
   0BD7 00                 3389 	.db #0x00	; 0
   0BD8 1E                 3390 	.db #0x1e	; 30
   0BD9 1F                 3391 	.db #0x1f	; 31
   0BDA 20                 3392 	.db #0x20	; 32
   0BDB 21                 3393 	.db #0x21	; 33
   0BDC 22                 3394 	.db #0x22	; 34
   0BDD 23                 3395 	.db #0x23	; 35
   0BDE 24                 3396 	.db #0x24	; 36
   0BDF 25                 3397 	.db #0x25	; 37
   0BE0 00                 3398 	.db #0x00	; 0
   0BE1 00                 3399 	.db #0x00	; 0
   0BE2 0B                 3400 	.db #0x0b	; 11
   0BE3 0D                 3401 	.db #0x0d	; 13
   0BE4 0D                 3402 	.db #0x0d	; 13
   0BE5 0D                 3403 	.db #0x0d	; 13
   0BE6 0D                 3404 	.db #0x0d	; 13
   0BE7 0D                 3405 	.db #0x0d	; 13
   0BE8 0D                 3406 	.db #0x0d	; 13
   0BE9 0D                 3407 	.db #0x0d	; 13
   0BEA 0E                 3408 	.db #0x0e	; 14
   0BEB 00                 3409 	.db #0x00	; 0
   0BEC 00                 3410 	.db #0x00	; 0
   0BED 00                 3411 	.db #0x00	; 0
   0BEE 00                 3412 	.db #0x00	; 0
   0BEF 00                 3413 	.db #0x00	; 0
   0BF0 00                 3414 	.db #0x00	; 0
   0BF1 00                 3415 	.db #0x00	; 0
   0BF2 00                 3416 	.db #0x00	; 0
   0BF3 00                 3417 	.db #0x00	; 0
   0BF4 00                 3418 	.db #0x00	; 0
   0BF5 00                 3419 	.db #0x00	; 0
   0BF6 0B                 3420 	.db #0x0b	; 11
   0BF7 26                 3421 	.db #0x26	; 38
   0BF8 27                 3422 	.db #0x27	; 39
   0BF9 27                 3423 	.db #0x27	; 39
   0BFA 28                 3424 	.db #0x28	; 40
   0BFB 29                 3425 	.db #0x29	; 41
   0BFC 27                 3426 	.db #0x27	; 39
   0BFD 2A                 3427 	.db #0x2a	; 42
   0BFE 0E                 3428 	.db #0x0e	; 14
   0BFF 2B                 3429 	.db #0x2b	; 43
   0C00 2C                 3430 	.db #0x2c	; 44
   0C01 2D                 3431 	.db #0x2d	; 45
   0C02 2E                 3432 	.db #0x2e	; 46
   0C03 2F                 3433 	.db #0x2f	; 47
   0C04 30                 3434 	.db #0x30	; 48	'0'
   0C05 31                 3435 	.db #0x31	; 49	'1'
   0C06 32                 3436 	.db #0x32	; 50	'2'
   0C07 33                 3437 	.db #0x33	; 51	'3'
   0C08 00                 3438 	.db #0x00	; 0
   0C09 00                 3439 	.db #0x00	; 0
   0C0A 0B                 3440 	.db #0x0b	; 11
   0C0B 34                 3441 	.db #0x34	; 52	'4'
   0C0C 35                 3442 	.db #0x35	; 53	'5'
   0C0D 35                 3443 	.db #0x35	; 53	'5'
   0C0E 36                 3444 	.db #0x36	; 54	'6'
   0C0F 37                 3445 	.db #0x37	; 55	'7'
   0C10 35                 3446 	.db #0x35	; 53	'5'
   0C11 38                 3447 	.db #0x38	; 56	'8'
   0C12 0E                 3448 	.db #0x0e	; 14
   0C13 39                 3449 	.db #0x39	; 57	'9'
   0C14 3A                 3450 	.db #0x3a	; 58
   0C15 3B                 3451 	.db #0x3b	; 59
   0C16 3C                 3452 	.db #0x3c	; 60
   0C17 15                 3453 	.db #0x15	; 21
   0C18 3D                 3454 	.db #0x3d	; 61
   0C19 3E                 3455 	.db #0x3e	; 62
   0C1A 3F                 3456 	.db #0x3f	; 63
   0C1B 40                 3457 	.db #0x40	; 64
   0C1C 00                 3458 	.db #0x00	; 0
   0C1D 00                 3459 	.db #0x00	; 0
   0C1E 0B                 3460 	.db #0x0b	; 11
   0C1F 34                 3461 	.db #0x34	; 52	'4'
   0C20 35                 3462 	.db #0x35	; 53	'5'
   0C21 35                 3463 	.db #0x35	; 53	'5'
   0C22 36                 3464 	.db #0x36	; 54	'6'
   0C23 37                 3465 	.db #0x37	; 55	'7'
   0C24 35                 3466 	.db #0x35	; 53	'5'
   0C25 38                 3467 	.db #0x38	; 56	'8'
   0C26 0E                 3468 	.db #0x0e	; 14
   0C27 41                 3469 	.db #0x41	; 65	'A'
   0C28 42                 3470 	.db #0x42	; 66	'B'
   0C29 43                 3471 	.db #0x43	; 67	'C'
   0C2A 44                 3472 	.db #0x44	; 68	'D'
   0C2B 45                 3473 	.db #0x45	; 69	'E'
   0C2C 46                 3474 	.db #0x46	; 70	'F'
   0C2D 47                 3475 	.db #0x47	; 71	'G'
   0C2E 48                 3476 	.db #0x48	; 72	'H'
   0C2F 49                 3477 	.db #0x49	; 73	'I'
   0C30 00                 3478 	.db #0x00	; 0
   0C31 00                 3479 	.db #0x00	; 0
   0C32 0B                 3480 	.db #0x0b	; 11
   0C33 4A                 3481 	.db #0x4a	; 74	'J'
   0C34 4B                 3482 	.db #0x4b	; 75	'K'
   0C35 4B                 3483 	.db #0x4b	; 75	'K'
   0C36 4C                 3484 	.db #0x4c	; 76	'L'
   0C37 4D                 3485 	.db #0x4d	; 77	'M'
   0C38 4B                 3486 	.db #0x4b	; 75	'K'
   0C39 4E                 3487 	.db #0x4e	; 78	'N'
   0C3A 0E                 3488 	.db #0x0e	; 14
   0C3B 00                 3489 	.db #0x00	; 0
   0C3C 00                 3490 	.db #0x00	; 0
   0C3D 00                 3491 	.db #0x00	; 0
   0C3E 00                 3492 	.db #0x00	; 0
   0C3F 00                 3493 	.db #0x00	; 0
   0C40 00                 3494 	.db #0x00	; 0
   0C41 00                 3495 	.db #0x00	; 0
   0C42 00                 3496 	.db #0x00	; 0
   0C43 00                 3497 	.db #0x00	; 0
   0C44 00                 3498 	.db #0x00	; 0
   0C45 00                 3499 	.db #0x00	; 0
   0C46 0B                 3500 	.db #0x0b	; 11
   0C47 4F                 3501 	.db #0x4f	; 79	'O'
   0C48 50                 3502 	.db #0x50	; 80	'P'
   0C49 50                 3503 	.db #0x50	; 80	'P'
   0C4A 51                 3504 	.db #0x51	; 81	'Q'
   0C4B 52                 3505 	.db #0x52	; 82	'R'
   0C4C 50                 3506 	.db #0x50	; 80	'P'
   0C4D 53                 3507 	.db #0x53	; 83	'S'
   0C4E 0E                 3508 	.db #0x0e	; 14
   0C4F 00                 3509 	.db #0x00	; 0
   0C50 54                 3510 	.db #0x54	; 84	'T'
   0C51 55                 3511 	.db #0x55	; 85	'U'
   0C52 56                 3512 	.db #0x56	; 86	'V'
   0C53 55                 3513 	.db #0x55	; 85	'U'
   0C54 57                 3514 	.db #0x57	; 87	'W'
   0C55 55                 3515 	.db #0x55	; 85	'U'
   0C56 58                 3516 	.db #0x58	; 88	'X'
   0C57 00                 3517 	.db #0x00	; 0
   0C58 00                 3518 	.db #0x00	; 0
   0C59 00                 3519 	.db #0x00	; 0
   0C5A 0B                 3520 	.db #0x0b	; 11
   0C5B 0D                 3521 	.db #0x0d	; 13
   0C5C 0D                 3522 	.db #0x0d	; 13
   0C5D 0D                 3523 	.db #0x0d	; 13
   0C5E 0D                 3524 	.db #0x0d	; 13
   0C5F 0D                 3525 	.db #0x0d	; 13
   0C60 0D                 3526 	.db #0x0d	; 13
   0C61 0D                 3527 	.db #0x0d	; 13
   0C62 0E                 3528 	.db #0x0e	; 14
   0C63 00                 3529 	.db #0x00	; 0
   0C64 59                 3530 	.db #0x59	; 89	'Y'
   0C65 0D                 3531 	.db #0x0d	; 13
   0C66 5A                 3532 	.db #0x5a	; 90	'Z'
   0C67 0D                 3533 	.db #0x0d	; 13
   0C68 5B                 3534 	.db #0x5b	; 91
   0C69 0D                 3535 	.db #0x0d	; 13
   0C6A 5C                 3536 	.db #0x5c	; 92
   0C6B 00                 3537 	.db #0x00	; 0
   0C6C 00                 3538 	.db #0x00	; 0
   0C6D 00                 3539 	.db #0x00	; 0
   0C6E 5D                 3540 	.db #0x5d	; 93
   0C6F 5E                 3541 	.db #0x5e	; 94
   0C70 0D                 3542 	.db #0x0d	; 13
   0C71 0D                 3543 	.db #0x0d	; 13
   0C72 5F                 3544 	.db #0x5f	; 95
   0C73 60                 3545 	.db #0x60	; 96
   0C74 0D                 3546 	.db #0x0d	; 13
   0C75 0D                 3547 	.db #0x0d	; 13
   0C76 0E                 3548 	.db #0x0e	; 14
   0C77 00                 3549 	.db #0x00	; 0
   0C78 61                 3550 	.db #0x61	; 97	'a'
   0C79 62                 3551 	.db #0x62	; 98	'b'
   0C7A 63                 3552 	.db #0x63	; 99	'c'
   0C7B 62                 3553 	.db #0x62	; 98	'b'
   0C7C 64                 3554 	.db #0x64	; 100	'd'
   0C7D 62                 3555 	.db #0x62	; 98	'b'
   0C7E 65                 3556 	.db #0x65	; 101	'e'
   0C7F 00                 3557 	.db #0x00	; 0
   0C80 00                 3558 	.db #0x00	; 0
   0C81 00                 3559 	.db #0x00	; 0
   0C82 00                 3560 	.db #0x00	; 0
   0C83 66                 3561 	.db #0x66	; 102	'f'
   0C84 0D                 3562 	.db #0x0d	; 13
   0C85 0D                 3563 	.db #0x0d	; 13
   0C86 15                 3564 	.db #0x15	; 21
   0C87 16                 3565 	.db #0x16	; 22
   0C88 0D                 3566 	.db #0x0d	; 13
   0C89 0D                 3567 	.db #0x0d	; 13
   0C8A 0E                 3568 	.db #0x0e	; 14
   0C8B 00                 3569 	.db #0x00	; 0
   0C8C 00                 3570 	.db #0x00	; 0
   0C8D 00                 3571 	.db #0x00	; 0
   0C8E 00                 3572 	.db #0x00	; 0
   0C8F 00                 3573 	.db #0x00	; 0
   0C90 00                 3574 	.db #0x00	; 0
   0C91 00                 3575 	.db #0x00	; 0
   0C92 00                 3576 	.db #0x00	; 0
   0C93 00                 3577 	.db #0x00	; 0
   0C94 00                 3578 	.db #0x00	; 0
   0C95 00                 3579 	.db #0x00	; 0
   0C96 00                 3580 	.db #0x00	; 0
   0C97 66                 3581 	.db #0x66	; 102	'f'
   0C98 0D                 3582 	.db #0x0d	; 13
   0C99 0D                 3583 	.db #0x0d	; 13
   0C9A 15                 3584 	.db #0x15	; 21
   0C9B 16                 3585 	.db #0x16	; 22
   0C9C 0D                 3586 	.db #0x0d	; 13
   0C9D 0D                 3587 	.db #0x0d	; 13
   0C9E 0E                 3588 	.db #0x0e	; 14
   0C9F 00                 3589 	.db #0x00	; 0
   0CA0 00                 3590 	.db #0x00	; 0
   0CA1 00                 3591 	.db #0x00	; 0
   0CA2 00                 3592 	.db #0x00	; 0
   0CA3 00                 3593 	.db #0x00	; 0
   0CA4 00                 3594 	.db #0x00	; 0
   0CA5 00                 3595 	.db #0x00	; 0
   0CA6 00                 3596 	.db #0x00	; 0
   0CA7 00                 3597 	.db #0x00	; 0
   0CA8 00                 3598 	.db #0x00	; 0
   0CA9 00                 3599 	.db #0x00	; 0
   0CAA 00                 3600 	.db #0x00	; 0
   0CAB 66                 3601 	.db #0x66	; 102	'f'
   0CAC 0D                 3602 	.db #0x0d	; 13
   0CAD 0D                 3603 	.db #0x0d	; 13
   0CAE 15                 3604 	.db #0x15	; 21
   0CAF 16                 3605 	.db #0x16	; 22
   0CB0 0D                 3606 	.db #0x0d	; 13
   0CB1 0D                 3607 	.db #0x0d	; 13
   0CB2 0E                 3608 	.db #0x0e	; 14
   0CB3 00                 3609 	.db #0x00	; 0
   0CB4 00                 3610 	.db #0x00	; 0
   0CB5 00                 3611 	.db #0x00	; 0
   0CB6 00                 3612 	.db #0x00	; 0
   0CB7 00                 3613 	.db #0x00	; 0
   0CB8 00                 3614 	.db #0x00	; 0
   0CB9 00                 3615 	.db #0x00	; 0
   0CBA 00                 3616 	.db #0x00	; 0
   0CBB 00                 3617 	.db #0x00	; 0
   0CBC 00                 3618 	.db #0x00	; 0
   0CBD 00                 3619 	.db #0x00	; 0
   0CBE 00                 3620 	.db #0x00	; 0
   0CBF 67                 3621 	.db #0x67	; 103	'g'
   0CC0 21                 3622 	.db #0x21	; 33
   0CC1 21                 3623 	.db #0x21	; 33
   0CC2 22                 3624 	.db #0x22	; 34
   0CC3 68                 3625 	.db #0x68	; 104	'h'
   0CC4 21                 3626 	.db #0x21	; 33
   0CC5 21                 3627 	.db #0x21	; 33
   0CC6 69                 3628 	.db #0x69	; 105	'i'
   0CC7 00                 3629 	.db #0x00	; 0
   0CC8 00                 3630 	.db #0x00	; 0
   0CC9 00                 3631 	.db #0x00	; 0
   0CCA 00                 3632 	.db #0x00	; 0
   0CCB 00                 3633 	.db #0x00	; 0
   0CCC 00                 3634 	.db #0x00	; 0
   0CCD 00                 3635 	.db #0x00	; 0
   0CCE 00                 3636 	.db #0x00	; 0
   0CCF 00                 3637 	.db #0x00	; 0
   0CD0 00                 3638 	.db #0x00	; 0
   0CD1 00                 3639 	.db #0x00	; 0
   0CD2 00                 3640 	.db #0x00	; 0
   0CD3 00                 3641 	.db #0x00	; 0
   0CD4 00                 3642 	.db #0x00	; 0
   0CD5 00                 3643 	.db #0x00	; 0
   0CD6 00                 3644 	.db #0x00	; 0
   0CD7 00                 3645 	.db #0x00	; 0
   0CD8 00                 3646 	.db #0x00	; 0
   0CD9 00                 3647 	.db #0x00	; 0
   0CDA 00                 3648 	.db #0x00	; 0
   0CDB 00                 3649 	.db #0x00	; 0
   0CDC 00                 3650 	.db #0x00	; 0
   0CDD 00                 3651 	.db #0x00	; 0
   0CDE 00                 3652 	.db #0x00	; 0
   0CDF 00                 3653 	.db #0x00	; 0
   0CE0 00                 3654 	.db #0x00	; 0
   0CE1 00                 3655 	.db #0x00	; 0
   0CE2 00                 3656 	.db #0x00	; 0
   0CE3 00                 3657 	.db #0x00	; 0
   0CE4 00                 3658 	.db #0x00	; 0
                           3659 ;./src/./maps.c:54: void set_map (MPlayer* player){
                           3660 ;	---------------------------------
                           3661 ; Function set_map
                           3662 ; ---------------------------------
   0CE5                    3663 _set_map::
   0CE5 E8 FC              3664 	add	sp, #-4
                           3665 ;./src/./maps.c:55: SWITCH_ROM_MBC5(current_world); 
   0CE7 21rF7r02           3666 	ld	hl, #_current_world
   0CEA 46                 3667 	ld	b, (hl)
   0CEB 01 00 00           3668 	ld	bc,#0x0000
   0CEE 21 00 30           3669 	ld	hl, #0x3000
   0CF1 71                 3670 	ld	(hl), c
   0CF2 11 00 20           3671 	ld	de, #0x2000
   0CF5 21rF7r02           3672 	ld	hl, #_current_world
   0CF8 7E                 3673 	ld	a, (hl)
   0CF9 12                 3674 	ld	(de), a
                           3675 ;./src/./maps.c:56: set_bkg_tiles(0,0,20,18,GLOBAL_MAP);
   0CFA 21rF6r02           3676 	ld	hl, #_current_level
   0CFD 4E                 3677 	ld	c, (hl)
   0CFE 06 00              3678 	ld	b, #0x00
   0D00 69                 3679 	ld	l, c
   0D01 60                 3680 	ld	h, b
   0D02 29                 3681 	add	hl, hl
   0D03 29                 3682 	add	hl, hl
   0D04 09                 3683 	add	hl, bc
   0D05 29                 3684 	add	hl, hl
   0D06 09                 3685 	add	hl, bc
   0D07 29                 3686 	add	hl, hl
   0D08 29                 3687 	add	hl, hl
   0D09 09                 3688 	add	hl, bc
   0D0A 29                 3689 	add	hl, hl
   0D0B 29                 3690 	add	hl, hl
   0D0C 29                 3691 	add	hl, hl
   0D0D 4D                 3692 	ld	c, l
   0D0E 44                 3693 	ld	b, h
   0D0F 21r00r00           3694 	ld	hl, #_maps
   0D12 09                 3695 	add	hl, bc
   0D13 4D                 3696 	ld	c, l
   0D14 7C                 3697 	ld	a, h
   0D15 47                 3698 	ld	b, a
   0D16 C5                 3699 	push	bc
   0D17 3E 12              3700 	ld	a, #0x12
   0D19 F5                 3701 	push	af
   0D1A 33                 3702 	inc	sp
   0D1B 3E 14              3703 	ld	a, #0x14
   0D1D F5                 3704 	push	af
   0D1E 33                 3705 	inc	sp
   0D1F AF                 3706 	xor	a, a
   0D20 F5                 3707 	push	af
   0D21 33                 3708 	inc	sp
   0D22 AF                 3709 	xor	a, a
   0D23 F5                 3710 	push	af
   0D24 33                 3711 	inc	sp
   0D25 CDr00r00           3712 	call	_set_bkg_tiles
   0D28 E8 06              3713 	add	sp, #6
                           3714 ;./src/./maps.c:57: SWITCH_ROM_MBC5(0);
   0D2A 21 00 30           3715 	ld	hl, #0x3000
   0D2D 36 00              3716 	ld	(hl), #0x00
   0D2F 26 20              3717 	ld	h, #0x20
   0D31 36 00              3718 	ld	(hl), #0x00
                           3719 ;./src/./maps.c:59: for(UINT16 i = 20 * 18 - 1; i >= 0; --i){
   0D33 F8 02              3720 	ldhl	sp,	#2
   0D35 36 67              3721 	ld	(hl), #0x67
   0D37 23                 3722 	inc	hl
   0D38 36 01              3723 	ld	(hl), #0x01
   0D3A                    3724 00104$:
                           3725 ;./src/./maps.c:60: SWITCH_ROM_MBC5(current_world);
   0D3A 21rF7r02           3726 	ld	hl, #_current_world
   0D3D 46                 3727 	ld	b, (hl)
   0D3E 01 00 00           3728 	ld	bc,#0x0000
   0D41 21 00 30           3729 	ld	hl, #0x3000
   0D44 71                 3730 	ld	(hl), c
   0D45 11 00 20           3731 	ld	de, #0x2000
   0D48 21rF7r02           3732 	ld	hl, #_current_world
   0D4B 7E                 3733 	ld	a, (hl)
   0D4C 12                 3734 	ld	(de), a
                           3735 ;./src/./maps.c:61: if(GLOBAL_MAP[i] == START_TILE){
   0D4D 21rF6r02           3736 	ld	hl, #_current_level
   0D50 4E                 3737 	ld	c, (hl)
   0D51 06 00              3738 	ld	b, #0x00
   0D53 69                 3739 	ld	l, c
   0D54 60                 3740 	ld	h, b
   0D55 29                 3741 	add	hl, hl
   0D56 29                 3742 	add	hl, hl
   0D57 09                 3743 	add	hl, bc
   0D58 29                 3744 	add	hl, hl
   0D59 09                 3745 	add	hl, bc
   0D5A 29                 3746 	add	hl, hl
   0D5B 29                 3747 	add	hl, hl
   0D5C 09                 3748 	add	hl, bc
   0D5D 29                 3749 	add	hl, hl
   0D5E 29                 3750 	add	hl, hl
   0D5F 29                 3751 	add	hl, hl
   0D60 4D                 3752 	ld	c, l
   0D61 44                 3753 	ld	b, h
   0D62 21r00r00           3754 	ld	hl, #_maps
   0D65 09                 3755 	add	hl, bc
   0D66 4D                 3756 	ld	c, l
   0D67 44                 3757 	ld	b, h
   0D68 F8 02              3758 	ldhl	sp,	#2
   0D6A 2A                 3759 	ld	a, (hl+)
   0D6B 66                 3760 	ld	h, (hl)
   0D6C 6F                 3761 	ld	l, a
   0D6D 09                 3762 	add	hl, bc
   0D6E 4D                 3763 	ld	c, l
   0D6F 44                 3764 	ld	b, h
   0D70 0A                 3765 	ld	a, (bc)
   0D71 D6 02              3766 	sub	a, #0x02
   0D73 C2rBBr0D           3767 	jp	NZ,00106$
                           3768 ;./src/./maps.c:62: SWITCH_ROM_MBC1(0);
   0D76 21 00 20           3769 	ld	hl, #0x2000
   0D79 36 00              3770 	ld	(hl), #0x00
                           3771 ;./src/./maps.c:63: player->sprite.position.x = i % 20 * 8 + 8;
   0D7B F8 06              3772 	ldhl	sp,#(7 - 1)
   0D7D 4E                 3773 	ld	c, (hl)
   0D7E 23                 3774 	inc	hl
   0D7F 46                 3775 	ld	b, (hl)
   0D80 C5                 3776 	push	bc
   0D81 21 14 00           3777 	ld	hl, #0x0014
   0D84 E5                 3778 	push	hl
   0D85 F8 06              3779 	ldhl	sp,	#6
   0D87 2A                 3780 	ld	a, (hl+)
   0D88 66                 3781 	ld	h, (hl)
   0D89 6F                 3782 	ld	l, a
   0D8A E5                 3783 	push	hl
   0D8B CDr00r00           3784 	call	__moduint
   0D8E E8 04              3785 	add	sp, #4
   0D90 C1                 3786 	pop	bc
   0D91 7B                 3787 	ld	a, e
   0D92 87                 3788 	add	a, a
   0D93 87                 3789 	add	a, a
   0D94 87                 3790 	add	a, a
   0D95 C6 08              3791 	add	a, #0x08
   0D97 02                 3792 	ld	(bc), a
                           3793 ;./src/./maps.c:64: player->sprite.position.y = i / 20 * 8 + 16;
   0D98 21 01 00           3794 	ld	hl, #0x0001
   0D9B 09                 3795 	add	hl, bc
   0D9C 33                 3796 	inc	sp
   0D9D 33                 3797 	inc	sp
   0D9E E5                 3798 	push	hl
   0D9F C5                 3799 	push	bc
   0DA0 21 14 00           3800 	ld	hl, #0x0014
   0DA3 E5                 3801 	push	hl
   0DA4 F8 06              3802 	ldhl	sp,	#6
   0DA6 2A                 3803 	ld	a, (hl+)
   0DA7 66                 3804 	ld	h, (hl)
   0DA8 6F                 3805 	ld	l, a
   0DA9 E5                 3806 	push	hl
   0DAA CDr00r00           3807 	call	__divuint
   0DAD E8 04              3808 	add	sp, #4
   0DAF C1                 3809 	pop	bc
   0DB0 7B                 3810 	ld	a, e
   0DB1 87                 3811 	add	a, a
   0DB2 87                 3812 	add	a, a
   0DB3 87                 3813 	add	a, a
   0DB4 C6 10              3814 	add	a, #0x10
   0DB6 E1                 3815 	pop	hl
   0DB7 E5                 3816 	push	hl
   0DB8 77                 3817 	ld	(hl), a
                           3818 ;./src/./maps.c:65: break;
   0DB9 18 0D              3819 	jr	00103$
   0DBB                    3820 00106$:
                           3821 ;./src/./maps.c:59: for(UINT16 i = 20 * 18 - 1; i >= 0; --i){
   0DBB F8 02              3822 	ldhl	sp,#(3 - 1)
   0DBD 5E                 3823 	ld	e, (hl)
   0DBE 23                 3824 	inc	hl
   0DBF 56                 3825 	ld	d, (hl)
   0DC0 1B                 3826 	dec	de
   0DC1 2B                 3827 	dec	hl
   0DC2 73                 3828 	ld	(hl), e
   0DC3 23                 3829 	inc	hl
   0DC4 72                 3830 	ld	(hl), d
   0DC5 C3r3Ar0D           3831 	jp	00104$
   0DC8                    3832 00103$:
                           3833 ;./src/./maps.c:69: update_position(&(player->sprite));
   0DC8 C5                 3834 	push	bc
   0DC9 CDr97r00           3835 	call	_update_position
   0DCC E8 02              3836 	add	sp, #2
                           3837 ;./src/./maps.c:71: }
   0DCE E8 04              3838 	add	sp, #4
   0DD0 C9                 3839 	ret
                           3840 ;./src/./maps.c:73: BYTE win_condition (MPlayer* player){
                           3841 ;	---------------------------------
                           3842 ; Function win_condition
                           3843 ; ---------------------------------
   0DD1                    3844 _win_condition::
   0DD1 E8 FC              3845 	add	sp, #-4
                           3846 ;./src/./maps.c:74: UINT16 pos = get_world_to_map((player->sprite.position.x), player->sprite.position.y);
   0DD3 F8 06              3847 	ldhl	sp,	#6
   0DD5 2A                 3848 	ld	a, (hl+)
   0DD6 5E                 3849 	ld	e, (hl)
   0DD7 F8 00              3850 	ldhl	sp,	#0
   0DD9 22                 3851 	ld	(hl+), a
   0DDA 73                 3852 	ld	(hl), e
   0DDB C1                 3853 	pop	bc
   0DDC C5                 3854 	push	bc
   0DDD 03                 3855 	inc	bc
   0DDE 0A                 3856 	ld	a, (bc)
   0DDF 4F                 3857 	ld	c, a
   0DE0 06 00              3858 	ld	b, #0x00
   0DE2 D1                 3859 	pop	de
   0DE3 D5                 3860 	push	de
   0DE4 1A                 3861 	ld	a,(de)
   0DE5 5F                 3862 	ld	e, a
   0DE6 16 00              3863 	ld	d, #0x00
   0DE8 C5                 3864 	push	bc
   0DE9 D5                 3865 	push	de
   0DEA CDr88r04           3866 	call	_get_world_to_map
   0DED E8 04              3867 	add	sp, #4
   0DEF F8 02              3868 	ldhl	sp,	#2
   0DF1 73                 3869 	ld	(hl), e
   0DF2 23                 3870 	inc	hl
   0DF3 72                 3871 	ld	(hl), d
                           3872 ;./src/./maps.c:75: SWITCH_ROM_MBC5(current_world);
   0DF4 21rF7r02           3873 	ld	hl, #_current_world
   0DF7 46                 3874 	ld	b, (hl)
   0DF8 01 00 00           3875 	ld	bc,#0x0000
   0DFB 21 00 30           3876 	ld	hl, #0x3000
   0DFE 71                 3877 	ld	(hl), c
   0DFF 11 00 20           3878 	ld	de, #0x2000
   0E02 21rF7r02           3879 	ld	hl, #_current_world
   0E05 7E                 3880 	ld	a, (hl)
   0E06 12                 3881 	ld	(de), a
                           3882 ;./src/./maps.c:76: if(GLOBAL_MAP[pos] == FLAG_TILE){
   0E07 21rF6r02           3883 	ld	hl, #_current_level
   0E0A 4E                 3884 	ld	c, (hl)
   0E0B 06 00              3885 	ld	b, #0x00
   0E0D 69                 3886 	ld	l, c
   0E0E 60                 3887 	ld	h, b
   0E0F 29                 3888 	add	hl, hl
   0E10 29                 3889 	add	hl, hl
   0E11 09                 3890 	add	hl, bc
   0E12 29                 3891 	add	hl, hl
   0E13 09                 3892 	add	hl, bc
   0E14 29                 3893 	add	hl, hl
   0E15 29                 3894 	add	hl, hl
   0E16 09                 3895 	add	hl, bc
   0E17 29                 3896 	add	hl, hl
   0E18 29                 3897 	add	hl, hl
   0E19 29                 3898 	add	hl, hl
   0E1A 4D                 3899 	ld	c, l
   0E1B 44                 3900 	ld	b, h
   0E1C 21r00r00           3901 	ld	hl, #_maps
   0E1F 09                 3902 	add	hl, bc
   0E20 4D                 3903 	ld	c, l
   0E21 44                 3904 	ld	b, h
   0E22 F8 02              3905 	ldhl	sp,	#2
   0E24 2A                 3906 	ld	a, (hl+)
   0E25 66                 3907 	ld	h, (hl)
   0E26 6F                 3908 	ld	l, a
   0E27 09                 3909 	add	hl, bc
   0E28 4D                 3910 	ld	c, l
   0E29 44                 3911 	ld	b, h
   0E2A 0A                 3912 	ld	a, (bc)
   0E2B 3D                 3913 	dec	a
   0E2C C2rC1r0E           3914 	jp	NZ,00107$
                           3915 ;./src/./maps.c:77: SWITCH_ROM_MBC5(0);
   0E2F 21 00 30           3916 	ld	hl, #0x3000
   0E32 36 00              3917 	ld	(hl), #0x00
   0E34 26 20              3918 	ld	h, #0x20
   0E36 36 00              3919 	ld	(hl), #0x00
                           3920 ;./src/./maps.c:78: if(current_level < TOTAL_MAP_NUM - 1){
   0E38 21rF6r02           3921 	ld	hl, #_current_level
   0E3B 7E                 3922 	ld	a, (hl)
   0E3C D6 03              3923 	sub	a, #0x03
   0E3E 30 1A              3924 	jr	NC,00104$
                           3925 ;./src/./maps.c:81: delay(100);
   0E40 21 64 00           3926 	ld	hl, #0x0064
   0E43 E5                 3927 	push	hl
   0E44 CDr00r00           3928 	call	_delay
   0E47 E8 02              3929 	add	sp, #2
                           3930 ;./src/./maps.c:82: ++current_level;
   0E49 21rF6r02           3931 	ld	hl, #_current_level
   0E4C 34                 3932 	inc	(hl)
                           3933 ;./src/./maps.c:83: set_map(player);
   0E4D E1                 3934 	pop	hl
   0E4E E5                 3935 	push	hl
   0E4F E5                 3936 	push	hl
   0E50 CDrE5r0C           3937 	call	_set_map
   0E53 E8 02              3938 	add	sp, #2
                           3939 ;./src/./maps.c:84: return 1;
   0E55 1E 01              3940 	ld	e, #0x01
   0E57 C3rC3r0E           3941 	jp	00108$
   0E5A                    3942 00104$:
                           3943 ;./src/./maps.c:87: current_level = 0;
   0E5A 21rF6r02           3944 	ld	hl, #_current_level
   0E5D 36 00              3945 	ld	(hl), #0x00
                           3946 ;./src/./maps.c:88: ++current_world;
   0E5F 21rF7r02           3947 	ld	hl, #_current_world
   0E62 34                 3948 	inc	(hl)
                           3949 ;./src/./maps.c:90: if(current_world == TOTAL_WORLD_NUM){
   0E63 7E                 3950 	ld	a, (hl)
   0E64 D6 02              3951 	sub	a, #0x02
   0E66 C2rC1r0E           3952 	jp	NZ,00107$
                           3953 ;./src/./maps.c:91: move_sprite(player->sprite.sprite_number, 180, 0 );
   0E69 D1                 3954 	pop	de
   0E6A D5                 3955 	push	de
   0E6B 21 04 00           3956 	ld	hl, #0x0004
   0E6E 19                 3957 	add	hl, de
   0E6F 4D                 3958 	ld	c,l
   0E70 7C                 3959 	ld	a,h
   0E71 46                 3960 	ld	b, (hl)
   0E72 AF                 3961 	xor	a, a
   0E73 F5                 3962 	push	af
   0E74 33                 3963 	inc	sp
   0E75 3E B4              3964 	ld	a, #0xb4
   0E77 F5                 3965 	push	af
   0E78 33                 3966 	inc	sp
   0E79 C5                 3967 	push	bc
   0E7A 33                 3968 	inc	sp
   0E7B CDr00r00           3969 	call	_move_sprite
   0E7E E8 03              3970 	add	sp, #3
                           3971 ;./src/./maps.c:92: set_bkg_data(0, 114, you_win_data);
   0E80 21rDDr04           3972 	ld	hl, #_you_win_data
   0E83 E5                 3973 	push	hl
   0E84 3E 72              3974 	ld	a, #0x72
   0E86 F5                 3975 	push	af
   0E87 33                 3976 	inc	sp
   0E88 AF                 3977 	xor	a, a
   0E89 F5                 3978 	push	af
   0E8A 33                 3979 	inc	sp
   0E8B CDr00r00           3980 	call	_set_bkg_data
   0E8E E8 04              3981 	add	sp, #4
                           3982 ;./src/./maps.c:93: set_bkg_tiles(0, 0, 20, 18, you_win_map);
   0E90 21r7Dr0B           3983 	ld	hl, #_you_win_map
   0E93 E5                 3984 	push	hl
   0E94 3E 12              3985 	ld	a, #0x12
   0E96 F5                 3986 	push	af
   0E97 33                 3987 	inc	sp
   0E98 3E 14              3988 	ld	a, #0x14
   0E9A F5                 3989 	push	af
   0E9B 33                 3990 	inc	sp
   0E9C AF                 3991 	xor	a, a
   0E9D F5                 3992 	push	af
   0E9E 33                 3993 	inc	sp
   0E9F AF                 3994 	xor	a, a
   0EA0 F5                 3995 	push	af
   0EA1 33                 3996 	inc	sp
   0EA2 CDr00r00           3997 	call	_set_bkg_tiles
   0EA5 E8 06              3998 	add	sp, #6
                           3999 ;./src/./maps.c:95: current_level = 0;
   0EA7 21rF6r02           4000 	ld	hl, #_current_level
   0EAA 36 00              4001 	ld	(hl), #0x00
                           4002 ;./src/./maps.c:96: current_world = 0;
   0EAC 21rF7r02           4003 	ld	hl, #_current_world
   0EAF 36 00              4004 	ld	(hl), #0x00
                           4005 ;./src/./maps.c:97: JOYPAD_WAIT_ANY;
   0EB1 3E FF              4006 	ld	a, #0xff
   0EB3 F5                 4007 	push	af
   0EB4 33                 4008 	inc	sp
   0EB5 CDr00r00           4009 	call	_joypad_wait
   0EB8 33                 4010 	inc	sp
                           4011 ;./src/./maps.c:98: set_map(player);
   0EB9 E1                 4012 	pop	hl
   0EBA E5                 4013 	push	hl
   0EBB E5                 4014 	push	hl
   0EBC CDrE5r0C           4015 	call	_set_map
   0EBF E8 02              4016 	add	sp, #2
   0EC1                    4017 00107$:
                           4018 ;./src/./maps.c:102: return 0;
   0EC1 1E 00              4019 	ld	e, #0x00
   0EC3                    4020 00108$:
                           4021 ;./src/./maps.c:103: }
   0EC3 E8 04              4022 	add	sp, #4
   0EC5 C9                 4023 	ret
                           4024 ;./src/./physics.c:3: void gravity(MSprite* sprite){
                           4025 ;	---------------------------------
                           4026 ; Function gravity
                           4027 ; ---------------------------------
   0EC6                    4028 _gravity::
   0EC6 E8 FC              4029 	add	sp, #-4
                           4030 ;./src/./physics.c:5: if(sprite->col.direction.y != 1 &&
   0EC8 F8 06              4031 	ldhl	sp,#(7 - 1)
   0ECA 4E                 4032 	ld	c, (hl)
   0ECB 23                 4033 	inc	hl
   0ECC 46                 4034 	ld	b, (hl)
   0ECD 21 0C 00           4035 	ld	hl, #0x000c
   0ED0 09                 4036 	add	hl, bc
   0ED1 7D                 4037 	ld	a, l
   0ED2 54                 4038 	ld	d, h
   0ED3 F8 02              4039 	ldhl	sp,	#2
   0ED5 22                 4040 	ld	(hl+), a
   0ED6 72                 4041 	ld	(hl), d
   0ED7 2B                 4042 	dec	hl
   0ED8 5E                 4043 	ld	e, (hl)
   0ED9 23                 4044 	inc	hl
   0EDA 56                 4045 	ld	d, (hl)
   0EDB 1A                 4046 	ld	a,(de)
   0EDC 2B                 4047 	dec	hl
   0EDD 22                 4048 	ld	(hl+), a
   0EDE 13                 4049 	inc	de
   0EDF 1A                 4050 	ld	a, (de)
   0EE0 32                 4051 	ld	(hl-), a
   0EE1 7E                 4052 	ld	a, (hl)
   0EE2 3D                 4053 	dec	a
   0EE3 23                 4054 	inc	hl
   0EE4 B6                 4055 	or	a, (hl)
   0EE5 CArCAr0F           4056 	jp	Z,00104$
                           4057 ;./src/./physics.c:6: FINT(sprite->speed.y) <= 8){
   0EE8 21 07 00           4058 	ld	hl, #0x0007
   0EEB 09                 4059 	add	hl, bc
   0EEC 7D                 4060 	ld	a, l
   0EED 54                 4061 	ld	d, h
   0EEE F8 02              4062 	ldhl	sp,	#2
   0EF0 22                 4063 	ld	(hl+), a
   0EF1 72                 4064 	ld	(hl), d
   0EF2 2B                 4065 	dec	hl
   0EF3 5E                 4066 	ld	e, (hl)
   0EF4 23                 4067 	inc	hl
   0EF5 56                 4068 	ld	d, (hl)
   0EF6 1A                 4069 	ld	a,(de)
   0EF7 F8 00              4070 	ldhl	sp,	#0
   0EF9 22                 4071 	ld	(hl+), a
   0EFA 13                 4072 	inc	de
   0EFB 1A                 4073 	ld	a, (de)
   0EFC 77                 4074 	ld	(hl), a
   0EFD C1                 4075 	pop	bc
   0EFE C5                 4076 	push	bc
   0EFF CB 28              4077 	sra	b
   0F01 CB 19              4078 	rr	c
   0F03 CB 28              4079 	sra	b
   0F05 CB 19              4080 	rr	c
   0F07 CB 28              4081 	sra	b
   0F09 CB 19              4082 	rr	c
   0F0B CB 28              4083 	sra	b
   0F0D CB 19              4084 	rr	c
   0F0F 78                 4085 	ld	a, b
   0F10 5F                 4086 	ld	e, a
   0F11 3E 00              4087 	ld	a, #0x00
   0F13 57                 4088 	ld	d, a
   0F14 3E 08              4089 	ld	a, #0x08
   0F16 B9                 4090 	cp	a, c
   0F17 3E 00              4091 	ld	a, #0x00
   0F19 98                 4092 	sbc	a, b
   0F1A CB 7B              4093 	bit	7, e
   0F1C 28 07              4094 	jr	Z,00123$
   0F1E CB 7A              4095 	bit	7, d
   0F20 20 08              4096 	jr	NZ,00124$
   0F22 BF                 4097 	cp	a, a
   0F23 18 05              4098 	jr	00124$
   0F25                    4099 00123$:
   0F25 CB 7A              4100 	bit	7, d
   0F27 28 01              4101 	jr	Z,00124$
   0F29 37                 4102 	scf
   0F2A                    4103 00124$:
   0F2A DArCAr0F           4104 	jp	C, 00104$
                           4105 ;./src/./physics.c:7: sprite->speed.y =  FADD(sprite->speed.y, FDIV(GRAVITY, ITOF(FPS)));
   0F2D D1                 4106 	pop	de
   0F2E D5                 4107 	push	de
   0F2F 21 0E 00           4108 	ld	hl, #0x000e
   0F32 19                 4109 	add	hl, de
   0F33 4D                 4110 	ld	c, l
   0F34 44                 4111 	ld	b, h
   0F35 F8 02              4112 	ldhl	sp,	#2
   0F37 2A                 4113 	ld	a, (hl+)
   0F38 66                 4114 	ld	h, (hl)
   0F39 6F                 4115 	ld	l, a
   0F3A 71                 4116 	ld	(hl), c
   0F3B 23                 4117 	inc	hl
   0F3C 70                 4118 	ld	(hl), b
                           4119 ;./src/./physics.c:8: DEBUG_LOG_MESSAGE("ACC: %d.%d", FINT(FDIV(GRAVITY, ITOF(FPS))), FFRAC(FDIV(GRAVITY, ITOF(FPS)), 10))
   0F3D 21 08 00           4120 	ld	hl, #0x0008
   0F40 E5                 4121 	push	hl
   0F41 2E 00              4122 	ld	l, #0x00
   0F43 E5                 4123 	push	hl
   0F44 21rCDr0F           4124 	ld	hl, #___str_1
   0F47 E5                 4125 	push	hl
   0F48 21rF5r00           4126 	ld	hl, #_debug_buffer
   0F4B E5                 4127 	push	hl
   0F4C CDr00r00           4128 	call	_sprintf
   0F4F E8 08              4129 	add	sp, #8
   0F51 52                 4130 	ld d, d 
   0F52 18 08              4131 	jr 800$ 
   0F54 64 64              4132 	.dw 0x6464 
   0F56 01 00              4133 	.dw 0x0001 
   0F58rF5r00              4134 	.dw #_debug_buffer 
   0F5A 00 00              4135 	.dw 0 
   0F5C                    4136 	 800$:
                           4137 ;./src/./physics.c:6: FINT(sprite->speed.y) <= 8){
   0F5C F8 02              4138 	ldhl	sp,#(3 - 1)
   0F5E 5E                 4139 	ld	e, (hl)
   0F5F 23                 4140 	inc	hl
   0F60 56                 4141 	ld	d, (hl)
   0F61 1A                 4142 	ld	a,(de)
   0F62 F8 00              4143 	ldhl	sp,	#0
   0F64 22                 4144 	ld	(hl+), a
   0F65 13                 4145 	inc	de
   0F66 1A                 4146 	ld	a, (de)
                           4147 ;./src/./physics.c:9: DEBUG_LOG_MESSAGE("sprite y speed: %d.%d", FINT(sprite->speed.y), FFRAC(sprite->speed.y, 10));
   0F67 32                 4148 	ld	(hl-), a
   0F68 7E                 4149 	ld	a, (hl)
   0F69 E6 0F              4150 	and	a, #0x0f
   0F6B 4F                 4151 	ld	c, a
   0F6C 06 00              4152 	ld	b, #0x00
   0F6E 69                 4153 	ld	l, c
   0F6F 60                 4154 	ld	h, b
   0F70 29                 4155 	add	hl, hl
   0F71 29                 4156 	add	hl, hl
   0F72 09                 4157 	add	hl, bc
   0F73 29                 4158 	add	hl, hl
   0F74 4D                 4159 	ld	c, l
   0F75 44                 4160 	ld	b, h
   0F76 F8 02              4161 	ldhl	sp,	#2
   0F78 71                 4162 	ld	(hl), c
   0F79 23                 4163 	inc	hl
   0F7A 70                 4164 	ld	(hl), b
   0F7B CB 78              4165 	bit	7, b
   0F7D 28 0A              4166 	jr	Z,00106$
   0F7F 21 0F 00           4167 	ld	hl, #0x000f
   0F82 09                 4168 	add	hl, bc
   0F83 7D                 4169 	ld	a, l
   0F84 54                 4170 	ld	d, h
   0F85 F8 02              4171 	ldhl	sp,	#2
   0F87 22                 4172 	ld	(hl+), a
   0F88 72                 4173 	ld	(hl), d
   0F89                    4174 00106$:
   0F89 F8 02              4175 	ldhl	sp,#(3 - 1)
   0F8B 4E                 4176 	ld	c, (hl)
   0F8C 23                 4177 	inc	hl
   0F8D 46                 4178 	ld	b, (hl)
   0F8E CB 28              4179 	sra	b
   0F90 CB 19              4180 	rr	c
   0F92 CB 28              4181 	sra	b
   0F94 CB 19              4182 	rr	c
   0F96 CB 28              4183 	sra	b
   0F98 CB 19              4184 	rr	c
   0F9A CB 28              4185 	sra	b
   0F9C CB 19              4186 	rr	c
   0F9E D1                 4187 	pop	de
   0F9F D5                 4188 	push	de
   0FA0 CB 2A              4189 	sra	d
   0FA2 CB 1B              4190 	rr	e
   0FA4 CB 2A              4191 	sra	d
   0FA6 CB 1B              4192 	rr	e
   0FA8 CB 2A              4193 	sra	d
   0FAA CB 1B              4194 	rr	e
   0FAC CB 2A              4195 	sra	d
   0FAE CB 1B              4196 	rr	e
   0FB0 C5                 4197 	push	bc
   0FB1 D5                 4198 	push	de
   0FB2 21rD8r0F           4199 	ld	hl, #___str_2
   0FB5 E5                 4200 	push	hl
   0FB6 21rF5r00           4201 	ld	hl, #_debug_buffer
   0FB9 E5                 4202 	push	hl
   0FBA CDr00r00           4203 	call	_sprintf
   0FBD E8 08              4204 	add	sp, #8
   0FBF 52                 4205 	ld d, d 
   0FC0 18 08              4206 	jr 900$ 
   0FC2 64 64              4207 	.dw 0x6464 
   0FC4 01 00              4208 	.dw 0x0001 
   0FC6rF5r00              4209 	.dw #_debug_buffer 
   0FC8 00 00              4210 	.dw 0 
   0FCA                    4211 	 900$:
   0FCA                    4212 00104$:
                           4213 ;./src/./physics.c:11: }
   0FCA E8 04              4214 	add	sp, #4
   0FCC C9                 4215 	ret
   0FCD                    4216 ___str_1:
   0FCD 41 43 43 3A 20 25  4217 	.ascii "ACC: %d.%d"
        64 2E 25 64
   0FD7 00                 4218 	.db 0x00
   0FD8                    4219 ___str_2:
   0FD8 73 70 72 69 74 65  4220 	.ascii "sprite y speed: %d.%d"
        20 79 20 73 70 65
        65 64 3A 20 25 64
        2E 25 64
   0FED 00                 4221 	.db 0x00
                           4222 ;./src/./physics.c:27: UINT16 round_up(UINT16 num, UINT16 multiple)
                           4223 ;	---------------------------------
                           4224 ; Function round_up
                           4225 ; ---------------------------------
   0FEE                    4226 _round_up::
   0FEE E8 FE              4227 	add	sp, #-2
                           4228 ;./src/./physics.c:29: if (multiple == 0){
   0FF0 F8 07              4229 	ldhl	sp,	#7
   0FF2 3A                 4230 	ld	a, (hl-)
   0FF3 B6                 4231 	or	a, (hl)
   0FF4 20 08              4232 	jr	NZ,00102$
                           4233 ;./src/./physics.c:30: return num;
   0FF6 2B                 4234 	dec	hl
   0FF7 2B                 4235 	dec	hl
   0FF8 5E                 4236 	ld	e, (hl)
   0FF9 23                 4237 	inc	hl
   0FFA 56                 4238 	ld	d, (hl)
   0FFB C3r34r10           4239 	jp	00105$
   0FFE                    4240 00102$:
                           4241 ;./src/./physics.c:33: UINT16 remainder = num % multiple;
   0FFE F8 06              4242 	ldhl	sp,	#6
   1000 2A                 4243 	ld	a, (hl+)
   1001 66                 4244 	ld	h, (hl)
   1002 6F                 4245 	ld	l, a
   1003 E5                 4246 	push	hl
   1004 F8 06              4247 	ldhl	sp,	#6
   1006 2A                 4248 	ld	a, (hl+)
   1007 66                 4249 	ld	h, (hl)
   1008 6F                 4250 	ld	l, a
   1009 E5                 4251 	push	hl
   100A CDr00r00           4252 	call	__moduint
   100D E8 04              4253 	add	sp, #4
   100F 4B                 4254 	ld	c, e
                           4255 ;./src/./physics.c:34: if (remainder == 0){
   1010 7A                 4256 	ld	a,d
   1011 47                 4257 	ld	b,a
   1012 B3                 4258 	or	a, e
   1013 20 07              4259 	jr	NZ,00104$
                           4260 ;./src/./physics.c:35: return num;
   1015 F8 04              4261 	ldhl	sp,#(5 - 1)
   1017 5E                 4262 	ld	e, (hl)
   1018 23                 4263 	inc	hl
   1019 56                 4264 	ld	d, (hl)
   101A 18 18              4265 	jr	00105$
   101C                    4266 00104$:
                           4267 ;./src/./physics.c:37: return num + multiple - remainder;
   101C F8 04              4268 	ldhl	sp,#(5 - 1)
   101E 5E                 4269 	ld	e, (hl)
   101F 23                 4270 	inc	hl
   1020 56                 4271 	ld	d, (hl)
   1021 23                 4272 	inc	hl
   1022 2A                 4273 	ld	a, (hl+)
   1023 66                 4274 	ld	h, (hl)
   1024 6F                 4275 	ld	l, a
   1025 19                 4276 	add	hl, de
   1026 33                 4277 	inc	sp
   1027 33                 4278 	inc	sp
   1028 E5                 4279 	push	hl
   1029 D1                 4280 	pop	de
   102A D5                 4281 	push	de
   102B 7B                 4282 	ld	a, e
   102C 91                 4283 	sub	a, c
   102D 5F                 4284 	ld	e, a
   102E 7A                 4285 	ld	a, d
   102F 98                 4286 	sbc	a, b
   1030 47                 4287 	ld	b, a
   1031 4B                 4288 	ld	c, e
   1032 59                 4289 	ld	e, c
   1033 50                 4290 	ld	d, b
   1034                    4291 00105$:
                           4292 ;./src/./physics.c:38: }
   1034 E8 02              4293 	add	sp, #2
   1036 C9                 4294 	ret
                           4295 ;./src/./physics.c:40: UINT16 round_down(UINT16 num, UINT16 multiple){
                           4296 ;	---------------------------------
                           4297 ; Function round_down
                           4298 ; ---------------------------------
   1037                    4299 _round_down::
                           4300 ;./src/./physics.c:41: if (multiple == 0){
   1037 F8 05              4301 	ldhl	sp,	#5
   1039 3A                 4302 	ld	a, (hl-)
   103A B6                 4303 	or	a, (hl)
   103B 20 05              4304 	jr	NZ,00102$
                           4305 ;./src/./physics.c:42: return num;
   103D C1                 4306 	pop	bc
   103E D1                 4307 	pop	de
   103F D5                 4308 	push	de
   1040 C5                 4309 	push	bc
   1041 C9                 4310 	ret
   1042                    4311 00102$:
                           4312 ;./src/./physics.c:45: UINT16 remainder = num % multiple;
   1042 F8 04              4313 	ldhl	sp,	#4
   1044 2A                 4314 	ld	a, (hl+)
   1045 66                 4315 	ld	h, (hl)
   1046 6F                 4316 	ld	l, a
   1047 E5                 4317 	push	hl
   1048 F8 04              4318 	ldhl	sp,	#4
   104A 2A                 4319 	ld	a, (hl+)
   104B 66                 4320 	ld	h, (hl)
   104C 6F                 4321 	ld	l, a
   104D E5                 4322 	push	hl
   104E CDr00r00           4323 	call	__moduint
   1051 E8 04              4324 	add	sp, #4
   1053 4B                 4325 	ld	c, e
                           4326 ;./src/./physics.c:46: if (remainder == 0){
   1054 7A                 4327 	ld	a,d
   1055 47                 4328 	ld	b,a
   1056 B3                 4329 	or	a, e
   1057 20 05              4330 	jr	NZ,00104$
                           4331 ;./src/./physics.c:47: return num;
   1059 C1                 4332 	pop	bc
   105A D1                 4333 	pop	de
   105B D5                 4334 	push	de
   105C C5                 4335 	push	bc
   105D C9                 4336 	ret
   105E                    4337 00104$:
                           4338 ;./src/./physics.c:49: return num - remainder;
   105E F8 02              4339 	ldhl	sp,#(3 - 1)
   1060 5E                 4340 	ld	e, (hl)
   1061 23                 4341 	inc	hl
   1062 56                 4342 	ld	d, (hl)
   1063 7B                 4343 	ld	a, e
   1064 91                 4344 	sub	a, c
   1065 5F                 4345 	ld	e, a
   1066 7A                 4346 	ld	a, d
   1067 98                 4347 	sbc	a, b
   1068 47                 4348 	ld	b, a
   1069 4B                 4349 	ld	c, e
   106A 59                 4350 	ld	e, c
   106B 50                 4351 	ld	d, b
                           4352 ;./src/./physics.c:50: }
   106C C9                 4353 	ret
                           4354 ;./src/./physics.c:52: void collision_check(MSprite* sprite){
                           4355 ;	---------------------------------
                           4356 ; Function collision_check
                           4357 ; ---------------------------------
   106D                    4358 _collision_check::
   106D E8 F2              4359 	add	sp, #-14
                           4360 ;./src/./physics.c:53: UINT16 pos = get_world_to_map(sprite->position.x, sprite->position.y);
   106F F8 10              4361 	ldhl	sp,	#16
   1071 2A                 4362 	ld	a, (hl+)
   1072 5E                 4363 	ld	e, (hl)
   1073 F8 00              4364 	ldhl	sp,	#0
   1075 22                 4365 	ld	(hl+), a
   1076 73                 4366 	ld	(hl), e
   1077 D1                 4367 	pop	de
   1078 D5                 4368 	push	de
   1079 21 01 00           4369 	ld	hl, #0x0001
   107C 19                 4370 	add	hl, de
   107D 7D                 4371 	ld	a, l
   107E 54                 4372 	ld	d, h
   107F F8 02              4373 	ldhl	sp,	#2
   1081 22                 4374 	ld	(hl+), a
   1082 72                 4375 	ld	(hl), d
   1083 2B                 4376 	dec	hl
   1084 5E                 4377 	ld	e, (hl)
   1085 23                 4378 	inc	hl
   1086 56                 4379 	ld	d, (hl)
   1087 1A                 4380 	ld	a,(de)
   1088 4F                 4381 	ld	c, a
   1089 06 00              4382 	ld	b, #0x00
   108B D1                 4383 	pop	de
   108C D5                 4384 	push	de
   108D 1A                 4385 	ld	a,(de)
   108E 5F                 4386 	ld	e, a
   108F 16 00              4387 	ld	d, #0x00
   1091 C5                 4388 	push	bc
   1092 D5                 4389 	push	de
   1093 CDr88r04           4390 	call	_get_world_to_map
   1096 E8 04              4391 	add	sp, #4
   1098 F8 04              4392 	ldhl	sp,	#4
   109A 73                 4393 	ld	(hl), e
   109B 23                 4394 	inc	hl
   109C 72                 4395 	ld	(hl), d
                           4396 ;./src/./physics.c:55: sprite->col.has_collided = false;
   109D D1                 4397 	pop	de
   109E D5                 4398 	push	de
   109F 21 09 00           4399 	ld	hl, #0x0009
   10A2 19                 4400 	add	hl, de
   10A3 7D                 4401 	ld	a, l
   10A4 54                 4402 	ld	d, h
   10A5 F8 06              4403 	ldhl	sp,	#6
   10A7 22                 4404 	ld	(hl+), a
   10A8 72                 4405 	ld	(hl), d
   10A9 2B                 4406 	dec	hl
   10AA 2A                 4407 	ld	a, (hl+)
   10AB 66                 4408 	ld	h, (hl)
   10AC 6F                 4409 	ld	l, a
   10AD 36 00              4410 	ld	(hl), #0x00
                           4411 ;./src/./physics.c:56: sprite->col.direction.x = 0;
   10AF D1                 4412 	pop	de
   10B0 D5                 4413 	push	de
   10B1 21 0A 00           4414 	ld	hl, #0x000a
   10B4 19                 4415 	add	hl, de
   10B5 7D                 4416 	ld	a, l
   10B6 54                 4417 	ld	d, h
   10B7 F8 08              4418 	ldhl	sp,	#8
   10B9 22                 4419 	ld	(hl+), a
   10BA 72                 4420 	ld	(hl), d
   10BB 2B                 4421 	dec	hl
   10BC 2A                 4422 	ld	a, (hl+)
   10BD 66                 4423 	ld	h, (hl)
   10BE 6F                 4424 	ld	l, a
   10BF AF                 4425 	xor	a, a
   10C0 22                 4426 	ld	(hl+), a
   10C1 77                 4427 	ld	(hl), a
                           4428 ;./src/./physics.c:57: sprite->col.direction.y = 0;
   10C2 D1                 4429 	pop	de
   10C3 D5                 4430 	push	de
   10C4 21 0C 00           4431 	ld	hl, #0x000c
   10C7 19                 4432 	add	hl, de
   10C8 7D                 4433 	ld	a, l
   10C9 54                 4434 	ld	d, h
   10CA F8 0A              4435 	ldhl	sp,	#10
   10CC 22                 4436 	ld	(hl+), a
   10CD 72                 4437 	ld	(hl), d
   10CE 2B                 4438 	dec	hl
   10CF 2A                 4439 	ld	a, (hl+)
   10D0 66                 4440 	ld	h, (hl)
   10D1 6F                 4441 	ld	l, a
   10D2 AF                 4442 	xor	a, a
   10D3 22                 4443 	ld	(hl+), a
   10D4 77                 4444 	ld	(hl), a
                           4445 ;./src/./physics.c:58: SWITCH_ROM_MBC5(current_world);
   10D5 21rF7r02           4446 	ld	hl, #_current_world
   10D8 46                 4447 	ld	b, (hl)
   10D9 01 00 00           4448 	ld	bc,#0x0000
   10DC 21 00 30           4449 	ld	hl, #0x3000
   10DF 71                 4450 	ld	(hl), c
   10E0 11 00 20           4451 	ld	de, #0x2000
   10E3 21rF7r02           4452 	ld	hl, #_current_world
   10E6 7E                 4453 	ld	a, (hl)
   10E7 12                 4454 	ld	(de), a
                           4455 ;./src/./physics.c:60: if(pos - 1 % 20 == 0 ||
   10E8 F8 04              4456 	ldhl	sp,#(5 - 1)
   10EA 4E                 4457 	ld	c, (hl)
   10EB 23                 4458 	inc	hl
   10EC 46                 4459 	ld	b, (hl)
   10ED 0B                 4460 	dec	bc
   10EE 78                 4461 	ld	a, b
   10EF B1                 4462 	or	a, c
   10F0 CAr4Cr11           4463 	jp	Z, 00101$
                           4464 ;./src/./physics.c:61: COL_CHECK(-1)){
   10F3 21rF6r02           4465 	ld	hl, #_current_level
   10F6 4E                 4466 	ld	c, (hl)
   10F7 06 00              4467 	ld	b, #0x00
   10F9 69                 4468 	ld	l, c
   10FA 60                 4469 	ld	h, b
   10FB 29                 4470 	add	hl, hl
   10FC 29                 4471 	add	hl, hl
   10FD 09                 4472 	add	hl, bc
   10FE 29                 4473 	add	hl, hl
   10FF 09                 4474 	add	hl, bc
   1100 29                 4475 	add	hl, hl
   1101 29                 4476 	add	hl, hl
   1102 09                 4477 	add	hl, bc
   1103 29                 4478 	add	hl, hl
   1104 29                 4479 	add	hl, hl
   1105 29                 4480 	add	hl, hl
   1106 4D                 4481 	ld	c, l
   1107 44                 4482 	ld	b, h
   1108 21r00r00           4483 	ld	hl, #_maps
   110B 09                 4484 	add	hl, bc
   110C 4D                 4485 	ld	c, l
   110D 44                 4486 	ld	b, h
   110E F8 04              4487 	ldhl	sp,#(5 - 1)
   1110 5E                 4488 	ld	e, (hl)
   1111 23                 4489 	inc	hl
   1112 56                 4490 	ld	d, (hl)
   1113 21 FF FF           4491 	ld	hl, #0xffff
   1116 19                 4492 	add	hl, de
   1117 7D                 4493 	ld	a, l
   1118 54                 4494 	ld	d, h
   1119 F8 0C              4495 	ldhl	sp,	#12
   111B 22                 4496 	ld	(hl+), a
   111C 72                 4497 	ld	(hl), d
   111D 2B                 4498 	dec	hl
   111E 2A                 4499 	ld	a, (hl+)
   111F 66                 4500 	ld	h, (hl)
   1120 6F                 4501 	ld	l, a
   1121 09                 4502 	add	hl, bc
   1122 4D                 4503 	ld	c, l
   1123 44                 4504 	ld	b, h
   1124 0A                 4505 	ld	a, (bc)
   1125 B7                 4506 	or	a, a
   1126 CAr7Ar11           4507 	jp	Z, 00102$
   1129 FE 01              4508 	cp	a, #0x01
   112B CAr7Ar11           4509 	jp	Z,00102$
   112E FE 02              4510 	cp	a, #0x02
   1130 CAr7Ar11           4511 	jp	Z,00102$
   1133 FE 09              4512 	cp	a, #0x09
   1135 CAr7Ar11           4513 	jp	Z,00102$
   1138 FE 05              4514 	cp	a, #0x05
   113A CAr7Ar11           4515 	jp	Z,00102$
   113D FE 07              4516 	cp	a, #0x07
   113F CAr7Ar11           4517 	jp	Z,00102$
   1142 FE 06              4518 	cp	a, #0x06
   1144 CAr7Ar11           4519 	jp	Z,00102$
   1147 D6 08              4520 	sub	a, #0x08
   1149 CAr7Ar11           4521 	jp	Z,00102$
   114C                    4522 00101$:
                           4523 ;./src/./physics.c:62: SWITCH_ROM_MBC5(0);
   114C 21 00 30           4524 	ld	hl, #0x3000
   114F 36 00              4525 	ld	(hl), #0x00
   1151 26 20              4526 	ld	h, #0x20
   1153 36 00              4527 	ld	(hl), #0x00
                           4528 ;./src/./physics.c:63: sprite->col.direction.x = -1;
   1155 F8 08              4529 	ldhl	sp,	#8
   1157 2A                 4530 	ld	a, (hl+)
   1158 66                 4531 	ld	h, (hl)
   1159 6F                 4532 	ld	l, a
   115A 36 FF              4533 	ld	(hl), #0xff
   115C 23                 4534 	inc	hl
   115D 36 FF              4535 	ld	(hl), #0xff
                           4536 ;./src/./physics.c:64: sprite->col.has_collided = true;
   115F F8 06              4537 	ldhl	sp,	#6
   1161 2A                 4538 	ld	a, (hl+)
   1162 66                 4539 	ld	h, (hl)
   1163 6F                 4540 	ld	l, a
   1164 36 01              4541 	ld	(hl), #0x01
                           4542 ;./src/./physics.c:65: sprite->position.x = round_up(sprite->position.x, 8);//(((sprite->position.x - 8) >> 3) * 8) + 8;
   1166 D1                 4543 	pop	de
   1167 D5                 4544 	push	de
   1168 1A                 4545 	ld	a,(de)
   1169 4F                 4546 	ld	c, a
   116A 06 00              4547 	ld	b, #0x00
   116C 21 08 00           4548 	ld	hl, #0x0008
   116F E5                 4549 	push	hl
   1170 C5                 4550 	push	bc
   1171 CDrEEr0F           4551 	call	_round_up
   1174 E8 04              4552 	add	sp, #4
   1176 4B                 4553 	ld	c, e
   1177 E1                 4554 	pop	hl
   1178 E5                 4555 	push	hl
   1179 71                 4556 	ld	(hl), c
   117A                    4557 00102$:
                           4558 ;./src/./physics.c:68: if(pos + 1 % 20 == 19 ||
   117A F8 04              4559 	ldhl	sp,#(5 - 1)
   117C 5E                 4560 	ld	e, (hl)
   117D 23                 4561 	inc	hl
   117E 56                 4562 	ld	d, (hl)
   117F 21 01 00           4563 	ld	hl, #0x0001
   1182 19                 4564 	add	hl, de
   1183 7D                 4565 	ld	a, l
   1184 54                 4566 	ld	d, h
   1185 F8 0C              4567 	ldhl	sp,	#12
   1187 22                 4568 	ld	(hl+), a
   1188 72                 4569 	ld	(hl), d
   1189 2B                 4570 	dec	hl
   118A 7E                 4571 	ld	a, (hl)
   118B D6 13              4572 	sub	a, #0x13
   118D 23                 4573 	inc	hl
   118E B6                 4574 	or	a, (hl)
   118F CArDDr11           4575 	jp	Z,00111$
                           4576 ;./src/./physics.c:69: COL_CHECK(1)){
   1192 21rF6r02           4577 	ld	hl, #_current_level
   1195 4E                 4578 	ld	c, (hl)
   1196 06 00              4579 	ld	b, #0x00
   1198 69                 4580 	ld	l, c
   1199 60                 4581 	ld	h, b
   119A 29                 4582 	add	hl, hl
   119B 29                 4583 	add	hl, hl
   119C 09                 4584 	add	hl, bc
   119D 29                 4585 	add	hl, hl
   119E 09                 4586 	add	hl, bc
   119F 29                 4587 	add	hl, hl
   11A0 29                 4588 	add	hl, hl
   11A1 09                 4589 	add	hl, bc
   11A2 29                 4590 	add	hl, hl
   11A3 29                 4591 	add	hl, hl
   11A4 29                 4592 	add	hl, hl
   11A5 4D                 4593 	ld	c, l
   11A6 44                 4594 	ld	b, h
   11A7 21r00r00           4595 	ld	hl, #_maps
   11AA 09                 4596 	add	hl, bc
   11AB 4D                 4597 	ld	c, l
   11AC 44                 4598 	ld	b, h
   11AD F8 0C              4599 	ldhl	sp,	#12
   11AF 2A                 4600 	ld	a, (hl+)
   11B0 66                 4601 	ld	h, (hl)
   11B1 6F                 4602 	ld	l, a
   11B2 09                 4603 	add	hl, bc
   11B3 4D                 4604 	ld	c, l
   11B4 44                 4605 	ld	b, h
   11B5 0A                 4606 	ld	a, (bc)
   11B6 B7                 4607 	or	a, a
   11B7 CAr0Br12           4608 	jp	Z, 00130$
   11BA FE 01              4609 	cp	a, #0x01
   11BC CAr0Br12           4610 	jp	Z,00130$
   11BF FE 02              4611 	cp	a, #0x02
   11C1 CAr0Br12           4612 	jp	Z,00130$
   11C4 FE 09              4613 	cp	a, #0x09
   11C6 CAr0Br12           4614 	jp	Z,00130$
   11C9 FE 05              4615 	cp	a, #0x05
   11CB CAr0Br12           4616 	jp	Z,00130$
   11CE FE 07              4617 	cp	a, #0x07
   11D0 CAr0Br12           4618 	jp	Z,00130$
   11D3 FE 06              4619 	cp	a, #0x06
   11D5 CAr0Br12           4620 	jp	Z,00130$
   11D8 D6 08              4621 	sub	a, #0x08
   11DA CAr0Br12           4622 	jp	Z,00130$
   11DD                    4623 00111$:
                           4624 ;./src/./physics.c:70: SWITCH_ROM_MBC5(0);
   11DD 21 00 30           4625 	ld	hl, #0x3000
   11E0 36 00              4626 	ld	(hl), #0x00
   11E2 26 20              4627 	ld	h, #0x20
   11E4 36 00              4628 	ld	(hl), #0x00
                           4629 ;./src/./physics.c:71: sprite->col.direction.x = 1;
   11E6 F8 08              4630 	ldhl	sp,	#8
   11E8 2A                 4631 	ld	a, (hl+)
   11E9 66                 4632 	ld	h, (hl)
   11EA 6F                 4633 	ld	l, a
   11EB 36 01              4634 	ld	(hl), #0x01
   11ED 23                 4635 	inc	hl
   11EE 36 00              4636 	ld	(hl), #0x00
                           4637 ;./src/./physics.c:72: sprite->col.has_collided = true;
   11F0 F8 06              4638 	ldhl	sp,	#6
   11F2 2A                 4639 	ld	a, (hl+)
   11F3 66                 4640 	ld	h, (hl)
   11F4 6F                 4641 	ld	l, a
   11F5 36 01              4642 	ld	(hl), #0x01
                           4643 ;./src/./physics.c:74: sprite->position.x = round_down(sprite->position.x, 8);//(((sprite->position.x - 8) >> 3) * 8) + 8;
   11F7 D1                 4644 	pop	de
   11F8 D5                 4645 	push	de
   11F9 1A                 4646 	ld	a,(de)
   11FA 4F                 4647 	ld	c, a
   11FB 06 00              4648 	ld	b, #0x00
   11FD 21 08 00           4649 	ld	hl, #0x0008
   1200 E5                 4650 	push	hl
   1201 C5                 4651 	push	bc
   1202 CDr37r10           4652 	call	_round_down
   1205 E8 04              4653 	add	sp, #4
   1207 4B                 4654 	ld	c, e
   1208 E1                 4655 	pop	hl
   1209 E5                 4656 	push	hl
   120A 71                 4657 	ld	(hl), c
                           4658 ;./src/./physics.c:78: COL_CHECK(-20)){
   120B                    4659 00130$:
   120B 21rF6r02           4660 	ld	hl, #_current_level
   120E 4E                 4661 	ld	c, (hl)
   120F 06 00              4662 	ld	b, #0x00
   1211 69                 4663 	ld	l, c
   1212 60                 4664 	ld	h, b
   1213 29                 4665 	add	hl, hl
   1214 29                 4666 	add	hl, hl
   1215 09                 4667 	add	hl, bc
   1216 29                 4668 	add	hl, hl
   1217 09                 4669 	add	hl, bc
   1218 29                 4670 	add	hl, hl
   1219 29                 4671 	add	hl, hl
   121A 09                 4672 	add	hl, bc
   121B 29                 4673 	add	hl, hl
   121C 29                 4674 	add	hl, hl
   121D 29                 4675 	add	hl, hl
   121E 4D                 4676 	ld	c, l
   121F 44                 4677 	ld	b, h
   1220 21r00r00           4678 	ld	hl, #_maps
   1223 09                 4679 	add	hl, bc
   1224 4D                 4680 	ld	c, l
   1225 44                 4681 	ld	b, h
   1226 F8 04              4682 	ldhl	sp,#(5 - 1)
   1228 5E                 4683 	ld	e, (hl)
   1229 23                 4684 	inc	hl
   122A 56                 4685 	ld	d, (hl)
   122B 21 EC FF           4686 	ld	hl, #0xffec
   122E 19                 4687 	add	hl, de
   122F 7D                 4688 	ld	a, l
   1230 54                 4689 	ld	d, h
   1231 F8 0C              4690 	ldhl	sp,	#12
   1233 22                 4691 	ld	(hl+), a
   1234 72                 4692 	ld	(hl), d
   1235 2B                 4693 	dec	hl
   1236 2A                 4694 	ld	a, (hl+)
   1237 66                 4695 	ld	h, (hl)
   1238 6F                 4696 	ld	l, a
   1239 09                 4697 	add	hl, bc
   123A 4D                 4698 	ld	c, l
   123B 44                 4699 	ld	b, h
   123C 0A                 4700 	ld	a, (bc)
   123D B7                 4701 	or	a, a
   123E CAr98r12           4702 	jp	Z, 00122$
   1241 FE 01              4703 	cp	a, #0x01
   1243 CAr98r12           4704 	jp	Z,00122$
   1246 FE 02              4705 	cp	a, #0x02
   1248 CAr98r12           4706 	jp	Z,00122$
   124B FE 09              4707 	cp	a, #0x09
   124D CAr98r12           4708 	jp	Z,00122$
   1250 FE 05              4709 	cp	a, #0x05
   1252 CAr98r12           4710 	jp	Z,00122$
   1255 FE 07              4711 	cp	a, #0x07
   1257 CAr98r12           4712 	jp	Z,00122$
   125A FE 06              4713 	cp	a, #0x06
   125C CAr98r12           4714 	jp	Z,00122$
   125F D6 08              4715 	sub	a, #0x08
   1261 CAr98r12           4716 	jp	Z,00122$
                           4717 ;./src/./physics.c:79: SWITCH_ROM_MBC5(0);
   1264 21 00 30           4718 	ld	hl, #0x3000
   1267 36 00              4719 	ld	(hl), #0x00
   1269 26 20              4720 	ld	h, #0x20
   126B 36 00              4721 	ld	(hl), #0x00
                           4722 ;./src/./physics.c:80: sprite->col.direction.y = -1;
   126D F8 0A              4723 	ldhl	sp,	#10
   126F 2A                 4724 	ld	a, (hl+)
   1270 66                 4725 	ld	h, (hl)
   1271 6F                 4726 	ld	l, a
   1272 36 FF              4727 	ld	(hl), #0xff
   1274 23                 4728 	inc	hl
   1275 36 FF              4729 	ld	(hl), #0xff
                           4730 ;./src/./physics.c:81: sprite->col.has_collided = true;        
   1277 F8 06              4731 	ldhl	sp,	#6
   1279 2A                 4732 	ld	a, (hl+)
   127A 66                 4733 	ld	h, (hl)
   127B 6F                 4734 	ld	l, a
   127C 36 01              4735 	ld	(hl), #0x01
                           4736 ;./src/./physics.c:82: sprite->position.y = round_up(sprite->position.y, 8);//(((sprite->position.y - 16) >> 3) * 8) + 16;
   127E F8 02              4737 	ldhl	sp,#(3 - 1)
   1280 5E                 4738 	ld	e, (hl)
   1281 23                 4739 	inc	hl
   1282 56                 4740 	ld	d, (hl)
   1283 1A                 4741 	ld	a,(de)
   1284 4F                 4742 	ld	c, a
   1285 06 00              4743 	ld	b, #0x00
   1287 21 08 00           4744 	ld	hl, #0x0008
   128A E5                 4745 	push	hl
   128B C5                 4746 	push	bc
   128C CDrEEr0F           4747 	call	_round_up
   128F E8 04              4748 	add	sp, #4
   1291 4B                 4749 	ld	c, e
   1292 F8 02              4750 	ldhl	sp,	#2
   1294 2A                 4751 	ld	a, (hl+)
   1295 66                 4752 	ld	h, (hl)
   1296 6F                 4753 	ld	l, a
   1297 71                 4754 	ld	(hl), c
   1298                    4755 00122$:
                           4756 ;./src/./physics.c:85: if(pos + 20 > 20 * 18 ||
   1298 F8 04              4757 	ldhl	sp,#(5 - 1)
   129A 5E                 4758 	ld	e, (hl)
   129B 23                 4759 	inc	hl
   129C 56                 4760 	ld	d, (hl)
   129D 21 14 00           4761 	ld	hl, #0x0014
   12A0 19                 4762 	add	hl, de
   12A1 7D                 4763 	ld	a, l
   12A2 54                 4764 	ld	d, h
   12A3 F8 0C              4765 	ldhl	sp,	#12
   12A5 22                 4766 	ld	(hl+), a
   12A6 72                 4767 	ld	(hl), d
   12A7 2B                 4768 	dec	hl
   12A8 3E 68              4769 	ld	a, #0x68
   12AA 96                 4770 	sub	a, (hl)
   12AB 23                 4771 	inc	hl
   12AC 3E 01              4772 	ld	a, #0x01
   12AE 9E                 4773 	sbc	a, (hl)
   12AF DArFDr12           4774 	jp	C, 00131$
                           4775 ;./src/./physics.c:86: COL_CHECK(20)){
   12B2 21rF6r02           4776 	ld	hl, #_current_level
   12B5 4E                 4777 	ld	c, (hl)
   12B6 06 00              4778 	ld	b, #0x00
   12B8 69                 4779 	ld	l, c
   12B9 60                 4780 	ld	h, b
   12BA 29                 4781 	add	hl, hl
   12BB 29                 4782 	add	hl, hl
   12BC 09                 4783 	add	hl, bc
   12BD 29                 4784 	add	hl, hl
   12BE 09                 4785 	add	hl, bc
   12BF 29                 4786 	add	hl, hl
   12C0 29                 4787 	add	hl, hl
   12C1 09                 4788 	add	hl, bc
   12C2 29                 4789 	add	hl, hl
   12C3 29                 4790 	add	hl, hl
   12C4 29                 4791 	add	hl, hl
   12C5 4D                 4792 	ld	c, l
   12C6 44                 4793 	ld	b, h
   12C7 21r00r00           4794 	ld	hl, #_maps
   12CA 09                 4795 	add	hl, bc
   12CB 4D                 4796 	ld	c, l
   12CC 44                 4797 	ld	b, h
   12CD F8 0C              4798 	ldhl	sp,	#12
   12CF 2A                 4799 	ld	a, (hl+)
   12D0 66                 4800 	ld	h, (hl)
   12D1 6F                 4801 	ld	l, a
   12D2 09                 4802 	add	hl, bc
   12D3 4D                 4803 	ld	c, l
   12D4 44                 4804 	ld	b, h
   12D5 0A                 4805 	ld	a, (bc)
   12D6 B7                 4806 	or	a, a
   12D7 CAr31r13           4807 	jp	Z, 00132$
   12DA FE 01              4808 	cp	a, #0x01
   12DC CAr31r13           4809 	jp	Z,00132$
   12DF FE 02              4810 	cp	a, #0x02
   12E1 CAr31r13           4811 	jp	Z,00132$
   12E4 FE 09              4812 	cp	a, #0x09
   12E6 CAr31r13           4813 	jp	Z,00132$
   12E9 FE 05              4814 	cp	a, #0x05
   12EB CAr31r13           4815 	jp	Z,00132$
   12EE FE 07              4816 	cp	a, #0x07
   12F0 CAr31r13           4817 	jp	Z,00132$
   12F3 FE 06              4818 	cp	a, #0x06
   12F5 CAr31r13           4819 	jp	Z,00132$
   12F8 D6 08              4820 	sub	a, #0x08
   12FA CAr31r13           4821 	jp	Z,00132$
   12FD                    4822 00131$:
                           4823 ;./src/./physics.c:87: SWITCH_ROM_MBC5(0);
   12FD 21 00 30           4824 	ld	hl, #0x3000
   1300 36 00              4825 	ld	(hl), #0x00
   1302 26 20              4826 	ld	h, #0x20
   1304 36 00              4827 	ld	(hl), #0x00
                           4828 ;./src/./physics.c:88: sprite->col.direction.y = 1;
   1306 F8 0A              4829 	ldhl	sp,	#10
   1308 2A                 4830 	ld	a, (hl+)
   1309 66                 4831 	ld	h, (hl)
   130A 6F                 4832 	ld	l, a
   130B 36 01              4833 	ld	(hl), #0x01
   130D 23                 4834 	inc	hl
   130E 36 00              4835 	ld	(hl), #0x00
                           4836 ;./src/./physics.c:89: sprite->col.has_collided = true;
   1310 F8 06              4837 	ldhl	sp,	#6
   1312 2A                 4838 	ld	a, (hl+)
   1313 66                 4839 	ld	h, (hl)
   1314 6F                 4840 	ld	l, a
   1315 36 01              4841 	ld	(hl), #0x01
                           4842 ;./src/./physics.c:90: sprite->position.y = round_down(sprite->position.y, 8);//sprite->position.y = (((sprite->position.x - 16) >> 3) * 8) + 16;
   1317 F8 02              4843 	ldhl	sp,#(3 - 1)
   1319 5E                 4844 	ld	e, (hl)
   131A 23                 4845 	inc	hl
   131B 56                 4846 	ld	d, (hl)
   131C 1A                 4847 	ld	a,(de)
   131D 4F                 4848 	ld	c, a
   131E 06 00              4849 	ld	b, #0x00
   1320 21 08 00           4850 	ld	hl, #0x0008
   1323 E5                 4851 	push	hl
   1324 C5                 4852 	push	bc
   1325 CDr37r10           4853 	call	_round_down
   1328 E8 04              4854 	add	sp, #4
   132A 4B                 4855 	ld	c, e
   132B F8 02              4856 	ldhl	sp,	#2
   132D 2A                 4857 	ld	a, (hl+)
   132E 66                 4858 	ld	h, (hl)
   132F 6F                 4859 	ld	l, a
   1330 71                 4860 	ld	(hl), c
   1331                    4861 00132$:
                           4862 ;./src/./physics.c:92: SWITCH_ROM_MBC1(0);
   1331 21 00 20           4863 	ld	hl, #0x2000
   1334 36 00              4864 	ld	(hl), #0x00
                           4865 ;./src/./physics.c:93: }
   1336 E8 0E              4866 	add	sp, #14
   1338 C9                 4867 	ret
                           4868 ;./src/./physics.c:95: void death_check(MPlayer* player){
                           4869 ;	---------------------------------
                           4870 ; Function death_check
                           4871 ; ---------------------------------
   1339                    4872 _death_check::
   1339 E8 FC              4873 	add	sp, #-4
                           4874 ;./src/./physics.c:97: UINT16 pos = get_world_to_map((player->sprite.position.x), player->sprite.position.y);
   133B F8 06              4875 	ldhl	sp,	#6
   133D 2A                 4876 	ld	a, (hl+)
   133E 5E                 4877 	ld	e, (hl)
   133F F8 00              4878 	ldhl	sp,	#0
   1341 22                 4879 	ld	(hl+), a
   1342 73                 4880 	ld	(hl), e
   1343 C1                 4881 	pop	bc
   1344 C5                 4882 	push	bc
   1345 03                 4883 	inc	bc
   1346 0A                 4884 	ld	a, (bc)
   1347 4F                 4885 	ld	c, a
   1348 06 00              4886 	ld	b, #0x00
   134A D1                 4887 	pop	de
   134B D5                 4888 	push	de
   134C 1A                 4889 	ld	a,(de)
   134D 5F                 4890 	ld	e, a
   134E 16 00              4891 	ld	d, #0x00
   1350 C5                 4892 	push	bc
   1351 D5                 4893 	push	de
   1352 CDr88r04           4894 	call	_get_world_to_map
   1355 E8 04              4895 	add	sp, #4
   1357 F8 02              4896 	ldhl	sp,	#2
   1359 73                 4897 	ld	(hl), e
   135A 23                 4898 	inc	hl
   135B 72                 4899 	ld	(hl), d
                           4900 ;./src/./physics.c:98: SWITCH_ROM_MBC5(current_world);
   135C 21rF7r02           4901 	ld	hl, #_current_world
   135F 46                 4902 	ld	b, (hl)
   1360 01 00 00           4903 	ld	bc,#0x0000
   1363 21 00 30           4904 	ld	hl, #0x3000
   1366 71                 4905 	ld	(hl), c
   1367 11 00 20           4906 	ld	de, #0x2000
   136A 21rF7r02           4907 	ld	hl, #_current_world
   136D 7E                 4908 	ld	a, (hl)
   136E 12                 4909 	ld	(de), a
                           4910 ;./src/./physics.c:99: if(COL_DEATH_CHECK(0)){
   136F 21rF6r02           4911 	ld	hl, #_current_level
   1372 4E                 4912 	ld	c, (hl)
   1373 06 00              4913 	ld	b, #0x00
   1375 69                 4914 	ld	l, c
   1376 60                 4915 	ld	h, b
   1377 29                 4916 	add	hl, hl
   1378 29                 4917 	add	hl, hl
   1379 09                 4918 	add	hl, bc
   137A 29                 4919 	add	hl, hl
   137B 09                 4920 	add	hl, bc
   137C 29                 4921 	add	hl, hl
   137D 29                 4922 	add	hl, hl
   137E 09                 4923 	add	hl, bc
   137F 29                 4924 	add	hl, hl
   1380 29                 4925 	add	hl, hl
   1381 29                 4926 	add	hl, hl
   1382 4D                 4927 	ld	c, l
   1383 44                 4928 	ld	b, h
   1384 21r00r00           4929 	ld	hl, #_maps
   1387 09                 4930 	add	hl, bc
   1388 4D                 4931 	ld	c, l
   1389 44                 4932 	ld	b, h
   138A F8 02              4933 	ldhl	sp,	#2
   138C 2A                 4934 	ld	a, (hl+)
   138D 66                 4935 	ld	h, (hl)
   138E 6F                 4936 	ld	l, a
   138F 09                 4937 	add	hl, bc
   1390 4D                 4938 	ld	c, l
   1391 44                 4939 	ld	b, h
   1392 0A                 4940 	ld	a, (bc)
   1393 FE 05              4941 	cp	a, #0x05
   1395 28 0C              4942 	jr	Z,00101$
   1397 FE 07              4943 	cp	a, #0x07
   1399 28 08              4944 	jr	Z,00101$
   139B FE 06              4945 	cp	a, #0x06
   139D 28 04              4946 	jr	Z,00101$
   139F D6 08              4947 	sub	a, #0x08
   13A1 20 24              4948 	jr	NZ,00102$
   13A3                    4949 00101$:
                           4950 ;./src/./physics.c:100: SWITCH_ROM_MBC5(0);
   13A3 21 00 30           4951 	ld	hl, #0x3000
   13A6 36 00              4952 	ld	(hl), #0x00
   13A8 26 20              4953 	ld	h, #0x20
   13AA 36 00              4954 	ld	(hl), #0x00
                           4955 ;./src/./physics.c:101: update_position(&(player->sprite));
   13AC E1                 4956 	pop	hl
   13AD E5                 4957 	push	hl
   13AE E5                 4958 	push	hl
   13AF CDr97r00           4959 	call	_update_position
   13B2 E8 02              4960 	add	sp, #2
                           4961 ;./src/./physics.c:104: JOYPAD_WAIT_ANY;
   13B4 3E FF              4962 	ld	a, #0xff
   13B6 F5                 4963 	push	af
   13B7 33                 4964 	inc	sp
   13B8 CDr00r00           4965 	call	_joypad_wait
   13BB 33                 4966 	inc	sp
                           4967 ;./src/./physics.c:105: set_map(player);
   13BC F8 06              4968 	ldhl	sp,	#6
   13BE 2A                 4969 	ld	a, (hl+)
   13BF 66                 4970 	ld	h, (hl)
   13C0 6F                 4971 	ld	l, a
   13C1 E5                 4972 	push	hl
   13C2 CDrE5r0C           4973 	call	_set_map
   13C5 E8 02              4974 	add	sp, #2
   13C7                    4975 00102$:
                           4976 ;./src/./physics.c:107: SWITCH_ROM_MBC5(0);
   13C7 21 00 30           4977 	ld	hl, #0x3000
   13CA 36 00              4978 	ld	(hl), #0x00
   13CC 26 20              4979 	ld	h, #0x20
   13CE 36 00              4980 	ld	(hl), #0x00
                           4981 ;./src/./physics.c:108: }
   13D0 E8 04              4982 	add	sp, #4
   13D2 C9                 4983 	ret
                           4984 ;./src/./physics.c:110: void teleporter_check(MPlayer* player){
                           4985 ;	---------------------------------
                           4986 ; Function teleporter_check
                           4987 ; ---------------------------------
   13D3                    4988 _teleporter_check::
   13D3 E8 F6              4989 	add	sp, #-10
                           4990 ;./src/./physics.c:112: if(teleporter_active == true){
   13D5 21rF5r02           4991 	ld	hl, #_teleporter_active
   13D8 CB 46              4992 	bit	0, (hl)
   13DA CAr1Er15           4993 	jp	Z, 00114$
                           4994 ;./src/./physics.c:113: teleporter_active = false;
   13DD 36 00              4995 	ld	(hl), #0x00
                           4996 ;./src/./physics.c:114: UINT16 pos = get_world_to_map((player->sprite.position.x), player->sprite.position.y);
   13DF F8 0C              4997 	ldhl	sp,	#12
   13E1 2A                 4998 	ld	a, (hl+)
   13E2 5E                 4999 	ld	e, (hl)
   13E3 F8 00              5000 	ldhl	sp,	#0
   13E5 22                 5001 	ld	(hl+), a
   13E6 73                 5002 	ld	(hl), e
   13E7 D1                 5003 	pop	de
   13E8 D5                 5004 	push	de
   13E9 21 01 00           5005 	ld	hl, #0x0001
   13EC 19                 5006 	add	hl, de
   13ED 7D                 5007 	ld	a, l
   13EE 54                 5008 	ld	d, h
   13EF F8 02              5009 	ldhl	sp,	#2
   13F1 22                 5010 	ld	(hl+), a
   13F2 72                 5011 	ld	(hl), d
   13F3 2B                 5012 	dec	hl
   13F4 5E                 5013 	ld	e, (hl)
   13F5 23                 5014 	inc	hl
   13F6 56                 5015 	ld	d, (hl)
   13F7 1A                 5016 	ld	a,(de)
   13F8 4F                 5017 	ld	c, a
   13F9 06 00              5018 	ld	b, #0x00
   13FB D1                 5019 	pop	de
   13FC D5                 5020 	push	de
   13FD 1A                 5021 	ld	a,(de)
   13FE 5F                 5022 	ld	e, a
   13FF 16 00              5023 	ld	d, #0x00
   1401 C5                 5024 	push	bc
   1402 D5                 5025 	push	de
   1403 CDr88r04           5026 	call	_get_world_to_map
   1406 E8 04              5027 	add	sp, #4
   1408 F8 04              5028 	ldhl	sp,	#4
   140A 73                 5029 	ld	(hl), e
   140B 23                 5030 	inc	hl
   140C 72                 5031 	ld	(hl), d
                           5032 ;./src/./physics.c:116: SWITCH_ROM_MBC5(current_world);
   140D 21rF7r02           5033 	ld	hl, #_current_world
   1410 46                 5034 	ld	b, (hl)
   1411 01 00 00           5035 	ld	bc,#0x0000
   1414 21 00 30           5036 	ld	hl, #0x3000
   1417 71                 5037 	ld	(hl), c
   1418 11 00 20           5038 	ld	de, #0x2000
   141B 21rF7r02           5039 	ld	hl, #_current_world
   141E 7E                 5040 	ld	a, (hl)
   141F 12                 5041 	ld	(de), a
                           5042 ;./src/./physics.c:117: if(GLOBAL_MAP[pos] == TELEPORTER_TILE  ||
   1420 21rF6r02           5043 	ld	hl, #_current_level
   1423 4E                 5044 	ld	c, (hl)
   1424 06 00              5045 	ld	b, #0x00
   1426 69                 5046 	ld	l, c
   1427 60                 5047 	ld	h, b
   1428 29                 5048 	add	hl, hl
   1429 29                 5049 	add	hl, hl
   142A 09                 5050 	add	hl, bc
   142B 29                 5051 	add	hl, hl
   142C 09                 5052 	add	hl, bc
   142D 29                 5053 	add	hl, hl
   142E 29                 5054 	add	hl, hl
   142F 09                 5055 	add	hl, bc
   1430 29                 5056 	add	hl, hl
   1431 29                 5057 	add	hl, hl
   1432 29                 5058 	add	hl, hl
   1433 4D                 5059 	ld	c, l
   1434 44                 5060 	ld	b, h
   1435 21r00r00           5061 	ld	hl, #_maps
   1438 09                 5062 	add	hl, bc
   1439 4D                 5063 	ld	c, l
   143A 44                 5064 	ld	b, h
   143B F8 04              5065 	ldhl	sp,	#4
   143D 2A                 5066 	ld	a, (hl+)
   143E 66                 5067 	ld	h, (hl)
   143F 6F                 5068 	ld	l, a
   1440 09                 5069 	add	hl, bc
   1441 4D                 5070 	ld	c, l
   1442 44                 5071 	ld	b, h
   1443 0A                 5072 	ld	a, (bc)
   1444 FE 09              5073 	cp	a, #0x09
   1446 28 09              5074 	jr	Z,00122$
                           5075 ;./src/./physics.c:118: GLOBAL_MAP[pos] == TELEPORTER2_TILE ||
   1448 FE 10              5076 	cp	a, #0x10
   144A 28 05              5077 	jr	Z,00122$
                           5078 ;./src/./physics.c:119: GLOBAL_MAP[pos] == TELEPORTER3_TILE){
   144C D6 11              5079 	sub	a, #0x11
   144E C2r1Er15           5080 	jp	NZ,00114$
                           5081 ;./src/./physics.c:121: for(int i = 0; i < TOTAL_TILES; ++i){
   1451                    5082 00122$:
   1451 AF                 5083 	xor	a, a
   1452 F8 08              5084 	ldhl	sp,	#8
   1454 22                 5085 	ld	(hl+), a
   1455 77                 5086 	ld	(hl), a
   1456                    5087 00112$:
   1456 F8 08              5088 	ldhl	sp,	#8
   1458 7E                 5089 	ld	a, (hl)
   1459 D6 68              5090 	sub	a, #0x68
   145B 23                 5091 	inc	hl
   145C 7E                 5092 	ld	a, (hl)
   145D DE 01              5093 	sbc	a, #0x01
   145F 56                 5094 	ld	d, (hl)
   1460 3E 01              5095 	ld	a, #0x01
   1462 5F                 5096 	ld	e, a
   1463 CB 7B              5097 	bit	7, e
   1465 28 07              5098 	jr	Z,00156$
   1467 CB 7A              5099 	bit	7, d
   1469 20 08              5100 	jr	NZ,00157$
   146B BF                 5101 	cp	a, a
   146C 18 05              5102 	jr	00157$
   146E                    5103 00156$:
   146E CB 7A              5104 	bit	7, d
   1470 28 01              5105 	jr	Z,00157$
   1472 37                 5106 	scf
   1473                    5107 00157$:
   1473 D2r1Er15           5108 	jp	NC, 00114$
                           5109 ;./src/./physics.c:122: if(i != pos && GLOBAL_MAP[i] == GLOBAL_MAP[pos]){
   1476 F8 08              5110 	ldhl	sp,#(9 - 1)
   1478 4E                 5111 	ld	c, (hl)
   1479 23                 5112 	inc	hl
   147A 46                 5113 	ld	b, (hl)
   147B F8 04              5114 	ldhl	sp,	#4
   147D 7E                 5115 	ld	a, (hl)
   147E 91                 5116 	sub	a, c
   147F 20 06              5117 	jr	NZ,00158$
   1481 23                 5118 	inc	hl
   1482 7E                 5119 	ld	a, (hl)
   1483 90                 5120 	sub	a, b
   1484 CAr13r15           5121 	jp	Z,00113$
   1487                    5122 00158$:
   1487 21rF6r02           5123 	ld	hl, #_current_level
   148A 4E                 5124 	ld	c, (hl)
   148B 06 00              5125 	ld	b, #0x00
   148D 69                 5126 	ld	l, c
   148E 60                 5127 	ld	h, b
   148F 29                 5128 	add	hl, hl
   1490 29                 5129 	add	hl, hl
   1491 09                 5130 	add	hl, bc
   1492 29                 5131 	add	hl, hl
   1493 09                 5132 	add	hl, bc
   1494 29                 5133 	add	hl, hl
   1495 29                 5134 	add	hl, hl
   1496 09                 5135 	add	hl, bc
   1497 29                 5136 	add	hl, hl
   1498 29                 5137 	add	hl, hl
   1499 29                 5138 	add	hl, hl
   149A 4D                 5139 	ld	c, l
   149B 44                 5140 	ld	b, h
   149C 21r00r00           5141 	ld	hl, #_maps
   149F 09                 5142 	add	hl, bc
   14A0 4D                 5143 	ld	c, l
   14A1 44                 5144 	ld	b, h
   14A2 F8 08              5145 	ldhl	sp,	#8
   14A4 2A                 5146 	ld	a, (hl+)
   14A5 66                 5147 	ld	h, (hl)
   14A6 6F                 5148 	ld	l, a
   14A7 09                 5149 	add	hl, bc
   14A8 7D                 5150 	ld	a, l
   14A9 54                 5151 	ld	d, h
   14AA F8 06              5152 	ldhl	sp,	#6
   14AC 22                 5153 	ld	(hl+), a
   14AD 72                 5154 	ld	(hl), d
   14AE F8 04              5155 	ldhl	sp,	#4
   14B0 2A                 5156 	ld	a, (hl+)
   14B1 66                 5157 	ld	h, (hl)
   14B2 6F                 5158 	ld	l, a
   14B3 09                 5159 	add	hl, bc
   14B4 4D                 5160 	ld	c, l
   14B5 44                 5161 	ld	b, h
   14B6 F8 06              5162 	ldhl	sp,#(7 - 1)
   14B8 5E                 5163 	ld	e, (hl)
   14B9 23                 5164 	inc	hl
   14BA 56                 5165 	ld	d, (hl)
   14BB 1A                 5166 	ld	a,(de)
   14BC F5                 5167 	push	af
   14BD 0A                 5168 	ld	a, (bc)
   14BE 4F                 5169 	ld	c, a
   14BF F1                 5170 	pop	af
   14C0 91                 5171 	sub	a, c
   14C1 C2r13r15           5172 	jp	NZ,00113$
                           5173 ;./src/./physics.c:123: SWITCH_ROM_MBC5(0);
   14C4 21 00 30           5174 	ld	hl, #0x3000
   14C7 36 00              5175 	ld	(hl), #0x00
   14C9 26 20              5176 	ld	h, #0x20
   14CB 36 00              5177 	ld	(hl), #0x00
                           5178 ;./src/./physics.c:124: player->sprite.position.x = (i % 20) * 8 + 8;
   14CD 21 14 00           5179 	ld	hl, #0x0014
   14D0 E5                 5180 	push	hl
   14D1 F8 0A              5181 	ldhl	sp,	#10
   14D3 2A                 5182 	ld	a, (hl+)
   14D4 66                 5183 	ld	h, (hl)
   14D5 6F                 5184 	ld	l, a
   14D6 E5                 5185 	push	hl
   14D7 CDr00r00           5186 	call	__modsint
   14DA E8 04              5187 	add	sp, #4
   14DC 7B                 5188 	ld	a, e
   14DD 87                 5189 	add	a, a
   14DE 87                 5190 	add	a, a
   14DF 87                 5191 	add	a, a
   14E0 C6 08              5192 	add	a, #0x08
   14E2 4F                 5193 	ld	c, a
   14E3 E1                 5194 	pop	hl
   14E4 E5                 5195 	push	hl
   14E5 71                 5196 	ld	(hl), c
                           5197 ;./src/./physics.c:125: player->sprite.position.y = (i / 20) * 8 + 16;
   14E6 21 14 00           5198 	ld	hl, #0x0014
   14E9 E5                 5199 	push	hl
   14EA F8 0A              5200 	ldhl	sp,	#10
   14EC 2A                 5201 	ld	a, (hl+)
   14ED 66                 5202 	ld	h, (hl)
   14EE 6F                 5203 	ld	l, a
   14EF E5                 5204 	push	hl
   14F0 CDr00r00           5205 	call	__divsint
   14F3 E8 04              5206 	add	sp, #4
   14F5 7B                 5207 	ld	a, e
   14F6 87                 5208 	add	a, a
   14F7 87                 5209 	add	a, a
   14F8 87                 5210 	add	a, a
   14F9 C6 10              5211 	add	a, #0x10
   14FB 4F                 5212 	ld	c, a
   14FC F8 02              5213 	ldhl	sp,	#2
   14FE 2A                 5214 	ld	a, (hl+)
   14FF 66                 5215 	ld	h, (hl)
   1500 6F                 5216 	ld	l, a
   1501 71                 5217 	ld	(hl), c
                           5218 ;./src/./physics.c:126: delay(100);
   1502 21 64 00           5219 	ld	hl, #0x0064
   1505 E5                 5220 	push	hl
   1506 CDr00r00           5221 	call	_delay
   1509 E8 02              5222 	add	sp, #2
                           5223 ;./src/./physics.c:127: update_position(&(player->sprite));
   150B E1                 5224 	pop	hl
   150C E5                 5225 	push	hl
   150D E5                 5226 	push	hl
   150E CDr97r00           5227 	call	_update_position
   1511 E8 02              5228 	add	sp, #2
   1513                    5229 00113$:
                           5230 ;./src/./physics.c:121: for(int i = 0; i < TOTAL_TILES; ++i){
   1513 F8 08              5231 	ldhl	sp,	#8
   1515 34                 5232 	inc	(hl)
   1516 C2r56r14           5233 	jp	NZ,00112$
   1519 23                 5234 	inc	hl
   151A 34                 5235 	inc	(hl)
   151B C3r56r14           5236 	jp	00112$
   151E                    5237 00114$:
                           5238 ;./src/./physics.c:133: }
   151E E8 0A              5239 	add	sp, #10
   1520 C9                 5240 	ret
                           5241 ;./src/main.c:29: void performantdelay(UINT8 numloops){
                           5242 ;	---------------------------------
                           5243 ; Function performantdelay
                           5244 ; ---------------------------------
   1521                    5245 _performantdelay::
                           5246 ;./src/main.c:31: for(i = 0; i < numloops; i++){
   1521 0E 00              5247 	ld	c, #0x00
   1523                    5248 00103$:
   1523 79                 5249 	ld	a, c
   1524 F8 02              5250 	ldhl	sp,	#2
   1526 96                 5251 	sub	a, (hl)
   1527 D0                 5252 	ret	NC
                           5253 ;./src/main.c:32: wait_vbl_done();
   1528 C5                 5254 	push	bc
   1529 CDr00r00           5255 	call	_wait_vbl_done
   152C C1                 5256 	pop	bc
                           5257 ;./src/main.c:31: for(i = 0; i < numloops; i++){
   152D 0C                 5258 	inc	c
   152E 18 F3              5259 	jr	00103$
                           5260 ;./src/main.c:34: }
   1530 C9                 5261 	ret
   1531                    5262 _splash_data:
   1531 00                 5263 	.db #0x00	; 0
   1532 00                 5264 	.db #0x00	; 0
   1533 00                 5265 	.db #0x00	; 0
   1534 00                 5266 	.db #0x00	; 0
   1535 00                 5267 	.db #0x00	; 0
   1536 00                 5268 	.db #0x00	; 0
   1537 00                 5269 	.db #0x00	; 0
   1538 00                 5270 	.db #0x00	; 0
   1539 00                 5271 	.db #0x00	; 0
   153A 00                 5272 	.db #0x00	; 0
   153B 00                 5273 	.db #0x00	; 0
   153C 00                 5274 	.db #0x00	; 0
   153D 00                 5275 	.db #0x00	; 0
   153E 00                 5276 	.db #0x00	; 0
   153F 00                 5277 	.db #0x00	; 0
   1540 00                 5278 	.db #0x00	; 0
   1541 00                 5279 	.db #0x00	; 0
   1542 00                 5280 	.db #0x00	; 0
   1543 00                 5281 	.db #0x00	; 0
   1544 00                 5282 	.db #0x00	; 0
   1545 00                 5283 	.db #0x00	; 0
   1546 00                 5284 	.db #0x00	; 0
   1547 00                 5285 	.db #0x00	; 0
   1548 00                 5286 	.db #0x00	; 0
   1549 00                 5287 	.db #0x00	; 0
   154A 00                 5288 	.db #0x00	; 0
   154B 00                 5289 	.db #0x00	; 0
   154C 00                 5290 	.db #0x00	; 0
   154D 3F                 5291 	.db #0x3f	; 63
   154E 3F                 5292 	.db #0x3f	; 63
   154F 3F                 5293 	.db #0x3f	; 63
   1550 3F                 5294 	.db #0x3f	; 63
   1551 00                 5295 	.db #0x00	; 0
   1552 00                 5296 	.db #0x00	; 0
   1553 00                 5297 	.db #0x00	; 0
   1554 00                 5298 	.db #0x00	; 0
   1555 00                 5299 	.db #0x00	; 0
   1556 00                 5300 	.db #0x00	; 0
   1557 00                 5301 	.db #0x00	; 0
   1558 00                 5302 	.db #0x00	; 0
   1559 00                 5303 	.db #0x00	; 0
   155A 00                 5304 	.db #0x00	; 0
   155B 00                 5305 	.db #0x00	; 0
   155C 00                 5306 	.db #0x00	; 0
   155D FF                 5307 	.db #0xff	; 255
   155E FF                 5308 	.db #0xff	; 255
   155F FF                 5309 	.db #0xff	; 255
   1560 FF                 5310 	.db #0xff	; 255
   1561 00                 5311 	.db #0x00	; 0
   1562 00                 5312 	.db #0x00	; 0
   1563 01                 5313 	.db #0x01	; 1
   1564 01                 5314 	.db #0x01	; 1
   1565 01                 5315 	.db #0x01	; 1
   1566 01                 5316 	.db #0x01	; 1
   1567 01                 5317 	.db #0x01	; 1
   1568 01                 5318 	.db #0x01	; 1
   1569 01                 5319 	.db #0x01	; 1
   156A 01                 5320 	.db #0x01	; 1
   156B 01                 5321 	.db #0x01	; 1
   156C 01                 5322 	.db #0x01	; 1
   156D 01                 5323 	.db #0x01	; 1
   156E 01                 5324 	.db #0x01	; 1
   156F 01                 5325 	.db #0x01	; 1
   1570 01                 5326 	.db #0x01	; 1
   1571 3F                 5327 	.db #0x3f	; 63
   1572 3F                 5328 	.db #0x3f	; 63
   1573 F8                 5329 	.db #0xf8	; 248
   1574 F8                 5330 	.db #0xf8	; 248
   1575 F8                 5331 	.db #0xf8	; 248
   1576 F8                 5332 	.db #0xf8	; 248
   1577 F8                 5333 	.db #0xf8	; 248
   1578 F8                 5334 	.db #0xf8	; 248
   1579 F8                 5335 	.db #0xf8	; 248
   157A F8                 5336 	.db #0xf8	; 248
   157B F8                 5337 	.db #0xf8	; 248
   157C F8                 5338 	.db #0xf8	; 248
   157D F8                 5339 	.db #0xf8	; 248
   157E F8                 5340 	.db #0xf8	; 248
   157F F8                 5341 	.db #0xf8	; 248
   1580 F8                 5342 	.db #0xf8	; 248
   1581 FF                 5343 	.db #0xff	; 255
   1582 FF                 5344 	.db #0xff	; 255
   1583 07                 5345 	.db #0x07	; 7
   1584 07                 5346 	.db #0x07	; 7
   1585 07                 5347 	.db #0x07	; 7
   1586 07                 5348 	.db #0x07	; 7
   1587 07                 5349 	.db #0x07	; 7
   1588 07                 5350 	.db #0x07	; 7
   1589 07                 5351 	.db #0x07	; 7
   158A 07                 5352 	.db #0x07	; 7
   158B 00                 5353 	.db #0x00	; 0
   158C 00                 5354 	.db #0x00	; 0
   158D 00                 5355 	.db #0x00	; 0
   158E 00                 5356 	.db #0x00	; 0
   158F 00                 5357 	.db #0x00	; 0
   1590 00                 5358 	.db #0x00	; 0
   1591 00                 5359 	.db #0x00	; 0
   1592 00                 5360 	.db #0x00	; 0
   1593 F0                 5361 	.db #0xf0	; 240
   1594 F0                 5362 	.db #0xf0	; 240
   1595 F0                 5363 	.db #0xf0	; 240
   1596 F0                 5364 	.db #0xf0	; 240
   1597 F0                 5365 	.db #0xf0	; 240
   1598 F0                 5366 	.db #0xf0	; 240
   1599 F0                 5367 	.db #0xf0	; 240
   159A F0                 5368 	.db #0xf0	; 240
   159B 00                 5369 	.db #0x00	; 0
   159C 00                 5370 	.db #0x00	; 0
   159D 00                 5371 	.db #0x00	; 0
   159E 00                 5372 	.db #0x00	; 0
   159F 00                 5373 	.db #0x00	; 0
   15A0 00                 5374 	.db #0x00	; 0
   15A1 00                 5375 	.db #0x00	; 0
   15A2 00                 5376 	.db #0x00	; 0
   15A3 00                 5377 	.db #0x00	; 0
   15A4 00                 5378 	.db #0x00	; 0
   15A5 00                 5379 	.db #0x00	; 0
   15A6 00                 5380 	.db #0x00	; 0
   15A7 00                 5381 	.db #0x00	; 0
   15A8 00                 5382 	.db #0x00	; 0
   15A9 3F                 5383 	.db #0x3f	; 63
   15AA 3F                 5384 	.db #0x3f	; 63
   15AB 3F                 5385 	.db #0x3f	; 63
   15AC 3F                 5386 	.db #0x3f	; 63
   15AD C1                 5387 	.db #0xc1	; 193
   15AE C1                 5388 	.db #0xc1	; 193
   15AF C1                 5389 	.db #0xc1	; 193
   15B0 C1                 5390 	.db #0xc1	; 193
   15B1 00                 5391 	.db #0x00	; 0
   15B2 00                 5392 	.db #0x00	; 0
   15B3 00                 5393 	.db #0x00	; 0
   15B4 00                 5394 	.db #0x00	; 0
   15B5 00                 5395 	.db #0x00	; 0
   15B6 00                 5396 	.db #0x00	; 0
   15B7 00                 5397 	.db #0x00	; 0
   15B8 00                 5398 	.db #0x00	; 0
   15B9 F0                 5399 	.db #0xf0	; 240
   15BA F0                 5400 	.db #0xf0	; 240
   15BB F0                 5401 	.db #0xf0	; 240
   15BC F0                 5402 	.db #0xf0	; 240
   15BD FE                 5403 	.db #0xfe	; 254
   15BE FE                 5404 	.db #0xfe	; 254
   15BF FE                 5405 	.db #0xfe	; 254
   15C0 FE                 5406 	.db #0xfe	; 254
   15C1 00                 5407 	.db #0x00	; 0
   15C2 00                 5408 	.db #0x00	; 0
   15C3 00                 5409 	.db #0x00	; 0
   15C4 00                 5410 	.db #0x00	; 0
   15C5 00                 5411 	.db #0x00	; 0
   15C6 00                 5412 	.db #0x00	; 0
   15C7 00                 5413 	.db #0x00	; 0
   15C8 00                 5414 	.db #0x00	; 0
   15C9 30                 5415 	.db #0x30	; 48	'0'
   15CA 30                 5416 	.db #0x30	; 48	'0'
   15CB 30                 5417 	.db #0x30	; 48	'0'
   15CC 30                 5418 	.db #0x30	; 48	'0'
   15CD 30                 5419 	.db #0x30	; 48	'0'
   15CE 30                 5420 	.db #0x30	; 48	'0'
   15CF 3E                 5421 	.db #0x3e	; 62
   15D0 3E                 5422 	.db #0x3e	; 62
   15D1 00                 5423 	.db #0x00	; 0
   15D2 00                 5424 	.db #0x00	; 0
   15D3 00                 5425 	.db #0x00	; 0
   15D4 00                 5426 	.db #0x00	; 0
   15D5 00                 5427 	.db #0x00	; 0
   15D6 00                 5428 	.db #0x00	; 0
   15D7 00                 5429 	.db #0x00	; 0
   15D8 00                 5430 	.db #0x00	; 0
   15D9 1F                 5431 	.db #0x1f	; 31
   15DA 1F                 5432 	.db #0x1f	; 31
   15DB 1F                 5433 	.db #0x1f	; 31
   15DC 1F                 5434 	.db #0x1f	; 31
   15DD 1F                 5435 	.db #0x1f	; 31
   15DE 1F                 5436 	.db #0x1f	; 31
   15DF 7F                 5437 	.db #0x7f	; 127
   15E0 7F                 5438 	.db #0x7f	; 127
   15E1 00                 5439 	.db #0x00	; 0
   15E2 00                 5440 	.db #0x00	; 0
   15E3 00                 5441 	.db #0x00	; 0
   15E4 00                 5442 	.db #0x00	; 0
   15E5 00                 5443 	.db #0x00	; 0
   15E6 00                 5444 	.db #0x00	; 0
   15E7 00                 5445 	.db #0x00	; 0
   15E8 00                 5446 	.db #0x00	; 0
   15E9 1F                 5447 	.db #0x1f	; 31
   15EA 1F                 5448 	.db #0x1f	; 31
   15EB 1F                 5449 	.db #0x1f	; 31
   15EC 1F                 5450 	.db #0x1f	; 31
   15ED 1F                 5451 	.db #0x1f	; 31
   15EE 1F                 5452 	.db #0x1f	; 31
   15EF 1F                 5453 	.db #0x1f	; 31
   15F0 1F                 5454 	.db #0x1f	; 31
   15F1 00                 5455 	.db #0x00	; 0
   15F2 00                 5456 	.db #0x00	; 0
   15F3 00                 5457 	.db #0x00	; 0
   15F4 00                 5458 	.db #0x00	; 0
   15F5 00                 5459 	.db #0x00	; 0
   15F6 00                 5460 	.db #0x00	; 0
   15F7 00                 5461 	.db #0x00	; 0
   15F8 00                 5462 	.db #0x00	; 0
   15F9 FF                 5463 	.db #0xff	; 255
   15FA FF                 5464 	.db #0xff	; 255
   15FB FF                 5465 	.db #0xff	; 255
   15FC FF                 5466 	.db #0xff	; 255
   15FD 00                 5467 	.db #0x00	; 0
   15FE 00                 5468 	.db #0x00	; 0
   15FF 00                 5469 	.db #0x00	; 0
   1600 00                 5470 	.db #0x00	; 0
   1601 00                 5471 	.db #0x00	; 0
   1602 00                 5472 	.db #0x00	; 0
   1603 00                 5473 	.db #0x00	; 0
   1604 00                 5474 	.db #0x00	; 0
   1605 00                 5475 	.db #0x00	; 0
   1606 00                 5476 	.db #0x00	; 0
   1607 00                 5477 	.db #0x00	; 0
   1608 00                 5478 	.db #0x00	; 0
   1609 80                 5479 	.db #0x80	; 128
   160A 80                 5480 	.db #0x80	; 128
   160B 80                 5481 	.db #0x80	; 128
   160C 80                 5482 	.db #0x80	; 128
   160D 00                 5483 	.db #0x00	; 0
   160E 00                 5484 	.db #0x00	; 0
   160F 00                 5485 	.db #0x00	; 0
   1610 00                 5486 	.db #0x00	; 0
   1611 01                 5487 	.db #0x01	; 1
   1612 01                 5488 	.db #0x01	; 1
   1613 01                 5489 	.db #0x01	; 1
   1614 01                 5490 	.db #0x01	; 1
   1615 01                 5491 	.db #0x01	; 1
   1616 01                 5492 	.db #0x01	; 1
   1617 01                 5493 	.db #0x01	; 1
   1618 01                 5494 	.db #0x01	; 1
   1619 01                 5495 	.db #0x01	; 1
   161A 01                 5496 	.db #0x01	; 1
   161B 01                 5497 	.db #0x01	; 1
   161C 01                 5498 	.db #0x01	; 1
   161D 01                 5499 	.db #0x01	; 1
   161E 01                 5500 	.db #0x01	; 1
   161F 00                 5501 	.db #0x00	; 0
   1620 00                 5502 	.db #0x00	; 0
   1621 F8                 5503 	.db #0xf8	; 248
   1622 F8                 5504 	.db #0xf8	; 248
   1623 F8                 5505 	.db #0xf8	; 248
   1624 F8                 5506 	.db #0xf8	; 248
   1625 F8                 5507 	.db #0xf8	; 248
   1626 F8                 5508 	.db #0xf8	; 248
   1627 F8                 5509 	.db #0xf8	; 248
   1628 F8                 5510 	.db #0xf8	; 248
   1629 F8                 5511 	.db #0xf8	; 248
   162A F8                 5512 	.db #0xf8	; 248
   162B F8                 5513 	.db #0xf8	; 248
   162C F8                 5514 	.db #0xf8	; 248
   162D F8                 5515 	.db #0xf8	; 248
   162E F8                 5516 	.db #0xf8	; 248
   162F 3F                 5517 	.db #0x3f	; 63
   1630 3F                 5518 	.db #0x3f	; 63
   1631 7F                 5519 	.db #0x7f	; 127
   1632 7F                 5520 	.db #0x7f	; 127
   1633 7F                 5521 	.db #0x7f	; 127
   1634 7F                 5522 	.db #0x7f	; 127
   1635 7F                 5523 	.db #0x7f	; 127
   1636 7F                 5524 	.db #0x7f	; 127
   1637 07                 5525 	.db #0x07	; 7
   1638 07                 5526 	.db #0x07	; 7
   1639 07                 5527 	.db #0x07	; 7
   163A 07                 5528 	.db #0x07	; 7
   163B 07                 5529 	.db #0x07	; 7
   163C 07                 5530 	.db #0x07	; 7
   163D 07                 5531 	.db #0x07	; 7
   163E 07                 5532 	.db #0x07	; 7
   163F FF                 5533 	.db #0xff	; 255
   1640 FF                 5534 	.db #0xff	; 255
   1641 F0                 5535 	.db #0xf0	; 240
   1642 F0                 5536 	.db #0xf0	; 240
   1643 F0                 5537 	.db #0xf0	; 240
   1644 F0                 5538 	.db #0xf0	; 240
   1645 F0                 5539 	.db #0xf0	; 240
   1646 F0                 5540 	.db #0xf0	; 240
   1647 F0                 5541 	.db #0xf0	; 240
   1648 F0                 5542 	.db #0xf0	; 240
   1649 F0                 5543 	.db #0xf0	; 240
   164A F0                 5544 	.db #0xf0	; 240
   164B F0                 5545 	.db #0xf0	; 240
   164C F0                 5546 	.db #0xf0	; 240
   164D F0                 5547 	.db #0xf0	; 240
   164E F0                 5548 	.db #0xf0	; 240
   164F F0                 5549 	.db #0xf0	; 240
   1650 F0                 5550 	.db #0xf0	; 240
   1651 C1                 5551 	.db #0xc1	; 193
   1652 C1                 5552 	.db #0xc1	; 193
   1653 C1                 5553 	.db #0xc1	; 193
   1654 C1                 5554 	.db #0xc1	; 193
   1655 C1                 5555 	.db #0xc1	; 193
   1656 C1                 5556 	.db #0xc1	; 193
   1657 FF                 5557 	.db #0xff	; 255
   1658 FF                 5558 	.db #0xff	; 255
   1659 FF                 5559 	.db #0xff	; 255
   165A FF                 5560 	.db #0xff	; 255
   165B C1                 5561 	.db #0xc1	; 193
   165C C1                 5562 	.db #0xc1	; 193
   165D C1                 5563 	.db #0xc1	; 193
   165E C1                 5564 	.db #0xc1	; 193
   165F C1                 5565 	.db #0xc1	; 193
   1660 C1                 5566 	.db #0xc1	; 193
   1661 FE                 5567 	.db #0xfe	; 254
   1662 FE                 5568 	.db #0xfe	; 254
   1663 FE                 5569 	.db #0xfe	; 254
   1664 FE                 5570 	.db #0xfe	; 254
   1665 FE                 5571 	.db #0xfe	; 254
   1666 FE                 5572 	.db #0xfe	; 254
   1667 FE                 5573 	.db #0xfe	; 254
   1668 FE                 5574 	.db #0xfe	; 254
   1669 FE                 5575 	.db #0xfe	; 254
   166A FE                 5576 	.db #0xfe	; 254
   166B FE                 5577 	.db #0xfe	; 254
   166C FE                 5578 	.db #0xfe	; 254
   166D FE                 5579 	.db #0xfe	; 254
   166E FE                 5580 	.db #0xfe	; 254
   166F FE                 5581 	.db #0xfe	; 254
   1670 FE                 5582 	.db #0xfe	; 254
   1671 3E                 5583 	.db #0x3e	; 62
   1672 3E                 5584 	.db #0x3e	; 62
   1673 3F                 5585 	.db #0x3f	; 63
   1674 3F                 5586 	.db #0x3f	; 63
   1675 3F                 5587 	.db #0x3f	; 63
   1676 3F                 5588 	.db #0x3f	; 63
   1677 31                 5589 	.db #0x31	; 49	'1'
   1678 31                 5590 	.db #0x31	; 49	'1'
   1679 31                 5591 	.db #0x31	; 49	'1'
   167A 31                 5592 	.db #0x31	; 49	'1'
   167B 31                 5593 	.db #0x31	; 49	'1'
   167C 31                 5594 	.db #0x31	; 49	'1'
   167D 30                 5595 	.db #0x30	; 48	'0'
   167E 30                 5596 	.db #0x30	; 48	'0'
   167F 30                 5597 	.db #0x30	; 48	'0'
   1680 30                 5598 	.db #0x30	; 48	'0'
   1681 7F                 5599 	.db #0x7f	; 127
   1682 7F                 5600 	.db #0x7f	; 127
   1683 FF                 5601 	.db #0xff	; 255
   1684 FF                 5602 	.db #0xff	; 255
   1685 FF                 5603 	.db #0xff	; 255
   1686 FF                 5604 	.db #0xff	; 255
   1687 9F                 5605 	.db #0x9f	; 159
   1688 9F                 5606 	.db #0x9f	; 159
   1689 9F                 5607 	.db #0x9f	; 159
   168A 9F                 5608 	.db #0x9f	; 159
   168B 9F                 5609 	.db #0x9f	; 159
   168C 9F                 5610 	.db #0x9f	; 159
   168D 1F                 5611 	.db #0x1f	; 31
   168E 1F                 5612 	.db #0x1f	; 31
   168F 1F                 5613 	.db #0x1f	; 31
   1690 1F                 5614 	.db #0x1f	; 31
   1691 1F                 5615 	.db #0x1f	; 31
   1692 1F                 5616 	.db #0x1f	; 31
   1693 1F                 5617 	.db #0x1f	; 31
   1694 1F                 5618 	.db #0x1f	; 31
   1695 1F                 5619 	.db #0x1f	; 31
   1696 1F                 5620 	.db #0x1f	; 31
   1697 1F                 5621 	.db #0x1f	; 31
   1698 1F                 5622 	.db #0x1f	; 31
   1699 1F                 5623 	.db #0x1f	; 31
   169A 1F                 5624 	.db #0x1f	; 31
   169B 1F                 5625 	.db #0x1f	; 31
   169C 1F                 5626 	.db #0x1f	; 31
   169D 1F                 5627 	.db #0x1f	; 31
   169E 1F                 5628 	.db #0x1f	; 31
   169F 1F                 5629 	.db #0x1f	; 31
   16A0 1F                 5630 	.db #0x1f	; 31
   16A1 00                 5631 	.db #0x00	; 0
   16A2 00                 5632 	.db #0x00	; 0
   16A3 FE                 5633 	.db #0xfe	; 254
   16A4 FE                 5634 	.db #0xfe	; 254
   16A5 FE                 5635 	.db #0xfe	; 254
   16A6 FE                 5636 	.db #0xfe	; 254
   16A7 00                 5637 	.db #0x00	; 0
   16A8 00                 5638 	.db #0x00	; 0
   16A9 00                 5639 	.db #0x00	; 0
   16AA 00                 5640 	.db #0x00	; 0
   16AB 00                 5641 	.db #0x00	; 0
   16AC 00                 5642 	.db #0x00	; 0
   16AD 00                 5643 	.db #0x00	; 0
   16AE 00                 5644 	.db #0x00	; 0
   16AF 00                 5645 	.db #0x00	; 0
   16B0 00                 5646 	.db #0x00	; 0
   16B1 3F                 5647 	.db #0x3f	; 63
   16B2 3F                 5648 	.db #0x3f	; 63
   16B3 3F                 5649 	.db #0x3f	; 63
   16B4 3F                 5650 	.db #0x3f	; 63
   16B5 00                 5651 	.db #0x00	; 0
   16B6 00                 5652 	.db #0x00	; 0
   16B7 00                 5653 	.db #0x00	; 0
   16B8 00                 5654 	.db #0x00	; 0
   16B9 00                 5655 	.db #0x00	; 0
   16BA 00                 5656 	.db #0x00	; 0
   16BB 00                 5657 	.db #0x00	; 0
   16BC 00                 5658 	.db #0x00	; 0
   16BD 00                 5659 	.db #0x00	; 0
   16BE 00                 5660 	.db #0x00	; 0
   16BF 00                 5661 	.db #0x00	; 0
   16C0 00                 5662 	.db #0x00	; 0
   16C1 FF                 5663 	.db #0xff	; 255
   16C2 FF                 5664 	.db #0xff	; 255
   16C3 FF                 5665 	.db #0xff	; 255
   16C4 FF                 5666 	.db #0xff	; 255
   16C5 00                 5667 	.db #0x00	; 0
   16C6 00                 5668 	.db #0x00	; 0
   16C7 00                 5669 	.db #0x00	; 0
   16C8 00                 5670 	.db #0x00	; 0
   16C9 00                 5671 	.db #0x00	; 0
   16CA 00                 5672 	.db #0x00	; 0
   16CB 00                 5673 	.db #0x00	; 0
   16CC 00                 5674 	.db #0x00	; 0
   16CD 00                 5675 	.db #0x00	; 0
   16CE 00                 5676 	.db #0x00	; 0
   16CF 00                 5677 	.db #0x00	; 0
   16D0 00                 5678 	.db #0x00	; 0
   16D1 F0                 5679 	.db #0xf0	; 240
   16D2 F0                 5680 	.db #0xf0	; 240
   16D3 F0                 5681 	.db #0xf0	; 240
   16D4 F0                 5682 	.db #0xf0	; 240
   16D5 00                 5683 	.db #0x00	; 0
   16D6 00                 5684 	.db #0x00	; 0
   16D7 00                 5685 	.db #0x00	; 0
   16D8 00                 5686 	.db #0x00	; 0
   16D9 00                 5687 	.db #0x00	; 0
   16DA 00                 5688 	.db #0x00	; 0
   16DB 00                 5689 	.db #0x00	; 0
   16DC 00                 5690 	.db #0x00	; 0
   16DD 00                 5691 	.db #0x00	; 0
   16DE 00                 5692 	.db #0x00	; 0
   16DF 00                 5693 	.db #0x00	; 0
   16E0 00                 5694 	.db #0x00	; 0
   16E1 C1                 5695 	.db #0xc1	; 193
   16E2 C1                 5696 	.db #0xc1	; 193
   16E3 C1                 5697 	.db #0xc1	; 193
   16E4 C1                 5698 	.db #0xc1	; 193
   16E5 00                 5699 	.db #0x00	; 0
   16E6 00                 5700 	.db #0x00	; 0
   16E7 00                 5701 	.db #0x00	; 0
   16E8 00                 5702 	.db #0x00	; 0
   16E9 00                 5703 	.db #0x00	; 0
   16EA 00                 5704 	.db #0x00	; 0
   16EB 00                 5705 	.db #0x00	; 0
   16EC 00                 5706 	.db #0x00	; 0
   16ED 00                 5707 	.db #0x00	; 0
   16EE 00                 5708 	.db #0x00	; 0
   16EF 00                 5709 	.db #0x00	; 0
   16F0 00                 5710 	.db #0x00	; 0
   16F1 FE                 5711 	.db #0xfe	; 254
   16F2 FE                 5712 	.db #0xfe	; 254
   16F3 FE                 5713 	.db #0xfe	; 254
   16F4 FE                 5714 	.db #0xfe	; 254
   16F5 00                 5715 	.db #0x00	; 0
   16F6 00                 5716 	.db #0x00	; 0
   16F7 00                 5717 	.db #0x00	; 0
   16F8 00                 5718 	.db #0x00	; 0
   16F9 00                 5719 	.db #0x00	; 0
   16FA 00                 5720 	.db #0x00	; 0
   16FB 00                 5721 	.db #0x00	; 0
   16FC 00                 5722 	.db #0x00	; 0
   16FD 00                 5723 	.db #0x00	; 0
   16FE 00                 5724 	.db #0x00	; 0
   16FF 00                 5725 	.db #0x00	; 0
   1700 00                 5726 	.db #0x00	; 0
   1701 30                 5727 	.db #0x30	; 48	'0'
   1702 30                 5728 	.db #0x30	; 48	'0'
   1703 30                 5729 	.db #0x30	; 48	'0'
   1704 30                 5730 	.db #0x30	; 48	'0'
   1705 00                 5731 	.db #0x00	; 0
   1706 00                 5732 	.db #0x00	; 0
   1707 00                 5733 	.db #0x00	; 0
   1708 00                 5734 	.db #0x00	; 0
   1709 00                 5735 	.db #0x00	; 0
   170A 00                 5736 	.db #0x00	; 0
   170B 00                 5737 	.db #0x00	; 0
   170C 00                 5738 	.db #0x00	; 0
   170D 00                 5739 	.db #0x00	; 0
   170E 00                 5740 	.db #0x00	; 0
   170F 00                 5741 	.db #0x00	; 0
   1710 00                 5742 	.db #0x00	; 0
   1711 1F                 5743 	.db #0x1f	; 31
   1712 1F                 5744 	.db #0x1f	; 31
   1713 1F                 5745 	.db #0x1f	; 31
   1714 1F                 5746 	.db #0x1f	; 31
   1715 00                 5747 	.db #0x00	; 0
   1716 00                 5748 	.db #0x00	; 0
   1717 00                 5749 	.db #0x00	; 0
   1718 00                 5750 	.db #0x00	; 0
   1719 00                 5751 	.db #0x00	; 0
   171A 00                 5752 	.db #0x00	; 0
   171B 00                 5753 	.db #0x00	; 0
   171C 00                 5754 	.db #0x00	; 0
   171D 00                 5755 	.db #0x00	; 0
   171E 00                 5756 	.db #0x00	; 0
   171F 00                 5757 	.db #0x00	; 0
   1720 00                 5758 	.db #0x00	; 0
   1721 80                 5759 	.db #0x80	; 128
   1722 80                 5760 	.db #0x80	; 128
   1723 80                 5761 	.db #0x80	; 128
   1724 80                 5762 	.db #0x80	; 128
   1725 00                 5763 	.db #0x00	; 0
   1726 00                 5764 	.db #0x00	; 0
   1727 00                 5765 	.db #0x00	; 0
   1728 00                 5766 	.db #0x00	; 0
   1729 00                 5767 	.db #0x00	; 0
   172A 00                 5768 	.db #0x00	; 0
   172B 00                 5769 	.db #0x00	; 0
   172C 00                 5770 	.db #0x00	; 0
   172D 00                 5771 	.db #0x00	; 0
   172E 00                 5772 	.db #0x00	; 0
   172F 00                 5773 	.db #0x00	; 0
   1730 00                 5774 	.db #0x00	; 0
   1731 00                 5775 	.db #0x00	; 0
   1732 00                 5776 	.db #0x00	; 0
   1733 00                 5777 	.db #0x00	; 0
   1734 00                 5778 	.db #0x00	; 0
   1735 00                 5779 	.db #0x00	; 0
   1736 00                 5780 	.db #0x00	; 0
   1737 7F                 5781 	.db #0x7f	; 127
   1738 7F                 5782 	.db #0x7f	; 127
   1739 7F                 5783 	.db #0x7f	; 127
   173A 7F                 5784 	.db #0x7f	; 127
   173B 7F                 5785 	.db #0x7f	; 127
   173C 7F                 5786 	.db #0x7f	; 127
   173D 7F                 5787 	.db #0x7f	; 127
   173E 7F                 5788 	.db #0x7f	; 127
   173F 7F                 5789 	.db #0x7f	; 127
   1740 7F                 5790 	.db #0x7f	; 127
   1741 00                 5791 	.db #0x00	; 0
   1742 00                 5792 	.db #0x00	; 0
   1743 00                 5793 	.db #0x00	; 0
   1744 00                 5794 	.db #0x00	; 0
   1745 00                 5795 	.db #0x00	; 0
   1746 00                 5796 	.db #0x00	; 0
   1747 FF                 5797 	.db #0xff	; 255
   1748 FF                 5798 	.db #0xff	; 255
   1749 FF                 5799 	.db #0xff	; 255
   174A FF                 5800 	.db #0xff	; 255
   174B FF                 5801 	.db #0xff	; 255
   174C FF                 5802 	.db #0xff	; 255
   174D FF                 5803 	.db #0xff	; 255
   174E FF                 5804 	.db #0xff	; 255
   174F 80                 5805 	.db #0x80	; 128
   1750 C0                 5806 	.db #0xc0	; 192
   1751 00                 5807 	.db #0x00	; 0
   1752 00                 5808 	.db #0x00	; 0
   1753 00                 5809 	.db #0x00	; 0
   1754 00                 5810 	.db #0x00	; 0
   1755 00                 5811 	.db #0x00	; 0
   1756 00                 5812 	.db #0x00	; 0
   1757 FC                 5813 	.db #0xfc	; 252
   1758 FC                 5814 	.db #0xfc	; 252
   1759 FC                 5815 	.db #0xfc	; 252
   175A FC                 5816 	.db #0xfc	; 252
   175B FC                 5817 	.db #0xfc	; 252
   175C FC                 5818 	.db #0xfc	; 252
   175D FC                 5819 	.db #0xfc	; 252
   175E FC                 5820 	.db #0xfc	; 252
   175F 3C                 5821 	.db #0x3c	; 60
   1760 3C                 5822 	.db #0x3c	; 60
   1761 00                 5823 	.db #0x00	; 0
   1762 00                 5824 	.db #0x00	; 0
   1763 00                 5825 	.db #0x00	; 0
   1764 00                 5826 	.db #0x00	; 0
   1765 00                 5827 	.db #0x00	; 0
   1766 00                 5828 	.db #0x00	; 0
   1767 00                 5829 	.db #0x00	; 0
   1768 00                 5830 	.db #0x00	; 0
   1769 00                 5831 	.db #0x00	; 0
   176A 00                 5832 	.db #0x00	; 0
   176B 00                 5833 	.db #0x00	; 0
   176C 00                 5834 	.db #0x00	; 0
   176D 01                 5835 	.db #0x01	; 1
   176E 01                 5836 	.db #0x01	; 1
   176F 01                 5837 	.db #0x01	; 1
   1770 01                 5838 	.db #0x01	; 1
   1771 00                 5839 	.db #0x00	; 0
   1772 00                 5840 	.db #0x00	; 0
   1773 00                 5841 	.db #0x00	; 0
   1774 00                 5842 	.db #0x00	; 0
   1775 00                 5843 	.db #0x00	; 0
   1776 00                 5844 	.db #0x00	; 0
   1777 00                 5845 	.db #0x00	; 0
   1778 00                 5846 	.db #0x00	; 0
   1779 00                 5847 	.db #0x00	; 0
   177A 00                 5848 	.db #0x00	; 0
   177B 00                 5849 	.db #0x00	; 0
   177C 00                 5850 	.db #0x00	; 0
   177D E0                 5851 	.db #0xe0	; 224
   177E E0                 5852 	.db #0xe0	; 224
   177F E0                 5853 	.db #0xe0	; 224
   1780 E0                 5854 	.db #0xe0	; 224
   1781 7F                 5855 	.db #0x7f	; 127
   1782 7F                 5856 	.db #0x7f	; 127
   1783 7F                 5857 	.db #0x7f	; 127
   1784 7F                 5858 	.db #0x7f	; 127
   1785 7F                 5859 	.db #0x7f	; 127
   1786 7F                 5860 	.db #0x7f	; 127
   1787 7F                 5861 	.db #0x7f	; 127
   1788 7F                 5862 	.db #0x7f	; 127
   1789 7F                 5863 	.db #0x7f	; 127
   178A 7F                 5864 	.db #0x7f	; 127
   178B 7F                 5865 	.db #0x7f	; 127
   178C 7F                 5866 	.db #0x7f	; 127
   178D 7F                 5867 	.db #0x7f	; 127
   178E 7F                 5868 	.db #0x7f	; 127
   178F 7F                 5869 	.db #0x7f	; 127
   1790 7F                 5870 	.db #0x7f	; 127
   1791 80                 5871 	.db #0x80	; 128
   1792 80                 5872 	.db #0x80	; 128
   1793 80                 5873 	.db #0x80	; 128
   1794 80                 5874 	.db #0x80	; 128
   1795 80                 5875 	.db #0x80	; 128
   1796 80                 5876 	.db #0x80	; 128
   1797 80                 5877 	.db #0x80	; 128
   1798 80                 5878 	.db #0x80	; 128
   1799 FF                 5879 	.db #0xff	; 255
   179A FF                 5880 	.db #0xff	; 255
   179B FF                 5881 	.db #0xff	; 255
   179C FF                 5882 	.db #0xff	; 255
   179D FF                 5883 	.db #0xff	; 255
   179E FF                 5884 	.db #0xff	; 255
   179F FF                 5885 	.db #0xff	; 255
   17A0 FF                 5886 	.db #0xff	; 255
   17A1 3F                 5887 	.db #0x3f	; 63
   17A2 3F                 5888 	.db #0x3f	; 63
   17A3 3F                 5889 	.db #0x3f	; 63
   17A4 3F                 5890 	.db #0x3f	; 63
   17A5 3F                 5891 	.db #0x3f	; 63
   17A6 3F                 5892 	.db #0x3f	; 63
   17A7 3C                 5893 	.db #0x3c	; 60
   17A8 3C                 5894 	.db #0x3c	; 60
   17A9 FC                 5895 	.db #0xfc	; 252
   17AA FC                 5896 	.db #0xfc	; 252
   17AB FC                 5897 	.db #0xfc	; 252
   17AC FC                 5898 	.db #0xfc	; 252
   17AD FC                 5899 	.db #0xfc	; 252
   17AE FC                 5900 	.db #0xfc	; 252
   17AF FC                 5901 	.db #0xfc	; 252
   17B0 FC                 5902 	.db #0xfc	; 252
   17B1 C0                 5903 	.db #0xc0	; 192
   17B2 C0                 5904 	.db #0xc0	; 192
   17B3 C0                 5905 	.db #0xc0	; 192
   17B4 C0                 5906 	.db #0xc0	; 192
   17B5 C0                 5907 	.db #0xc0	; 192
   17B6 C0                 5908 	.db #0xc0	; 192
   17B7 00                 5909 	.db #0x00	; 0
   17B8 00                 5910 	.db #0x00	; 0
   17B9 01                 5911 	.db #0x01	; 1
   17BA 01                 5912 	.db #0x01	; 1
   17BB 01                 5913 	.db #0x01	; 1
   17BC 01                 5914 	.db #0x01	; 1
   17BD 07                 5915 	.db #0x07	; 7
   17BE 07                 5916 	.db #0x07	; 7
   17BF 07                 5917 	.db #0x07	; 7
   17C0 07                 5918 	.db #0x07	; 7
   17C1 00                 5919 	.db #0x00	; 0
   17C2 00                 5920 	.db #0x00	; 0
   17C3 00                 5921 	.db #0x00	; 0
   17C4 00                 5922 	.db #0x00	; 0
   17C5 00                 5923 	.db #0x00	; 0
   17C6 00                 5924 	.db #0x00	; 0
   17C7 00                 5925 	.db #0x00	; 0
   17C8 00                 5926 	.db #0x00	; 0
   17C9 FF                 5927 	.db #0xff	; 255
   17CA FF                 5928 	.db #0xff	; 255
   17CB FF                 5929 	.db #0xff	; 255
   17CC FF                 5930 	.db #0xff	; 255
   17CD C0                 5931 	.db #0xc0	; 192
   17CE C0                 5932 	.db #0xc0	; 192
   17CF C0                 5933 	.db #0xc0	; 192
   17D0 C0                 5934 	.db #0xc0	; 192
   17D1 00                 5935 	.db #0x00	; 0
   17D2 00                 5936 	.db #0x00	; 0
   17D3 00                 5937 	.db #0x00	; 0
   17D4 00                 5938 	.db #0x00	; 0
   17D5 00                 5939 	.db #0x00	; 0
   17D6 00                 5940 	.db #0x00	; 0
   17D7 00                 5941 	.db #0x00	; 0
   17D8 00                 5942 	.db #0x00	; 0
   17D9 C0                 5943 	.db #0xc0	; 192
   17DA C0                 5944 	.db #0xc0	; 192
   17DB C0                 5945 	.db #0xc0	; 192
   17DC C0                 5946 	.db #0xc0	; 192
   17DD F8                 5947 	.db #0xf8	; 248
   17DE F8                 5948 	.db #0xf8	; 248
   17DF F8                 5949 	.db #0xf8	; 248
   17E0 F8                 5950 	.db #0xf8	; 248
   17E1 00                 5951 	.db #0x00	; 0
   17E2 00                 5952 	.db #0x00	; 0
   17E3 00                 5953 	.db #0x00	; 0
   17E4 00                 5954 	.db #0x00	; 0
   17E5 FF                 5955 	.db #0xff	; 255
   17E6 FF                 5956 	.db #0xff	; 255
   17E7 FF                 5957 	.db #0xff	; 255
   17E8 FF                 5958 	.db #0xff	; 255
   17E9 FF                 5959 	.db #0xff	; 255
   17EA FF                 5960 	.db #0xff	; 255
   17EB 00                 5961 	.db #0x00	; 0
   17EC 00                 5962 	.db #0x00	; 0
   17ED 00                 5963 	.db #0x00	; 0
   17EE 00                 5964 	.db #0x00	; 0
   17EF 00                 5965 	.db #0x00	; 0
   17F0 00                 5966 	.db #0x00	; 0
   17F1 00                 5967 	.db #0x00	; 0
   17F2 00                 5968 	.db #0x00	; 0
   17F3 00                 5969 	.db #0x00	; 0
   17F4 00                 5970 	.db #0x00	; 0
   17F5 80                 5971 	.db #0x80	; 128
   17F6 80                 5972 	.db #0x80	; 128
   17F7 80                 5973 	.db #0x80	; 128
   17F8 80                 5974 	.db #0x80	; 128
   17F9 80                 5975 	.db #0x80	; 128
   17FA 80                 5976 	.db #0x80	; 128
   17FB 00                 5977 	.db #0x00	; 0
   17FC 00                 5978 	.db #0x00	; 0
   17FD 00                 5979 	.db #0x00	; 0
   17FE 00                 5980 	.db #0x00	; 0
   17FF 00                 5981 	.db #0x00	; 0
   1800 00                 5982 	.db #0x00	; 0
   1801 01                 5983 	.db #0x01	; 1
   1802 01                 5984 	.db #0x01	; 1
   1803 01                 5985 	.db #0x01	; 1
   1804 01                 5986 	.db #0x01	; 1
   1805 01                 5987 	.db #0x01	; 1
   1806 01                 5988 	.db #0x01	; 1
   1807 01                 5989 	.db #0x01	; 1
   1808 01                 5990 	.db #0x01	; 1
   1809 01                 5991 	.db #0x01	; 1
   180A 01                 5992 	.db #0x01	; 1
   180B 01                 5993 	.db #0x01	; 1
   180C 01                 5994 	.db #0x01	; 1
   180D 01                 5995 	.db #0x01	; 1
   180E 01                 5996 	.db #0x01	; 1
   180F 01                 5997 	.db #0x01	; 1
   1810 01                 5998 	.db #0x01	; 1
   1811 FF                 5999 	.db #0xff	; 255
   1812 FF                 6000 	.db #0xff	; 255
   1813 FF                 6001 	.db #0xff	; 255
   1814 FF                 6002 	.db #0xff	; 255
   1815 FF                 6003 	.db #0xff	; 255
   1816 FF                 6004 	.db #0xff	; 255
   1817 FF                 6005 	.db #0xff	; 255
   1818 FF                 6006 	.db #0xff	; 255
   1819 FF                 6007 	.db #0xff	; 255
   181A FF                 6008 	.db #0xff	; 255
   181B FF                 6009 	.db #0xff	; 255
   181C FF                 6010 	.db #0xff	; 255
   181D FF                 6011 	.db #0xff	; 255
   181E FC                 6012 	.db #0xfc	; 252
   181F FF                 6013 	.db #0xff	; 255
   1820 FC                 6014 	.db #0xfc	; 252
   1821 FF                 6015 	.db #0xff	; 255
   1822 FF                 6016 	.db #0xff	; 255
   1823 FF                 6017 	.db #0xff	; 255
   1824 FF                 6018 	.db #0xff	; 255
   1825 FF                 6019 	.db #0xff	; 255
   1826 FF                 6020 	.db #0xff	; 255
   1827 FF                 6021 	.db #0xff	; 255
   1828 FF                 6022 	.db #0xff	; 255
   1829 FF                 6023 	.db #0xff	; 255
   182A FF                 6024 	.db #0xff	; 255
   182B FF                 6025 	.db #0xff	; 255
   182C FF                 6026 	.db #0xff	; 255
   182D FF                 6027 	.db #0xff	; 255
   182E 00                 6028 	.db #0x00	; 0
   182F FF                 6029 	.db #0xff	; 255
   1830 00                 6030 	.db #0x00	; 0
   1831 FF                 6031 	.db #0xff	; 255
   1832 FF                 6032 	.db #0xff	; 255
   1833 FF                 6033 	.db #0xff	; 255
   1834 FF                 6034 	.db #0xff	; 255
   1835 FF                 6035 	.db #0xff	; 255
   1836 FF                 6036 	.db #0xff	; 255
   1837 FF                 6037 	.db #0xff	; 255
   1838 FF                 6038 	.db #0xff	; 255
   1839 FF                 6039 	.db #0xff	; 255
   183A FF                 6040 	.db #0xff	; 255
   183B FF                 6041 	.db #0xff	; 255
   183C FF                 6042 	.db #0xff	; 255
   183D F8                 6043 	.db #0xf8	; 248
   183E 00                 6044 	.db #0x00	; 0
   183F F8                 6045 	.db #0xf8	; 248
   1840 00                 6046 	.db #0x00	; 0
   1841 FF                 6047 	.db #0xff	; 255
   1842 FF                 6048 	.db #0xff	; 255
   1843 FF                 6049 	.db #0xff	; 255
   1844 FF                 6050 	.db #0xff	; 255
   1845 FF                 6051 	.db #0xff	; 255
   1846 FF                 6052 	.db #0xff	; 255
   1847 FF                 6053 	.db #0xff	; 255
   1848 FF                 6054 	.db #0xff	; 255
   1849 FF                 6055 	.db #0xff	; 255
   184A FF                 6056 	.db #0xff	; 255
   184B FF                 6057 	.db #0xff	; 255
   184C FF                 6058 	.db #0xff	; 255
   184D 0F                 6059 	.db #0x0f	; 15
   184E 00                 6060 	.db #0x00	; 0
   184F 0F                 6061 	.db #0x0f	; 15
   1850 00                 6062 	.db #0x00	; 0
   1851 FF                 6063 	.db #0xff	; 255
   1852 FF                 6064 	.db #0xff	; 255
   1853 FF                 6065 	.db #0xff	; 255
   1854 FF                 6066 	.db #0xff	; 255
   1855 FF                 6067 	.db #0xff	; 255
   1856 FF                 6068 	.db #0xff	; 255
   1857 FF                 6069 	.db #0xff	; 255
   1858 FF                 6070 	.db #0xff	; 255
   1859 FF                 6071 	.db #0xff	; 255
   185A FF                 6072 	.db #0xff	; 255
   185B FF                 6073 	.db #0xff	; 255
   185C FF                 6074 	.db #0xff	; 255
   185D FF                 6075 	.db #0xff	; 255
   185E 1F                 6076 	.db #0x1f	; 31
   185F FF                 6077 	.db #0xff	; 255
   1860 1F                 6078 	.db #0x1f	; 31
   1861 E0                 6079 	.db #0xe0	; 224
   1862 E0                 6080 	.db #0xe0	; 224
   1863 E0                 6081 	.db #0xe0	; 224
   1864 E0                 6082 	.db #0xe0	; 224
   1865 E0                 6083 	.db #0xe0	; 224
   1866 E0                 6084 	.db #0xe0	; 224
   1867 E0                 6085 	.db #0xe0	; 224
   1868 E0                 6086 	.db #0xe0	; 224
   1869 E0                 6087 	.db #0xe0	; 224
   186A E0                 6088 	.db #0xe0	; 224
   186B E0                 6089 	.db #0xe0	; 224
   186C E0                 6090 	.db #0xe0	; 224
   186D E0                 6091 	.db #0xe0	; 224
   186E E0                 6092 	.db #0xe0	; 224
   186F E0                 6093 	.db #0xe0	; 224
   1870 E0                 6094 	.db #0xe0	; 224
   1871 80                 6095 	.db #0x80	; 128
   1872 80                 6096 	.db #0x80	; 128
   1873 80                 6097 	.db #0x80	; 128
   1874 80                 6098 	.db #0x80	; 128
   1875 80                 6099 	.db #0x80	; 128
   1876 80                 6100 	.db #0x80	; 128
   1877 80                 6101 	.db #0x80	; 128
   1878 80                 6102 	.db #0x80	; 128
   1879 80                 6103 	.db #0x80	; 128
   187A 80                 6104 	.db #0x80	; 128
   187B 80                 6105 	.db #0x80	; 128
   187C 80                 6106 	.db #0x80	; 128
   187D 80                 6107 	.db #0x80	; 128
   187E 80                 6108 	.db #0x80	; 128
   187F 80                 6109 	.db #0x80	; 128
   1880 80                 6110 	.db #0x80	; 128
   1881 3F                 6111 	.db #0x3f	; 63
   1882 3F                 6112 	.db #0x3f	; 63
   1883 3F                 6113 	.db #0x3f	; 63
   1884 3F                 6114 	.db #0x3f	; 63
   1885 3F                 6115 	.db #0x3f	; 63
   1886 3F                 6116 	.db #0x3f	; 63
   1887 3F                 6117 	.db #0x3f	; 63
   1888 3F                 6118 	.db #0x3f	; 63
   1889 3F                 6119 	.db #0x3f	; 63
   188A 3F                 6120 	.db #0x3f	; 63
   188B 3F                 6121 	.db #0x3f	; 63
   188C 3F                 6122 	.db #0x3f	; 63
   188D 3F                 6123 	.db #0x3f	; 63
   188E 3F                 6124 	.db #0x3f	; 63
   188F 3F                 6125 	.db #0x3f	; 63
   1890 3F                 6126 	.db #0x3f	; 63
   1891 C7                 6127 	.db #0xc7	; 199
   1892 C7                 6128 	.db #0xc7	; 199
   1893 C7                 6129 	.db #0xc7	; 199
   1894 C7                 6130 	.db #0xc7	; 199
   1895 C7                 6131 	.db #0xc7	; 199
   1896 C7                 6132 	.db #0xc7	; 199
   1897 C7                 6133 	.db #0xc7	; 199
   1898 C7                 6134 	.db #0xc7	; 199
   1899 C7                 6135 	.db #0xc7	; 199
   189A C7                 6136 	.db #0xc7	; 199
   189B C7                 6137 	.db #0xc7	; 199
   189C C7                 6138 	.db #0xc7	; 199
   189D C7                 6139 	.db #0xc7	; 199
   189E C7                 6140 	.db #0xc7	; 199
   189F C7                 6141 	.db #0xc7	; 199
   18A0 C7                 6142 	.db #0xc7	; 199
   18A1 C0                 6143 	.db #0xc0	; 192
   18A2 C0                 6144 	.db #0xc0	; 192
   18A3 C0                 6145 	.db #0xc0	; 192
   18A4 C0                 6146 	.db #0xc0	; 192
   18A5 C0                 6147 	.db #0xc0	; 192
   18A6 C0                 6148 	.db #0xc0	; 192
   18A7 C0                 6149 	.db #0xc0	; 192
   18A8 C0                 6150 	.db #0xc0	; 192
   18A9 C0                 6151 	.db #0xc0	; 192
   18AA C0                 6152 	.db #0xc0	; 192
   18AB C0                 6153 	.db #0xc0	; 192
   18AC C0                 6154 	.db #0xc0	; 192
   18AD C0                 6155 	.db #0xc0	; 192
   18AE C0                 6156 	.db #0xc0	; 192
   18AF C0                 6157 	.db #0xc0	; 192
   18B0 C0                 6158 	.db #0xc0	; 192
   18B1 F8                 6159 	.db #0xf8	; 248
   18B2 F8                 6160 	.db #0xf8	; 248
   18B3 F8                 6161 	.db #0xf8	; 248
   18B4 F8                 6162 	.db #0xf8	; 248
   18B5 F8                 6163 	.db #0xf8	; 248
   18B6 F8                 6164 	.db #0xf8	; 248
   18B7 F8                 6165 	.db #0xf8	; 248
   18B8 F8                 6166 	.db #0xf8	; 248
   18B9 F8                 6167 	.db #0xf8	; 248
   18BA F8                 6168 	.db #0xf8	; 248
   18BB F8                 6169 	.db #0xf8	; 248
   18BC F8                 6170 	.db #0xf8	; 248
   18BD F8                 6171 	.db #0xf8	; 248
   18BE F8                 6172 	.db #0xf8	; 248
   18BF F8                 6173 	.db #0xf8	; 248
   18C0 F8                 6174 	.db #0xf8	; 248
   18C1 FF                 6175 	.db #0xff	; 255
   18C2 FF                 6176 	.db #0xff	; 255
   18C3 FF                 6177 	.db #0xff	; 255
   18C4 FF                 6178 	.db #0xff	; 255
   18C5 FF                 6179 	.db #0xff	; 255
   18C6 FF                 6180 	.db #0xff	; 255
   18C7 FF                 6181 	.db #0xff	; 255
   18C8 FF                 6182 	.db #0xff	; 255
   18C9 FF                 6183 	.db #0xff	; 255
   18CA FF                 6184 	.db #0xff	; 255
   18CB FF                 6185 	.db #0xff	; 255
   18CC FF                 6186 	.db #0xff	; 255
   18CD FF                 6187 	.db #0xff	; 255
   18CE FF                 6188 	.db #0xff	; 255
   18CF FF                 6189 	.db #0xff	; 255
   18D0 FF                 6190 	.db #0xff	; 255
   18D1 FF                 6191 	.db #0xff	; 255
   18D2 FC                 6192 	.db #0xfc	; 252
   18D3 FF                 6193 	.db #0xff	; 255
   18D4 FC                 6194 	.db #0xfc	; 252
   18D5 FF                 6195 	.db #0xff	; 255
   18D6 FC                 6196 	.db #0xfc	; 252
   18D7 FF                 6197 	.db #0xff	; 255
   18D8 FC                 6198 	.db #0xfc	; 252
   18D9 FF                 6199 	.db #0xff	; 255
   18DA FC                 6200 	.db #0xfc	; 252
   18DB FF                 6201 	.db #0xff	; 255
   18DC FC                 6202 	.db #0xfc	; 252
   18DD FF                 6203 	.db #0xff	; 255
   18DE FC                 6204 	.db #0xfc	; 252
   18DF FF                 6205 	.db #0xff	; 255
   18E0 FC                 6206 	.db #0xfc	; 252
   18E1 FF                 6207 	.db #0xff	; 255
   18E2 00                 6208 	.db #0x00	; 0
   18E3 FF                 6209 	.db #0xff	; 255
   18E4 00                 6210 	.db #0x00	; 0
   18E5 FF                 6211 	.db #0xff	; 255
   18E6 00                 6212 	.db #0x00	; 0
   18E7 FF                 6213 	.db #0xff	; 255
   18E8 00                 6214 	.db #0x00	; 0
   18E9 FF                 6215 	.db #0xff	; 255
   18EA 00                 6216 	.db #0x00	; 0
   18EB FF                 6217 	.db #0xff	; 255
   18EC 00                 6218 	.db #0x00	; 0
   18ED FF                 6219 	.db #0xff	; 255
   18EE 00                 6220 	.db #0x00	; 0
   18EF FF                 6221 	.db #0xff	; 255
   18F0 00                 6222 	.db #0x00	; 0
   18F1 F8                 6223 	.db #0xf8	; 248
   18F2 00                 6224 	.db #0x00	; 0
   18F3 F8                 6225 	.db #0xf8	; 248
   18F4 00                 6226 	.db #0x00	; 0
   18F5 F8                 6227 	.db #0xf8	; 248
   18F6 00                 6228 	.db #0x00	; 0
   18F7 F8                 6229 	.db #0xf8	; 248
   18F8 00                 6230 	.db #0x00	; 0
   18F9 F8                 6231 	.db #0xf8	; 248
   18FA 00                 6232 	.db #0x00	; 0
   18FB F8                 6233 	.db #0xf8	; 248
   18FC 00                 6234 	.db #0x00	; 0
   18FD F8                 6235 	.db #0xf8	; 248
   18FE 00                 6236 	.db #0x00	; 0
   18FF F8                 6237 	.db #0xf8	; 248
   1900 00                 6238 	.db #0x00	; 0
   1901 0F                 6239 	.db #0x0f	; 15
   1902 00                 6240 	.db #0x00	; 0
   1903 0F                 6241 	.db #0x0f	; 15
   1904 00                 6242 	.db #0x00	; 0
   1905 0F                 6243 	.db #0x0f	; 15
   1906 00                 6244 	.db #0x00	; 0
   1907 0F                 6245 	.db #0x0f	; 15
   1908 00                 6246 	.db #0x00	; 0
   1909 0F                 6247 	.db #0x0f	; 15
   190A 00                 6248 	.db #0x00	; 0
   190B 0F                 6249 	.db #0x0f	; 15
   190C 00                 6250 	.db #0x00	; 0
   190D 0F                 6251 	.db #0x0f	; 15
   190E 00                 6252 	.db #0x00	; 0
   190F 0F                 6253 	.db #0x0f	; 15
   1910 00                 6254 	.db #0x00	; 0
   1911 FF                 6255 	.db #0xff	; 255
   1912 1F                 6256 	.db #0x1f	; 31
   1913 FF                 6257 	.db #0xff	; 255
   1914 1F                 6258 	.db #0x1f	; 31
   1915 FF                 6259 	.db #0xff	; 255
   1916 1F                 6260 	.db #0x1f	; 31
   1917 FF                 6261 	.db #0xff	; 255
   1918 1F                 6262 	.db #0x1f	; 31
   1919 FF                 6263 	.db #0xff	; 255
   191A 1F                 6264 	.db #0x1f	; 31
   191B FF                 6265 	.db #0xff	; 255
   191C 1F                 6266 	.db #0x1f	; 31
   191D FF                 6267 	.db #0xff	; 255
   191E 1F                 6268 	.db #0x1f	; 31
   191F FF                 6269 	.db #0xff	; 255
   1920 1F                 6270 	.db #0x1f	; 31
   1921 7F                 6271 	.db #0x7f	; 127
   1922 7F                 6272 	.db #0x7f	; 127
   1923 7F                 6273 	.db #0x7f	; 127
   1924 7F                 6274 	.db #0x7f	; 127
   1925 7F                 6275 	.db #0x7f	; 127
   1926 7F                 6276 	.db #0x7f	; 127
   1927 7F                 6277 	.db #0x7f	; 127
   1928 7F                 6278 	.db #0x7f	; 127
   1929 00                 6279 	.db #0x00	; 0
   192A 00                 6280 	.db #0x00	; 0
   192B 00                 6281 	.db #0x00	; 0
   192C 00                 6282 	.db #0x00	; 0
   192D 00                 6283 	.db #0x00	; 0
   192E 00                 6284 	.db #0x00	; 0
   192F 00                 6285 	.db #0x00	; 0
   1930 00                 6286 	.db #0x00	; 0
   1931 80                 6287 	.db #0x80	; 128
   1932 C0                 6288 	.db #0xc0	; 192
   1933 FF                 6289 	.db #0xff	; 255
   1934 FF                 6290 	.db #0xff	; 255
   1935 FF                 6291 	.db #0xff	; 255
   1936 FF                 6292 	.db #0xff	; 255
   1937 FF                 6293 	.db #0xff	; 255
   1938 FF                 6294 	.db #0xff	; 255
   1939 00                 6295 	.db #0x00	; 0
   193A 00                 6296 	.db #0x00	; 0
   193B 00                 6297 	.db #0x00	; 0
   193C 00                 6298 	.db #0x00	; 0
   193D 00                 6299 	.db #0x00	; 0
   193E 00                 6300 	.db #0x00	; 0
   193F 00                 6301 	.db #0x00	; 0
   1940 00                 6302 	.db #0x00	; 0
   1941 3C                 6303 	.db #0x3c	; 60
   1942 3C                 6304 	.db #0x3c	; 60
   1943 FC                 6305 	.db #0xfc	; 252
   1944 FC                 6306 	.db #0xfc	; 252
   1945 FC                 6307 	.db #0xfc	; 252
   1946 FC                 6308 	.db #0xfc	; 252
   1947 FC                 6309 	.db #0xfc	; 252
   1948 FC                 6310 	.db #0xfc	; 252
   1949 00                 6311 	.db #0x00	; 0
   194A 00                 6312 	.db #0x00	; 0
   194B 00                 6313 	.db #0x00	; 0
   194C 00                 6314 	.db #0x00	; 0
   194D 00                 6315 	.db #0x00	; 0
   194E 00                 6316 	.db #0x00	; 0
   194F 00                 6317 	.db #0x00	; 0
   1950 00                 6318 	.db #0x00	; 0
   1951 07                 6319 	.db #0x07	; 7
   1952 07                 6320 	.db #0x07	; 7
   1953 01                 6321 	.db #0x01	; 1
   1954 01                 6322 	.db #0x01	; 1
   1955 01                 6323 	.db #0x01	; 1
   1956 01                 6324 	.db #0x01	; 1
   1957 01                 6325 	.db #0x01	; 1
   1958 01                 6326 	.db #0x01	; 1
   1959 00                 6327 	.db #0x00	; 0
   195A 00                 6328 	.db #0x00	; 0
   195B 00                 6329 	.db #0x00	; 0
   195C 00                 6330 	.db #0x00	; 0
   195D 00                 6331 	.db #0x00	; 0
   195E 00                 6332 	.db #0x00	; 0
   195F 00                 6333 	.db #0x00	; 0
   1960 00                 6334 	.db #0x00	; 0
   1961 C0                 6335 	.db #0xc0	; 192
   1962 C0                 6336 	.db #0xc0	; 192
   1963 FF                 6337 	.db #0xff	; 255
   1964 FF                 6338 	.db #0xff	; 255
   1965 FF                 6339 	.db #0xff	; 255
   1966 FF                 6340 	.db #0xff	; 255
   1967 FF                 6341 	.db #0xff	; 255
   1968 FF                 6342 	.db #0xff	; 255
   1969 00                 6343 	.db #0x00	; 0
   196A 00                 6344 	.db #0x00	; 0
   196B 00                 6345 	.db #0x00	; 0
   196C 00                 6346 	.db #0x00	; 0
   196D 00                 6347 	.db #0x00	; 0
   196E 00                 6348 	.db #0x00	; 0
   196F 00                 6349 	.db #0x00	; 0
   1970 00                 6350 	.db #0x00	; 0
   1971 F8                 6351 	.db #0xf8	; 248
   1972 F8                 6352 	.db #0xf8	; 248
   1973 C0                 6353 	.db #0xc0	; 192
   1974 C0                 6354 	.db #0xc0	; 192
   1975 C0                 6355 	.db #0xc0	; 192
   1976 C0                 6356 	.db #0xc0	; 192
   1977 C0                 6357 	.db #0xc0	; 192
   1978 C0                 6358 	.db #0xc0	; 192
   1979 00                 6359 	.db #0x00	; 0
   197A 00                 6360 	.db #0x00	; 0
   197B 00                 6361 	.db #0x00	; 0
   197C 00                 6362 	.db #0x00	; 0
   197D 00                 6363 	.db #0x00	; 0
   197E 00                 6364 	.db #0x00	; 0
   197F 00                 6365 	.db #0x00	; 0
   1980 00                 6366 	.db #0x00	; 0
   1981 FF                 6367 	.db #0xff	; 255
   1982 FF                 6368 	.db #0xff	; 255
   1983 FF                 6369 	.db #0xff	; 255
   1984 FF                 6370 	.db #0xff	; 255
   1985 FF                 6371 	.db #0xff	; 255
   1986 FF                 6372 	.db #0xff	; 255
   1987 FF                 6373 	.db #0xff	; 255
   1988 FF                 6374 	.db #0xff	; 255
   1989 00                 6375 	.db #0x00	; 0
   198A 00                 6376 	.db #0x00	; 0
   198B 00                 6377 	.db #0x00	; 0
   198C 00                 6378 	.db #0x00	; 0
   198D 00                 6379 	.db #0x00	; 0
   198E 00                 6380 	.db #0x00	; 0
   198F 00                 6381 	.db #0x00	; 0
   1990 00                 6382 	.db #0x00	; 0
   1991 80                 6383 	.db #0x80	; 128
   1992 80                 6384 	.db #0x80	; 128
   1993 80                 6385 	.db #0x80	; 128
   1994 80                 6386 	.db #0x80	; 128
   1995 80                 6387 	.db #0x80	; 128
   1996 80                 6388 	.db #0x80	; 128
   1997 80                 6389 	.db #0x80	; 128
   1998 80                 6390 	.db #0x80	; 128
   1999 00                 6391 	.db #0x00	; 0
   199A 00                 6392 	.db #0x00	; 0
   199B 00                 6393 	.db #0x00	; 0
   199C 00                 6394 	.db #0x00	; 0
   199D 00                 6395 	.db #0x00	; 0
   199E 00                 6396 	.db #0x00	; 0
   199F 00                 6397 	.db #0x00	; 0
   19A0 00                 6398 	.db #0x00	; 0
   19A1 FF                 6399 	.db #0xff	; 255
   19A2 FC                 6400 	.db #0xfc	; 252
   19A3 FF                 6401 	.db #0xff	; 255
   19A4 FC                 6402 	.db #0xfc	; 252
   19A5 FF                 6403 	.db #0xff	; 255
   19A6 FC                 6404 	.db #0xfc	; 252
   19A7 FF                 6405 	.db #0xff	; 255
   19A8 FC                 6406 	.db #0xfc	; 252
   19A9 FC                 6407 	.db #0xfc	; 252
   19AA FC                 6408 	.db #0xfc	; 252
   19AB FC                 6409 	.db #0xfc	; 252
   19AC FC                 6410 	.db #0xfc	; 252
   19AD FC                 6411 	.db #0xfc	; 252
   19AE FC                 6412 	.db #0xfc	; 252
   19AF FC                 6413 	.db #0xfc	; 252
   19B0 FC                 6414 	.db #0xfc	; 252
   19B1 FF                 6415 	.db #0xff	; 255
   19B2 00                 6416 	.db #0x00	; 0
   19B3 FF                 6417 	.db #0xff	; 255
   19B4 00                 6418 	.db #0x00	; 0
   19B5 FF                 6419 	.db #0xff	; 255
   19B6 00                 6420 	.db #0x00	; 0
   19B7 FF                 6421 	.db #0xff	; 255
   19B8 00                 6422 	.db #0x00	; 0
   19B9 00                 6423 	.db #0x00	; 0
   19BA 00                 6424 	.db #0x00	; 0
   19BB 00                 6425 	.db #0x00	; 0
   19BC 00                 6426 	.db #0x00	; 0
   19BD 00                 6427 	.db #0x00	; 0
   19BE 00                 6428 	.db #0x00	; 0
   19BF 00                 6429 	.db #0x00	; 0
   19C0 00                 6430 	.db #0x00	; 0
   19C1 F8                 6431 	.db #0xf8	; 248
   19C2 00                 6432 	.db #0x00	; 0
   19C3 F8                 6433 	.db #0xf8	; 248
   19C4 00                 6434 	.db #0x00	; 0
   19C5 F8                 6435 	.db #0xf8	; 248
   19C6 00                 6436 	.db #0x00	; 0
   19C7 F8                 6437 	.db #0xf8	; 248
   19C8 00                 6438 	.db #0x00	; 0
   19C9 07                 6439 	.db #0x07	; 7
   19CA 07                 6440 	.db #0x07	; 7
   19CB 07                 6441 	.db #0x07	; 7
   19CC 07                 6442 	.db #0x07	; 7
   19CD 07                 6443 	.db #0x07	; 7
   19CE 07                 6444 	.db #0x07	; 7
   19CF 07                 6445 	.db #0x07	; 7
   19D0 07                 6446 	.db #0x07	; 7
   19D1 0F                 6447 	.db #0x0f	; 15
   19D2 00                 6448 	.db #0x00	; 0
   19D3 0F                 6449 	.db #0x0f	; 15
   19D4 00                 6450 	.db #0x00	; 0
   19D5 0F                 6451 	.db #0x0f	; 15
   19D6 00                 6452 	.db #0x00	; 0
   19D7 0F                 6453 	.db #0x0f	; 15
   19D8 00                 6454 	.db #0x00	; 0
   19D9 F0                 6455 	.db #0xf0	; 240
   19DA F0                 6456 	.db #0xf0	; 240
   19DB F0                 6457 	.db #0xf0	; 240
   19DC F0                 6458 	.db #0xf0	; 240
   19DD F0                 6459 	.db #0xf0	; 240
   19DE F0                 6460 	.db #0xf0	; 240
   19DF F0                 6461 	.db #0xf0	; 240
   19E0 F0                 6462 	.db #0xf0	; 240
   19E1 FF                 6463 	.db #0xff	; 255
   19E2 1F                 6464 	.db #0x1f	; 31
   19E3 FF                 6465 	.db #0xff	; 255
   19E4 1F                 6466 	.db #0x1f	; 31
   19E5 FF                 6467 	.db #0xff	; 255
   19E6 1F                 6468 	.db #0x1f	; 31
   19E7 FF                 6469 	.db #0xff	; 255
   19E8 1F                 6470 	.db #0x1f	; 31
   19E9 1F                 6471 	.db #0x1f	; 31
   19EA 1F                 6472 	.db #0x1f	; 31
   19EB 1F                 6473 	.db #0x1f	; 31
   19EC 1F                 6474 	.db #0x1f	; 31
   19ED 1F                 6475 	.db #0x1f	; 31
   19EE 1F                 6476 	.db #0x1f	; 31
   19EF 1F                 6477 	.db #0x1f	; 31
   19F0 1F                 6478 	.db #0x1f	; 31
   19F1 FC                 6479 	.db #0xfc	; 252
   19F2 FC                 6480 	.db #0xfc	; 252
   19F3 FC                 6481 	.db #0xfc	; 252
   19F4 FC                 6482 	.db #0xfc	; 252
   19F5 FC                 6483 	.db #0xfc	; 252
   19F6 FC                 6484 	.db #0xfc	; 252
   19F7 FF                 6485 	.db #0xff	; 255
   19F8 FF                 6486 	.db #0xff	; 255
   19F9 FF                 6487 	.db #0xff	; 255
   19FA FF                 6488 	.db #0xff	; 255
   19FB FF                 6489 	.db #0xff	; 255
   19FC FF                 6490 	.db #0xff	; 255
   19FD FF                 6491 	.db #0xff	; 255
   19FE FF                 6492 	.db #0xff	; 255
   19FF FF                 6493 	.db #0xff	; 255
   1A00 FF                 6494 	.db #0xff	; 255
   1A01 00                 6495 	.db #0x00	; 0
   1A02 00                 6496 	.db #0x00	; 0
   1A03 00                 6497 	.db #0x00	; 0
   1A04 00                 6498 	.db #0x00	; 0
   1A05 00                 6499 	.db #0x00	; 0
   1A06 00                 6500 	.db #0x00	; 0
   1A07 FF                 6501 	.db #0xff	; 255
   1A08 FF                 6502 	.db #0xff	; 255
   1A09 FF                 6503 	.db #0xff	; 255
   1A0A FF                 6504 	.db #0xff	; 255
   1A0B FF                 6505 	.db #0xff	; 255
   1A0C FF                 6506 	.db #0xff	; 255
   1A0D FF                 6507 	.db #0xff	; 255
   1A0E FF                 6508 	.db #0xff	; 255
   1A0F FF                 6509 	.db #0xff	; 255
   1A10 FF                 6510 	.db #0xff	; 255
   1A11 07                 6511 	.db #0x07	; 7
   1A12 07                 6512 	.db #0x07	; 7
   1A13 07                 6513 	.db #0x07	; 7
   1A14 07                 6514 	.db #0x07	; 7
   1A15 07                 6515 	.db #0x07	; 7
   1A16 07                 6516 	.db #0x07	; 7
   1A17 FF                 6517 	.db #0xff	; 255
   1A18 FF                 6518 	.db #0xff	; 255
   1A19 FF                 6519 	.db #0xff	; 255
   1A1A FF                 6520 	.db #0xff	; 255
   1A1B FF                 6521 	.db #0xff	; 255
   1A1C FF                 6522 	.db #0xff	; 255
   1A1D FF                 6523 	.db #0xff	; 255
   1A1E FF                 6524 	.db #0xff	; 255
   1A1F FF                 6525 	.db #0xff	; 255
   1A20 FF                 6526 	.db #0xff	; 255
   1A21 F0                 6527 	.db #0xf0	; 240
   1A22 F0                 6528 	.db #0xf0	; 240
   1A23 F0                 6529 	.db #0xf0	; 240
   1A24 F0                 6530 	.db #0xf0	; 240
   1A25 F0                 6531 	.db #0xf0	; 240
   1A26 F0                 6532 	.db #0xf0	; 240
   1A27 FF                 6533 	.db #0xff	; 255
   1A28 FF                 6534 	.db #0xff	; 255
   1A29 FF                 6535 	.db #0xff	; 255
   1A2A FF                 6536 	.db #0xff	; 255
   1A2B FF                 6537 	.db #0xff	; 255
   1A2C FF                 6538 	.db #0xff	; 255
   1A2D FF                 6539 	.db #0xff	; 255
   1A2E FF                 6540 	.db #0xff	; 255
   1A2F FF                 6541 	.db #0xff	; 255
   1A30 FF                 6542 	.db #0xff	; 255
   1A31 1F                 6543 	.db #0x1f	; 31
   1A32 1F                 6544 	.db #0x1f	; 31
   1A33 1F                 6545 	.db #0x1f	; 31
   1A34 1F                 6546 	.db #0x1f	; 31
   1A35 1F                 6547 	.db #0x1f	; 31
   1A36 1F                 6548 	.db #0x1f	; 31
   1A37 FF                 6549 	.db #0xff	; 255
   1A38 FF                 6550 	.db #0xff	; 255
   1A39 FF                 6551 	.db #0xff	; 255
   1A3A FF                 6552 	.db #0xff	; 255
   1A3B FF                 6553 	.db #0xff	; 255
   1A3C FF                 6554 	.db #0xff	; 255
   1A3D FF                 6555 	.db #0xff	; 255
   1A3E FF                 6556 	.db #0xff	; 255
   1A3F FF                 6557 	.db #0xff	; 255
   1A40 FF                 6558 	.db #0xff	; 255
   1A41 01                 6559 	.db #0x01	; 1
   1A42 01                 6560 	.db #0x01	; 1
   1A43 01                 6561 	.db #0x01	; 1
   1A44 01                 6562 	.db #0x01	; 1
   1A45 01                 6563 	.db #0x01	; 1
   1A46 01                 6564 	.db #0x01	; 1
   1A47 00                 6565 	.db #0x00	; 0
   1A48 00                 6566 	.db #0x00	; 0
   1A49 00                 6567 	.db #0x00	; 0
   1A4A 00                 6568 	.db #0x00	; 0
   1A4B 00                 6569 	.db #0x00	; 0
   1A4C 00                 6570 	.db #0x00	; 0
   1A4D 00                 6571 	.db #0x00	; 0
   1A4E 00                 6572 	.db #0x00	; 0
   1A4F 00                 6573 	.db #0x00	; 0
   1A50 00                 6574 	.db #0x00	; 0
   1A51 FF                 6575 	.db #0xff	; 255
   1A52 FF                 6576 	.db #0xff	; 255
   1A53 FF                 6577 	.db #0xff	; 255
   1A54 FF                 6578 	.db #0xff	; 255
   1A55 FF                 6579 	.db #0xff	; 255
   1A56 FF                 6580 	.db #0xff	; 255
   1A57 03                 6581 	.db #0x03	; 3
   1A58 03                 6582 	.db #0x03	; 3
   1A59 03                 6583 	.db #0x03	; 3
   1A5A 03                 6584 	.db #0x03	; 3
   1A5B 03                 6585 	.db #0x03	; 3
   1A5C 03                 6586 	.db #0x03	; 3
   1A5D 03                 6587 	.db #0x03	; 3
   1A5E 03                 6588 	.db #0x03	; 3
   1A5F 03                 6589 	.db #0x03	; 3
   1A60 03                 6590 	.db #0x03	; 3
   1A61 FF                 6591 	.db #0xff	; 255
   1A62 FF                 6592 	.db #0xff	; 255
   1A63 FF                 6593 	.db #0xff	; 255
   1A64 FF                 6594 	.db #0xff	; 255
   1A65 FF                 6595 	.db #0xff	; 255
   1A66 FF                 6596 	.db #0xff	; 255
   1A67 F8                 6597 	.db #0xf8	; 248
   1A68 F8                 6598 	.db #0xf8	; 248
   1A69 F8                 6599 	.db #0xf8	; 248
   1A6A F8                 6600 	.db #0xf8	; 248
   1A6B F8                 6601 	.db #0xf8	; 248
   1A6C F8                 6602 	.db #0xf8	; 248
   1A6D F8                 6603 	.db #0xf8	; 248
   1A6E F8                 6604 	.db #0xf8	; 248
   1A6F F8                 6605 	.db #0xf8	; 248
   1A70 F8                 6606 	.db #0xf8	; 248
   1A71 FF                 6607 	.db #0xff	; 255
   1A72 FF                 6608 	.db #0xff	; 255
   1A73 FF                 6609 	.db #0xff	; 255
   1A74 FF                 6610 	.db #0xff	; 255
   1A75 FF                 6611 	.db #0xff	; 255
   1A76 FF                 6612 	.db #0xff	; 255
   1A77 0F                 6613 	.db #0x0f	; 15
   1A78 0F                 6614 	.db #0x0f	; 15
   1A79 0F                 6615 	.db #0x0f	; 15
   1A7A 0F                 6616 	.db #0x0f	; 15
   1A7B 0F                 6617 	.db #0x0f	; 15
   1A7C 0F                 6618 	.db #0x0f	; 15
   1A7D 0F                 6619 	.db #0x0f	; 15
   1A7E 0F                 6620 	.db #0x0f	; 15
   1A7F 0F                 6621 	.db #0x0f	; 15
   1A80 0F                 6622 	.db #0x0f	; 15
   1A81 03                 6623 	.db #0x03	; 3
   1A82 03                 6624 	.db #0x03	; 3
   1A83 03                 6625 	.db #0x03	; 3
   1A84 03                 6626 	.db #0x03	; 3
   1A85 03                 6627 	.db #0x03	; 3
   1A86 03                 6628 	.db #0x03	; 3
   1A87 03                 6629 	.db #0x03	; 3
   1A88 03                 6630 	.db #0x03	; 3
   1A89 03                 6631 	.db #0x03	; 3
   1A8A 03                 6632 	.db #0x03	; 3
   1A8B 03                 6633 	.db #0x03	; 3
   1A8C 03                 6634 	.db #0x03	; 3
   1A8D 03                 6635 	.db #0x03	; 3
   1A8E 03                 6636 	.db #0x03	; 3
   1A8F 03                 6637 	.db #0x03	; 3
   1A90 03                 6638 	.db #0x03	; 3
   1A91 0F                 6639 	.db #0x0f	; 15
   1A92 0F                 6640 	.db #0x0f	; 15
   1A93 0F                 6641 	.db #0x0f	; 15
   1A94 0F                 6642 	.db #0x0f	; 15
   1A95 0F                 6643 	.db #0x0f	; 15
   1A96 0F                 6644 	.db #0x0f	; 15
   1A97 0F                 6645 	.db #0x0f	; 15
   1A98 0F                 6646 	.db #0x0f	; 15
   1A99 0F                 6647 	.db #0x0f	; 15
   1A9A 0F                 6648 	.db #0x0f	; 15
   1A9B 0F                 6649 	.db #0x0f	; 15
   1A9C 0F                 6650 	.db #0x0f	; 15
   1A9D 0F                 6651 	.db #0x0f	; 15
   1A9E 0F                 6652 	.db #0x0f	; 15
   1A9F 0F                 6653 	.db #0x0f	; 15
   1AA0 0F                 6654 	.db #0x0f	; 15
   1AA1 03                 6655 	.db #0x03	; 3
   1AA2 03                 6656 	.db #0x03	; 3
   1AA3 00                 6657 	.db #0x00	; 0
   1AA4 00                 6658 	.db #0x00	; 0
   1AA5 00                 6659 	.db #0x00	; 0
   1AA6 00                 6660 	.db #0x00	; 0
   1AA7 00                 6661 	.db #0x00	; 0
   1AA8 00                 6662 	.db #0x00	; 0
   1AA9 00                 6663 	.db #0x00	; 0
   1AAA 00                 6664 	.db #0x00	; 0
   1AAB 00                 6665 	.db #0x00	; 0
   1AAC 00                 6666 	.db #0x00	; 0
   1AAD 00                 6667 	.db #0x00	; 0
   1AAE 00                 6668 	.db #0x00	; 0
   1AAF 00                 6669 	.db #0x00	; 0
   1AB0 00                 6670 	.db #0x00	; 0
   1AB1 FF                 6671 	.db #0xff	; 255
   1AB2 FF                 6672 	.db #0xff	; 255
   1AB3 00                 6673 	.db #0x00	; 0
   1AB4 00                 6674 	.db #0x00	; 0
   1AB5 00                 6675 	.db #0x00	; 0
   1AB6 00                 6676 	.db #0x00	; 0
   1AB7 00                 6677 	.db #0x00	; 0
   1AB8 00                 6678 	.db #0x00	; 0
   1AB9 00                 6679 	.db #0x00	; 0
   1ABA 00                 6680 	.db #0x00	; 0
   1ABB 00                 6681 	.db #0x00	; 0
   1ABC 00                 6682 	.db #0x00	; 0
   1ABD 00                 6683 	.db #0x00	; 0
   1ABE 00                 6684 	.db #0x00	; 0
   1ABF 00                 6685 	.db #0x00	; 0
   1AC0 00                 6686 	.db #0x00	; 0
   1AC1 F8                 6687 	.db #0xf8	; 248
   1AC2 F8                 6688 	.db #0xf8	; 248
   1AC3 00                 6689 	.db #0x00	; 0
   1AC4 00                 6690 	.db #0x00	; 0
   1AC5 00                 6691 	.db #0x00	; 0
   1AC6 00                 6692 	.db #0x00	; 0
   1AC7 00                 6693 	.db #0x00	; 0
   1AC8 00                 6694 	.db #0x00	; 0
   1AC9 00                 6695 	.db #0x00	; 0
   1ACA 00                 6696 	.db #0x00	; 0
   1ACB 00                 6697 	.db #0x00	; 0
   1ACC 00                 6698 	.db #0x00	; 0
   1ACD 00                 6699 	.db #0x00	; 0
   1ACE 00                 6700 	.db #0x00	; 0
   1ACF 00                 6701 	.db #0x00	; 0
   1AD0 00                 6702 	.db #0x00	; 0
   1AD1 0F                 6703 	.db #0x0f	; 15
   1AD2 0F                 6704 	.db #0x0f	; 15
   1AD3 00                 6705 	.db #0x00	; 0
   1AD4 00                 6706 	.db #0x00	; 0
   1AD5 00                 6707 	.db #0x00	; 0
   1AD6 00                 6708 	.db #0x00	; 0
   1AD7 00                 6709 	.db #0x00	; 0
   1AD8 00                 6710 	.db #0x00	; 0
   1AD9 00                 6711 	.db #0x00	; 0
   1ADA 00                 6712 	.db #0x00	; 0
   1ADB 00                 6713 	.db #0x00	; 0
   1ADC 00                 6714 	.db #0x00	; 0
   1ADD 00                 6715 	.db #0x00	; 0
   1ADE 00                 6716 	.db #0x00	; 0
   1ADF 00                 6717 	.db #0x00	; 0
   1AE0 00                 6718 	.db #0x00	; 0
   1AE1 E0                 6719 	.db #0xe0	; 224
   1AE2 E0                 6720 	.db #0xe0	; 224
   1AE3 00                 6721 	.db #0x00	; 0
   1AE4 00                 6722 	.db #0x00	; 0
   1AE5 00                 6723 	.db #0x00	; 0
   1AE6 00                 6724 	.db #0x00	; 0
   1AE7 00                 6725 	.db #0x00	; 0
   1AE8 00                 6726 	.db #0x00	; 0
   1AE9 00                 6727 	.db #0x00	; 0
   1AEA 00                 6728 	.db #0x00	; 0
   1AEB 00                 6729 	.db #0x00	; 0
   1AEC 00                 6730 	.db #0x00	; 0
   1AED 00                 6731 	.db #0x00	; 0
   1AEE 00                 6732 	.db #0x00	; 0
   1AEF 00                 6733 	.db #0x00	; 0
   1AF0 00                 6734 	.db #0x00	; 0
   1AF1 00                 6735 	.db #0x00	; 0
   1AF2 00                 6736 	.db #0x00	; 0
   1AF3 00                 6737 	.db #0x00	; 0
   1AF4 00                 6738 	.db #0x00	; 0
   1AF5 01                 6739 	.db #0x01	; 1
   1AF6 01                 6740 	.db #0x01	; 1
   1AF7 01                 6741 	.db #0x01	; 1
   1AF8 01                 6742 	.db #0x01	; 1
   1AF9 00                 6743 	.db #0x00	; 0
   1AFA 00                 6744 	.db #0x00	; 0
   1AFB 00                 6745 	.db #0x00	; 0
   1AFC 00                 6746 	.db #0x00	; 0
   1AFD 00                 6747 	.db #0x00	; 0
   1AFE 00                 6748 	.db #0x00	; 0
   1AFF 00                 6749 	.db #0x00	; 0
   1B00 00                 6750 	.db #0x00	; 0
   1B01 7F                 6751 	.db #0x7f	; 127
   1B02 7F                 6752 	.db #0x7f	; 127
   1B03 7F                 6753 	.db #0x7f	; 127
   1B04 7F                 6754 	.db #0x7f	; 127
   1B05 E0                 6755 	.db #0xe0	; 224
   1B06 E0                 6756 	.db #0xe0	; 224
   1B07 E0                 6757 	.db #0xe0	; 224
   1B08 E0                 6758 	.db #0xe0	; 224
   1B09 7F                 6759 	.db #0x7f	; 127
   1B0A 7F                 6760 	.db #0x7f	; 127
   1B0B 7F                 6761 	.db #0x7f	; 127
   1B0C 7F                 6762 	.db #0x7f	; 127
   1B0D 07                 6763 	.db #0x07	; 7
   1B0E 07                 6764 	.db #0x07	; 7
   1B0F 07                 6765 	.db #0x07	; 7
   1B10 07                 6766 	.db #0x07	; 7
   1B11 87                 6767 	.db #0x87	; 135
   1B12 87                 6768 	.db #0x87	; 135
   1B13 87                 6769 	.db #0x87	; 135
   1B14 87                 6770 	.db #0x87	; 135
   1B15 00                 6771 	.db #0x00	; 0
   1B16 00                 6772 	.db #0x00	; 0
   1B17 00                 6773 	.db #0x00	; 0
   1B18 00                 6774 	.db #0x00	; 0
   1B19 80                 6775 	.db #0x80	; 128
   1B1A 80                 6776 	.db #0x80	; 128
   1B1B 80                 6777 	.db #0x80	; 128
   1B1C 80                 6778 	.db #0x80	; 128
   1B1D E0                 6779 	.db #0xe0	; 224
   1B1E E0                 6780 	.db #0xe0	; 224
   1B1F E0                 6781 	.db #0xe0	; 224
   1B20 E0                 6782 	.db #0xe0	; 224
   1B21 FF                 6783 	.db #0xff	; 255
   1B22 FF                 6784 	.db #0xff	; 255
   1B23 FF                 6785 	.db #0xff	; 255
   1B24 FF                 6786 	.db #0xff	; 255
   1B25 78                 6787 	.db #0x78	; 120	'x'
   1B26 78                 6788 	.db #0x78	; 120	'x'
   1B27 78                 6789 	.db #0x78	; 120	'x'
   1B28 78                 6790 	.db #0x78	; 120	'x'
   1B29 78                 6791 	.db #0x78	; 120	'x'
   1B2A 78                 6792 	.db #0x78	; 120	'x'
   1B2B 78                 6793 	.db #0x78	; 120	'x'
   1B2C 78                 6794 	.db #0x78	; 120	'x'
   1B2D 78                 6795 	.db #0x78	; 120	'x'
   1B2E 78                 6796 	.db #0x78	; 120	'x'
   1B2F 78                 6797 	.db #0x78	; 120	'x'
   1B30 78                 6798 	.db #0x78	; 120	'x'
   1B31 87                 6799 	.db #0x87	; 135
   1B32 87                 6800 	.db #0x87	; 135
   1B33 87                 6801 	.db #0x87	; 135
   1B34 87                 6802 	.db #0x87	; 135
   1B35 18                 6803 	.db #0x18	; 24
   1B36 18                 6804 	.db #0x18	; 24
   1B37 18                 6805 	.db #0x18	; 24
   1B38 18                 6806 	.db #0x18	; 24
   1B39 18                 6807 	.db #0x18	; 24
   1B3A 18                 6808 	.db #0x18	; 24
   1B3B 18                 6809 	.db #0x18	; 24
   1B3C 18                 6810 	.db #0x18	; 24
   1B3D 1F                 6811 	.db #0x1f	; 31
   1B3E 1F                 6812 	.db #0x1f	; 31
   1B3F 1F                 6813 	.db #0x1f	; 31
   1B40 1F                 6814 	.db #0x1f	; 31
   1B41 F0                 6815 	.db #0xf0	; 240
   1B42 F0                 6816 	.db #0xf0	; 240
   1B43 F0                 6817 	.db #0xf0	; 240
   1B44 F0                 6818 	.db #0xf0	; 240
   1B45 FC                 6819 	.db #0xfc	; 252
   1B46 FC                 6820 	.db #0xfc	; 252
   1B47 FC                 6821 	.db #0xfc	; 252
   1B48 FC                 6822 	.db #0xfc	; 252
   1B49 FC                 6823 	.db #0xfc	; 252
   1B4A FC                 6824 	.db #0xfc	; 252
   1B4B FC                 6825 	.db #0xfc	; 252
   1B4C FC                 6826 	.db #0xfc	; 252
   1B4D FC                 6827 	.db #0xfc	; 252
   1B4E FC                 6828 	.db #0xfc	; 252
   1B4F FC                 6829 	.db #0xfc	; 252
   1B50 FC                 6830 	.db #0xfc	; 252
   1B51 FF                 6831 	.db #0xff	; 255
   1B52 FF                 6832 	.db #0xff	; 255
   1B53 FF                 6833 	.db #0xff	; 255
   1B54 FF                 6834 	.db #0xff	; 255
   1B55 F0                 6835 	.db #0xf0	; 240
   1B56 F0                 6836 	.db #0xf0	; 240
   1B57 F0                 6837 	.db #0xf0	; 240
   1B58 F0                 6838 	.db #0xf0	; 240
   1B59 F0                 6839 	.db #0xf0	; 240
   1B5A F0                 6840 	.db #0xf0	; 240
   1B5B F0                 6841 	.db #0xf0	; 240
   1B5C F0                 6842 	.db #0xf0	; 240
   1B5D FF                 6843 	.db #0xff	; 255
   1B5E FF                 6844 	.db #0xff	; 255
   1B5F FF                 6845 	.db #0xff	; 255
   1B60 FF                 6846 	.db #0xff	; 255
   1B61 C3                 6847 	.db #0xc3	; 195
   1B62 C3                 6848 	.db #0xc3	; 195
   1B63 C3                 6849 	.db #0xc3	; 195
   1B64 C3                 6850 	.db #0xc3	; 195
   1B65 F0                 6851 	.db #0xf0	; 240
   1B66 F0                 6852 	.db #0xf0	; 240
   1B67 F0                 6853 	.db #0xf0	; 240
   1B68 F0                 6854 	.db #0xf0	; 240
   1B69 F0                 6855 	.db #0xf0	; 240
   1B6A F0                 6856 	.db #0xf0	; 240
   1B6B F0                 6857 	.db #0xf0	; 240
   1B6C F0                 6858 	.db #0xf0	; 240
   1B6D C0                 6859 	.db #0xc0	; 192
   1B6E C0                 6860 	.db #0xc0	; 192
   1B6F C0                 6861 	.db #0xc0	; 192
   1B70 C0                 6862 	.db #0xc0	; 192
   1B71 FF                 6863 	.db #0xff	; 255
   1B72 FF                 6864 	.db #0xff	; 255
   1B73 FF                 6865 	.db #0xff	; 255
   1B74 FF                 6866 	.db #0xff	; 255
   1B75 3C                 6867 	.db #0x3c	; 60
   1B76 3C                 6868 	.db #0x3c	; 60
   1B77 3C                 6869 	.db #0x3c	; 60
   1B78 3C                 6870 	.db #0x3c	; 60
   1B79 3C                 6871 	.db #0x3c	; 60
   1B7A 3C                 6872 	.db #0x3c	; 60
   1B7B 3C                 6873 	.db #0x3c	; 60
   1B7C 3C                 6874 	.db #0x3c	; 60
   1B7D 3C                 6875 	.db #0x3c	; 60
   1B7E 3C                 6876 	.db #0x3c	; 60
   1B7F 3C                 6877 	.db #0x3c	; 60
   1B80 3C                 6878 	.db #0x3c	; 60
   1B81 C0                 6879 	.db #0xc0	; 192
   1B82 C0                 6880 	.db #0xc0	; 192
   1B83 C0                 6881 	.db #0xc0	; 192
   1B84 C0                 6882 	.db #0xc0	; 192
   1B85 00                 6883 	.db #0x00	; 0
   1B86 00                 6884 	.db #0x00	; 0
   1B87 00                 6885 	.db #0x00	; 0
   1B88 00                 6886 	.db #0x00	; 0
   1B89 00                 6887 	.db #0x00	; 0
   1B8A 00                 6888 	.db #0x00	; 0
   1B8B 00                 6889 	.db #0x00	; 0
   1B8C 00                 6890 	.db #0x00	; 0
   1B8D 00                 6891 	.db #0x00	; 0
   1B8E 00                 6892 	.db #0x00	; 0
   1B8F 00                 6893 	.db #0x00	; 0
   1B90 00                 6894 	.db #0x00	; 0
   1B91 01                 6895 	.db #0x01	; 1
   1B92 01                 6896 	.db #0x01	; 1
   1B93 01                 6897 	.db #0x01	; 1
   1B94 01                 6898 	.db #0x01	; 1
   1B95 00                 6899 	.db #0x00	; 0
   1B96 00                 6900 	.db #0x00	; 0
   1B97 00                 6901 	.db #0x00	; 0
   1B98 00                 6902 	.db #0x00	; 0
   1B99 00                 6903 	.db #0x00	; 0
   1B9A 00                 6904 	.db #0x00	; 0
   1B9B 00                 6905 	.db #0x00	; 0
   1B9C 00                 6906 	.db #0x00	; 0
   1B9D 00                 6907 	.db #0x00	; 0
   1B9E 00                 6908 	.db #0x00	; 0
   1B9F 00                 6909 	.db #0x00	; 0
   1BA0 00                 6910 	.db #0x00	; 0
   1BA1 87                 6911 	.db #0x87	; 135
   1BA2 87                 6912 	.db #0x87	; 135
   1BA3 87                 6913 	.db #0x87	; 135
   1BA4 87                 6914 	.db #0x87	; 135
   1BA5 7F                 6915 	.db #0x7f	; 127
   1BA6 7F                 6916 	.db #0x7f	; 127
   1BA7 7F                 6917 	.db #0x7f	; 127
   1BA8 7F                 6918 	.db #0x7f	; 127
   1BA9 00                 6919 	.db #0x00	; 0
   1BAA 00                 6920 	.db #0x00	; 0
   1BAB 00                 6921 	.db #0x00	; 0
   1BAC 00                 6922 	.db #0x00	; 0
   1BAD 00                 6923 	.db #0x00	; 0
   1BAE 00                 6924 	.db #0x00	; 0
   1BAF 00                 6925 	.db #0x00	; 0
   1BB0 00                 6926 	.db #0x00	; 0
   1BB1 E0                 6927 	.db #0xe0	; 224
   1BB2 E0                 6928 	.db #0xe0	; 224
   1BB3 E0                 6929 	.db #0xe0	; 224
   1BB4 E0                 6930 	.db #0xe0	; 224
   1BB5 80                 6931 	.db #0x80	; 128
   1BB6 80                 6932 	.db #0x80	; 128
   1BB7 80                 6933 	.db #0x80	; 128
   1BB8 80                 6934 	.db #0x80	; 128
   1BB9 00                 6935 	.db #0x00	; 0
   1BBA 00                 6936 	.db #0x00	; 0
   1BBB 00                 6937 	.db #0x00	; 0
   1BBC 00                 6938 	.db #0x00	; 0
   1BBD 00                 6939 	.db #0x00	; 0
   1BBE 00                 6940 	.db #0x00	; 0
   1BBF 00                 6941 	.db #0x00	; 0
   1BC0 00                 6942 	.db #0x00	; 0
   1BC1 78                 6943 	.db #0x78	; 120	'x'
   1BC2 78                 6944 	.db #0x78	; 120	'x'
   1BC3 78                 6945 	.db #0x78	; 120	'x'
   1BC4 78                 6946 	.db #0x78	; 120	'x'
   1BC5 78                 6947 	.db #0x78	; 120	'x'
   1BC6 78                 6948 	.db #0x78	; 120	'x'
   1BC7 78                 6949 	.db #0x78	; 120	'x'
   1BC8 78                 6950 	.db #0x78	; 120	'x'
   1BC9 00                 6951 	.db #0x00	; 0
   1BCA 00                 6952 	.db #0x00	; 0
   1BCB 00                 6953 	.db #0x00	; 0
   1BCC 00                 6954 	.db #0x00	; 0
   1BCD 00                 6955 	.db #0x00	; 0
   1BCE 00                 6956 	.db #0x00	; 0
   1BCF 00                 6957 	.db #0x00	; 0
   1BD0 00                 6958 	.db #0x00	; 0
   1BD1 18                 6959 	.db #0x18	; 24
   1BD2 18                 6960 	.db #0x18	; 24
   1BD3 18                 6961 	.db #0x18	; 24
   1BD4 18                 6962 	.db #0x18	; 24
   1BD5 18                 6963 	.db #0x18	; 24
   1BD6 18                 6964 	.db #0x18	; 24
   1BD7 18                 6965 	.db #0x18	; 24
   1BD8 18                 6966 	.db #0x18	; 24
   1BD9 00                 6967 	.db #0x00	; 0
   1BDA 00                 6968 	.db #0x00	; 0
   1BDB 00                 6969 	.db #0x00	; 0
   1BDC 00                 6970 	.db #0x00	; 0
   1BDD 00                 6971 	.db #0x00	; 0
   1BDE 00                 6972 	.db #0x00	; 0
   1BDF 00                 6973 	.db #0x00	; 0
   1BE0 00                 6974 	.db #0x00	; 0
   1BE1 FC                 6975 	.db #0xfc	; 252
   1BE2 FC                 6976 	.db #0xfc	; 252
   1BE3 FC                 6977 	.db #0xfc	; 252
   1BE4 FC                 6978 	.db #0xfc	; 252
   1BE5 FC                 6979 	.db #0xfc	; 252
   1BE6 FC                 6980 	.db #0xfc	; 252
   1BE7 FC                 6981 	.db #0xfc	; 252
   1BE8 FC                 6982 	.db #0xfc	; 252
   1BE9 00                 6983 	.db #0x00	; 0
   1BEA 00                 6984 	.db #0x00	; 0
   1BEB 00                 6985 	.db #0x00	; 0
   1BEC 00                 6986 	.db #0x00	; 0
   1BED 00                 6987 	.db #0x00	; 0
   1BEE 00                 6988 	.db #0x00	; 0
   1BEF 00                 6989 	.db #0x00	; 0
   1BF0 00                 6990 	.db #0x00	; 0
   1BF1 F3                 6991 	.db #0xf3	; 243
   1BF2 F3                 6992 	.db #0xf3	; 243
   1BF3 F3                 6993 	.db #0xf3	; 243
   1BF4 F3                 6994 	.db #0xf3	; 243
   1BF5 F0                 6995 	.db #0xf0	; 240
   1BF6 F0                 6996 	.db #0xf0	; 240
   1BF7 F0                 6997 	.db #0xf0	; 240
   1BF8 F0                 6998 	.db #0xf0	; 240
   1BF9 00                 6999 	.db #0x00	; 0
   1BFA 00                 7000 	.db #0x00	; 0
   1BFB 00                 7001 	.db #0x00	; 0
   1BFC 00                 7002 	.db #0x00	; 0
   1BFD 00                 7003 	.db #0x00	; 0
   1BFE 00                 7004 	.db #0x00	; 0
   1BFF 00                 7005 	.db #0x00	; 0
   1C00 00                 7006 	.db #0x00	; 0
   1C01 00                 7007 	.db #0x00	; 0
   1C02 00                 7008 	.db #0x00	; 0
   1C03 00                 7009 	.db #0x00	; 0
   1C04 00                 7010 	.db #0x00	; 0
   1C05 F0                 7011 	.db #0xf0	; 240
   1C06 F0                 7012 	.db #0xf0	; 240
   1C07 F0                 7013 	.db #0xf0	; 240
   1C08 F0                 7014 	.db #0xf0	; 240
   1C09 00                 7015 	.db #0x00	; 0
   1C0A 00                 7016 	.db #0x00	; 0
   1C0B 00                 7017 	.db #0x00	; 0
   1C0C 00                 7018 	.db #0x00	; 0
   1C0D 00                 7019 	.db #0x00	; 0
   1C0E 00                 7020 	.db #0x00	; 0
   1C0F 00                 7021 	.db #0x00	; 0
   1C10 00                 7022 	.db #0x00	; 0
   1C11 3C                 7023 	.db #0x3c	; 60
   1C12 3C                 7024 	.db #0x3c	; 60
   1C13 3C                 7025 	.db #0x3c	; 60
   1C14 3C                 7026 	.db #0x3c	; 60
   1C15 3C                 7027 	.db #0x3c	; 60
   1C16 3C                 7028 	.db #0x3c	; 60
   1C17 3C                 7029 	.db #0x3c	; 60
   1C18 3C                 7030 	.db #0x3c	; 60
   1C19 00                 7031 	.db #0x00	; 0
   1C1A 00                 7032 	.db #0x00	; 0
   1C1B 00                 7033 	.db #0x00	; 0
   1C1C 00                 7034 	.db #0x00	; 0
   1C1D 00                 7035 	.db #0x00	; 0
   1C1E 00                 7036 	.db #0x00	; 0
   1C1F 00                 7037 	.db #0x00	; 0
   1C20 00                 7038 	.db #0x00	; 0
   1C21                    7039 _splash_map:
   1C21 00                 7040 	.db #0x00	; 0
   1C22 00                 7041 	.db #0x00	; 0
   1C23 00                 7042 	.db #0x00	; 0
   1C24 00                 7043 	.db #0x00	; 0
   1C25 00                 7044 	.db #0x00	; 0
   1C26 00                 7045 	.db #0x00	; 0
   1C27 00                 7046 	.db #0x00	; 0
   1C28 00                 7047 	.db #0x00	; 0
   1C29 01                 7048 	.db #0x01	; 1
   1C2A 02                 7049 	.db #0x02	; 2
   1C2B 00                 7050 	.db #0x00	; 0
   1C2C 00                 7051 	.db #0x00	; 0
   1C2D 00                 7052 	.db #0x00	; 0
   1C2E 00                 7053 	.db #0x00	; 0
   1C2F 00                 7054 	.db #0x00	; 0
   1C30 00                 7055 	.db #0x00	; 0
   1C31 00                 7056 	.db #0x00	; 0
   1C32 00                 7057 	.db #0x00	; 0
   1C33 00                 7058 	.db #0x00	; 0
   1C34 00                 7059 	.db #0x00	; 0
   1C35 00                 7060 	.db #0x00	; 0
   1C36 00                 7061 	.db #0x00	; 0
   1C37 00                 7062 	.db #0x00	; 0
   1C38 00                 7063 	.db #0x00	; 0
   1C39 00                 7064 	.db #0x00	; 0
   1C3A 00                 7065 	.db #0x00	; 0
   1C3B 00                 7066 	.db #0x00	; 0
   1C3C 03                 7067 	.db #0x03	; 3
   1C3D 04                 7068 	.db #0x04	; 4
   1C3E 05                 7069 	.db #0x05	; 5
   1C3F 06                 7070 	.db #0x06	; 6
   1C40 07                 7071 	.db #0x07	; 7
   1C41 08                 7072 	.db #0x08	; 8
   1C42 09                 7073 	.db #0x09	; 9
   1C43 0A                 7074 	.db #0x0a	; 10
   1C44 0B                 7075 	.db #0x0b	; 11
   1C45 0C                 7076 	.db #0x0c	; 12
   1C46 0D                 7077 	.db #0x0d	; 13
   1C47 00                 7078 	.db #0x00	; 0
   1C48 00                 7079 	.db #0x00	; 0
   1C49 00                 7080 	.db #0x00	; 0
   1C4A 00                 7081 	.db #0x00	; 0
   1C4B 00                 7082 	.db #0x00	; 0
   1C4C 00                 7083 	.db #0x00	; 0
   1C4D 00                 7084 	.db #0x00	; 0
   1C4E 00                 7085 	.db #0x00	; 0
   1C4F 00                 7086 	.db #0x00	; 0
   1C50 0E                 7087 	.db #0x0e	; 14
   1C51 0F                 7088 	.db #0x0f	; 15
   1C52 10                 7089 	.db #0x10	; 16
   1C53 11                 7090 	.db #0x11	; 17
   1C54 12                 7091 	.db #0x12	; 18
   1C55 13                 7092 	.db #0x13	; 19
   1C56 14                 7093 	.db #0x14	; 20
   1C57 15                 7094 	.db #0x15	; 21
   1C58 16                 7095 	.db #0x16	; 22
   1C59 17                 7096 	.db #0x17	; 23
   1C5A 00                 7097 	.db #0x00	; 0
   1C5B 00                 7098 	.db #0x00	; 0
   1C5C 00                 7099 	.db #0x00	; 0
   1C5D 00                 7100 	.db #0x00	; 0
   1C5E 00                 7101 	.db #0x00	; 0
   1C5F 00                 7102 	.db #0x00	; 0
   1C60 00                 7103 	.db #0x00	; 0
   1C61 00                 7104 	.db #0x00	; 0
   1C62 00                 7105 	.db #0x00	; 0
   1C63 00                 7106 	.db #0x00	; 0
   1C64 00                 7107 	.db #0x00	; 0
   1C65 18                 7108 	.db #0x18	; 24
   1C66 19                 7109 	.db #0x19	; 25
   1C67 1A                 7110 	.db #0x1a	; 26
   1C68 1B                 7111 	.db #0x1b	; 27
   1C69 1C                 7112 	.db #0x1c	; 28
   1C6A 1D                 7113 	.db #0x1d	; 29
   1C6B 1E                 7114 	.db #0x1e	; 30
   1C6C 1E                 7115 	.db #0x1e	; 30
   1C6D 19                 7116 	.db #0x19	; 25
   1C6E 1F                 7117 	.db #0x1f	; 31
   1C6F 00                 7118 	.db #0x00	; 0
   1C70 00                 7119 	.db #0x00	; 0
   1C71 00                 7120 	.db #0x00	; 0
   1C72 00                 7121 	.db #0x00	; 0
   1C73 00                 7122 	.db #0x00	; 0
   1C74 00                 7123 	.db #0x00	; 0
   1C75 00                 7124 	.db #0x00	; 0
   1C76 00                 7125 	.db #0x00	; 0
   1C77 00                 7126 	.db #0x00	; 0
   1C78 00                 7127 	.db #0x00	; 0
   1C79 00                 7128 	.db #0x00	; 0
   1C7A 20                 7129 	.db #0x20	; 32
   1C7B 21                 7130 	.db #0x21	; 33
   1C7C 22                 7131 	.db #0x22	; 34
   1C7D 00                 7132 	.db #0x00	; 0
   1C7E 00                 7133 	.db #0x00	; 0
   1C7F 00                 7134 	.db #0x00	; 0
   1C80 00                 7135 	.db #0x00	; 0
   1C81 00                 7136 	.db #0x00	; 0
   1C82 00                 7137 	.db #0x00	; 0
   1C83 00                 7138 	.db #0x00	; 0
   1C84 00                 7139 	.db #0x00	; 0
   1C85 00                 7140 	.db #0x00	; 0
   1C86 23                 7141 	.db #0x23	; 35
   1C87 02                 7142 	.db #0x02	; 2
   1C88 02                 7143 	.db #0x02	; 2
   1C89 02                 7144 	.db #0x02	; 2
   1C8A 02                 7145 	.db #0x02	; 2
   1C8B 02                 7146 	.db #0x02	; 2
   1C8C 24                 7147 	.db #0x24	; 36
   1C8D 00                 7148 	.db #0x00	; 0
   1C8E 25                 7149 	.db #0x25	; 37
   1C8F 26                 7150 	.db #0x26	; 38
   1C90 27                 7151 	.db #0x27	; 39
   1C91 28                 7152 	.db #0x28	; 40
   1C92 29                 7153 	.db #0x29	; 41
   1C93 2A                 7154 	.db #0x2a	; 42
   1C94 2B                 7155 	.db #0x2b	; 43
   1C95 2C                 7156 	.db #0x2c	; 44
   1C96 00                 7157 	.db #0x00	; 0
   1C97 00                 7158 	.db #0x00	; 0
   1C98 00                 7159 	.db #0x00	; 0
   1C99 00                 7160 	.db #0x00	; 0
   1C9A 2D                 7161 	.db #0x2d	; 45
   1C9B 2E                 7162 	.db #0x2e	; 46
   1C9C 2F                 7163 	.db #0x2f	; 47
   1C9D 30                 7164 	.db #0x30	; 48	'0'
   1C9E 31                 7165 	.db #0x31	; 49	'1'
   1C9F 32                 7166 	.db #0x32	; 50	'2'
   1CA0 33                 7167 	.db #0x33	; 51	'3'
   1CA1 00                 7168 	.db #0x00	; 0
   1CA2 25                 7169 	.db #0x25	; 37
   1CA3 34                 7170 	.db #0x34	; 52	'4'
   1CA4 35                 7171 	.db #0x35	; 53	'5'
   1CA5 36                 7172 	.db #0x36	; 54	'6'
   1CA6 37                 7173 	.db #0x37	; 55	'7'
   1CA7 38                 7174 	.db #0x38	; 56	'8'
   1CA8 39                 7175 	.db #0x39	; 57	'9'
   1CA9 34                 7176 	.db #0x34	; 52	'4'
   1CAA 00                 7177 	.db #0x00	; 0
   1CAB 00                 7178 	.db #0x00	; 0
   1CAC 00                 7179 	.db #0x00	; 0
   1CAD 00                 7180 	.db #0x00	; 0
   1CAE 2D                 7181 	.db #0x2d	; 45
   1CAF 3A                 7182 	.db #0x3a	; 58
   1CB0 3B                 7183 	.db #0x3b	; 59
   1CB1 3C                 7184 	.db #0x3c	; 60
   1CB2 3D                 7185 	.db #0x3d	; 61
   1CB3 3E                 7186 	.db #0x3e	; 62
   1CB4 33                 7187 	.db #0x33	; 51	'3'
   1CB5 00                 7188 	.db #0x00	; 0
   1CB6 3F                 7189 	.db #0x3f	; 63
   1CB7 40                 7190 	.db #0x40	; 64
   1CB8 41                 7191 	.db #0x41	; 65	'A'
   1CB9 42                 7192 	.db #0x42	; 66	'B'
   1CBA 43                 7193 	.db #0x43	; 67	'C'
   1CBB 44                 7194 	.db #0x44	; 68	'D'
   1CBC 45                 7195 	.db #0x45	; 69	'E'
   1CBD 46                 7196 	.db #0x46	; 70	'F'
   1CBE 00                 7197 	.db #0x00	; 0
   1CBF 00                 7198 	.db #0x00	; 0
   1CC0 00                 7199 	.db #0x00	; 0
   1CC1 00                 7200 	.db #0x00	; 0
   1CC2 2D                 7201 	.db #0x2d	; 45
   1CC3 47                 7202 	.db #0x47	; 71	'G'
   1CC4 48                 7203 	.db #0x48	; 72	'H'
   1CC5 49                 7204 	.db #0x49	; 73	'I'
   1CC6 4A                 7205 	.db #0x4a	; 74	'J'
   1CC7 4B                 7206 	.db #0x4b	; 75	'K'
   1CC8 33                 7207 	.db #0x33	; 51	'3'
   1CC9 00                 7208 	.db #0x00	; 0
   1CCA 00                 7209 	.db #0x00	; 0
   1CCB 00                 7210 	.db #0x00	; 0
   1CCC 00                 7211 	.db #0x00	; 0
   1CCD 00                 7212 	.db #0x00	; 0
   1CCE 00                 7213 	.db #0x00	; 0
   1CCF 00                 7214 	.db #0x00	; 0
   1CD0 00                 7215 	.db #0x00	; 0
   1CD1 00                 7216 	.db #0x00	; 0
   1CD2 00                 7217 	.db #0x00	; 0
   1CD3 00                 7218 	.db #0x00	; 0
   1CD4 00                 7219 	.db #0x00	; 0
   1CD5 00                 7220 	.db #0x00	; 0
   1CD6 2D                 7221 	.db #0x2d	; 45
   1CD7 4C                 7222 	.db #0x4c	; 76	'L'
   1CD8 4D                 7223 	.db #0x4d	; 77	'M'
   1CD9 4E                 7224 	.db #0x4e	; 78	'N'
   1CDA 4F                 7225 	.db #0x4f	; 79	'O'
   1CDB 50                 7226 	.db #0x50	; 80	'P'
   1CDC 33                 7227 	.db #0x33	; 51	'3'
   1CDD 00                 7228 	.db #0x00	; 0
   1CDE 00                 7229 	.db #0x00	; 0
   1CDF 00                 7230 	.db #0x00	; 0
   1CE0 00                 7231 	.db #0x00	; 0
   1CE1 00                 7232 	.db #0x00	; 0
   1CE2 00                 7233 	.db #0x00	; 0
   1CE3 00                 7234 	.db #0x00	; 0
   1CE4 00                 7235 	.db #0x00	; 0
   1CE5 00                 7236 	.db #0x00	; 0
   1CE6 00                 7237 	.db #0x00	; 0
   1CE7 00                 7238 	.db #0x00	; 0
   1CE8 00                 7239 	.db #0x00	; 0
   1CE9 00                 7240 	.db #0x00	; 0
   1CEA 51                 7241 	.db #0x51	; 81	'Q'
   1CEB 52                 7242 	.db #0x52	; 82	'R'
   1CEC 39                 7243 	.db #0x39	; 57	'9'
   1CED 53                 7244 	.db #0x53	; 83	'S'
   1CEE 54                 7245 	.db #0x54	; 84	'T'
   1CEF 39                 7246 	.db #0x39	; 57	'9'
   1CF0 33                 7247 	.db #0x33	; 51	'3'
   1CF1 00                 7248 	.db #0x00	; 0
   1CF2 00                 7249 	.db #0x00	; 0
   1CF3 00                 7250 	.db #0x00	; 0
   1CF4 00                 7251 	.db #0x00	; 0
   1CF5 00                 7252 	.db #0x00	; 0
   1CF6 00                 7253 	.db #0x00	; 0
   1CF7 00                 7254 	.db #0x00	; 0
   1CF8 00                 7255 	.db #0x00	; 0
   1CF9 00                 7256 	.db #0x00	; 0
   1CFA 00                 7257 	.db #0x00	; 0
   1CFB 00                 7258 	.db #0x00	; 0
   1CFC 00                 7259 	.db #0x00	; 0
   1CFD 00                 7260 	.db #0x00	; 0
   1CFE 00                 7261 	.db #0x00	; 0
   1CFF 55                 7262 	.db #0x55	; 85	'U'
   1D00 39                 7263 	.db #0x39	; 57	'9'
   1D01 38                 7264 	.db #0x38	; 56	'8'
   1D02 56                 7265 	.db #0x56	; 86	'V'
   1D03 39                 7266 	.db #0x39	; 57	'9'
   1D04 33                 7267 	.db #0x33	; 51	'3'
   1D05 00                 7268 	.db #0x00	; 0
   1D06 00                 7269 	.db #0x00	; 0
   1D07 00                 7270 	.db #0x00	; 0
   1D08 00                 7271 	.db #0x00	; 0
   1D09 00                 7272 	.db #0x00	; 0
   1D0A 00                 7273 	.db #0x00	; 0
   1D0B 00                 7274 	.db #0x00	; 0
   1D0C 00                 7275 	.db #0x00	; 0
   1D0D 00                 7276 	.db #0x00	; 0
   1D0E 00                 7277 	.db #0x00	; 0
   1D0F 00                 7278 	.db #0x00	; 0
   1D10 00                 7279 	.db #0x00	; 0
   1D11 00                 7280 	.db #0x00	; 0
   1D12 00                 7281 	.db #0x00	; 0
   1D13 55                 7282 	.db #0x55	; 85	'U'
   1D14 39                 7283 	.db #0x39	; 57	'9'
   1D15 38                 7284 	.db #0x38	; 56	'8'
   1D16 56                 7285 	.db #0x56	; 86	'V'
   1D17 39                 7286 	.db #0x39	; 57	'9'
   1D18 33                 7287 	.db #0x33	; 51	'3'
   1D19 00                 7288 	.db #0x00	; 0
   1D1A 00                 7289 	.db #0x00	; 0
   1D1B 00                 7290 	.db #0x00	; 0
   1D1C 00                 7291 	.db #0x00	; 0
   1D1D 00                 7292 	.db #0x00	; 0
   1D1E 00                 7293 	.db #0x00	; 0
   1D1F 00                 7294 	.db #0x00	; 0
   1D20 00                 7295 	.db #0x00	; 0
   1D21 00                 7296 	.db #0x00	; 0
   1D22 00                 7297 	.db #0x00	; 0
   1D23 00                 7298 	.db #0x00	; 0
   1D24 00                 7299 	.db #0x00	; 0
   1D25 00                 7300 	.db #0x00	; 0
   1D26 00                 7301 	.db #0x00	; 0
   1D27 57                 7302 	.db #0x57	; 87	'W'
   1D28 58                 7303 	.db #0x58	; 88	'X'
   1D29 59                 7304 	.db #0x59	; 89	'Y'
   1D2A 5A                 7305 	.db #0x5a	; 90	'Z'
   1D2B 58                 7306 	.db #0x58	; 88	'X'
   1D2C 5B                 7307 	.db #0x5b	; 91
   1D2D 00                 7308 	.db #0x00	; 0
   1D2E 00                 7309 	.db #0x00	; 0
   1D2F 00                 7310 	.db #0x00	; 0
   1D30 00                 7311 	.db #0x00	; 0
   1D31 00                 7312 	.db #0x00	; 0
   1D32 00                 7313 	.db #0x00	; 0
   1D33 00                 7314 	.db #0x00	; 0
   1D34 00                 7315 	.db #0x00	; 0
   1D35 00                 7316 	.db #0x00	; 0
   1D36 00                 7317 	.db #0x00	; 0
   1D37 00                 7318 	.db #0x00	; 0
   1D38 00                 7319 	.db #0x00	; 0
   1D39 00                 7320 	.db #0x00	; 0
   1D3A 00                 7321 	.db #0x00	; 0
   1D3B 5C                 7322 	.db #0x5c	; 92
   1D3C 5D                 7323 	.db #0x5d	; 93
   1D3D 5E                 7324 	.db #0x5e	; 94
   1D3E 5F                 7325 	.db #0x5f	; 95
   1D3F 60                 7326 	.db #0x60	; 96
   1D40 61                 7327 	.db #0x61	; 97	'a'
   1D41 62                 7328 	.db #0x62	; 98	'b'
   1D42 63                 7329 	.db #0x63	; 99	'c'
   1D43 64                 7330 	.db #0x64	; 100	'd'
   1D44 65                 7331 	.db #0x65	; 101	'e'
   1D45 00                 7332 	.db #0x00	; 0
   1D46 00                 7333 	.db #0x00	; 0
   1D47 00                 7334 	.db #0x00	; 0
   1D48 00                 7335 	.db #0x00	; 0
   1D49 00                 7336 	.db #0x00	; 0
   1D4A 00                 7337 	.db #0x00	; 0
   1D4B 00                 7338 	.db #0x00	; 0
   1D4C 00                 7339 	.db #0x00	; 0
   1D4D 00                 7340 	.db #0x00	; 0
   1D4E 00                 7341 	.db #0x00	; 0
   1D4F 66                 7342 	.db #0x66	; 102	'f'
   1D50 67                 7343 	.db #0x67	; 103	'g'
   1D51 68                 7344 	.db #0x68	; 104	'h'
   1D52 69                 7345 	.db #0x69	; 105	'i'
   1D53 6A                 7346 	.db #0x6a	; 106	'j'
   1D54 6B                 7347 	.db #0x6b	; 107	'k'
   1D55 6C                 7348 	.db #0x6c	; 108	'l'
   1D56 6D                 7349 	.db #0x6d	; 109	'm'
   1D57 6E                 7350 	.db #0x6e	; 110	'n'
   1D58 00                 7351 	.db #0x00	; 0
   1D59 00                 7352 	.db #0x00	; 0
   1D5A 00                 7353 	.db #0x00	; 0
   1D5B 00                 7354 	.db #0x00	; 0
   1D5C 00                 7355 	.db #0x00	; 0
   1D5D 00                 7356 	.db #0x00	; 0
   1D5E 00                 7357 	.db #0x00	; 0
   1D5F 00                 7358 	.db #0x00	; 0
   1D60 00                 7359 	.db #0x00	; 0
   1D61 00                 7360 	.db #0x00	; 0
   1D62 00                 7361 	.db #0x00	; 0
   1D63 00                 7362 	.db #0x00	; 0
   1D64 00                 7363 	.db #0x00	; 0
   1D65 00                 7364 	.db #0x00	; 0
   1D66 00                 7365 	.db #0x00	; 0
   1D67 00                 7366 	.db #0x00	; 0
   1D68 00                 7367 	.db #0x00	; 0
   1D69 00                 7368 	.db #0x00	; 0
   1D6A 00                 7369 	.db #0x00	; 0
   1D6B 00                 7370 	.db #0x00	; 0
   1D6C 00                 7371 	.db #0x00	; 0
   1D6D 00                 7372 	.db #0x00	; 0
   1D6E 00                 7373 	.db #0x00	; 0
   1D6F 00                 7374 	.db #0x00	; 0
   1D70 00                 7375 	.db #0x00	; 0
   1D71 00                 7376 	.db #0x00	; 0
   1D72 00                 7377 	.db #0x00	; 0
   1D73 00                 7378 	.db #0x00	; 0
   1D74 00                 7379 	.db #0x00	; 0
   1D75 00                 7380 	.db #0x00	; 0
   1D76 00                 7381 	.db #0x00	; 0
   1D77 00                 7382 	.db #0x00	; 0
   1D78 00                 7383 	.db #0x00	; 0
   1D79 00                 7384 	.db #0x00	; 0
   1D7A 00                 7385 	.db #0x00	; 0
   1D7B 00                 7386 	.db #0x00	; 0
   1D7C 00                 7387 	.db #0x00	; 0
   1D7D 00                 7388 	.db #0x00	; 0
   1D7E 00                 7389 	.db #0x00	; 0
   1D7F 00                 7390 	.db #0x00	; 0
   1D80 00                 7391 	.db #0x00	; 0
   1D81 00                 7392 	.db #0x00	; 0
   1D82 00                 7393 	.db #0x00	; 0
   1D83 00                 7394 	.db #0x00	; 0
   1D84 00                 7395 	.db #0x00	; 0
   1D85 00                 7396 	.db #0x00	; 0
   1D86 00                 7397 	.db #0x00	; 0
   1D87 00                 7398 	.db #0x00	; 0
   1D88 00                 7399 	.db #0x00	; 0
                           7400 ;./src/main.c:37: void main()
                           7401 ;	---------------------------------
                           7402 ; Function main
                           7403 ; ---------------------------------
   1D89                    7404 _main::
   1D89 E8 ED              7405 	add	sp, #-19
                           7406 ;./src/main.c:40: set_bkg_data(0, 114, splash_data);
   1D8B 21r31r15           7407 	ld	hl, #_splash_data
   1D8E E5                 7408 	push	hl
   1D8F 3E 72              7409 	ld	a, #0x72
   1D91 F5                 7410 	push	af
   1D92 33                 7411 	inc	sp
   1D93 AF                 7412 	xor	a, a
   1D94 F5                 7413 	push	af
   1D95 33                 7414 	inc	sp
   1D96 CDr00r00           7415 	call	_set_bkg_data
   1D99 E8 04              7416 	add	sp, #4
                           7417 ;./src/main.c:41: set_bkg_tiles(0, 0, 20, 18, splash_map);
   1D9B 21r21r1C           7418 	ld	hl, #_splash_map
   1D9E E5                 7419 	push	hl
   1D9F 3E 12              7420 	ld	a, #0x12
   1DA1 F5                 7421 	push	af
   1DA2 33                 7422 	inc	sp
   1DA3 3E 14              7423 	ld	a, #0x14
   1DA5 F5                 7424 	push	af
   1DA6 33                 7425 	inc	sp
   1DA7 AF                 7426 	xor	a, a
   1DA8 F5                 7427 	push	af
   1DA9 33                 7428 	inc	sp
   1DAA AF                 7429 	xor	a, a
   1DAB F5                 7430 	push	af
   1DAC 33                 7431 	inc	sp
   1DAD CDr00r00           7432 	call	_set_bkg_tiles
   1DB0 E8 06              7433 	add	sp, #6
                           7434 ;./src/main.c:43: SHOW_BKG;
   1DB2 F0r00              7435 	ldh	a, (_LCDC_REG+0)
   1DB4 F6 01              7436 	or	a, #0x01
   1DB6 E0r00              7437 	ldh	(_LCDC_REG+0),a
                           7438 ;./src/main.c:44: DISPLAY_ON;
   1DB8 F0r00              7439 	ldh	a, (_LCDC_REG+0)
   1DBA F6 80              7440 	or	a, #0x80
   1DBC E0r00              7441 	ldh	(_LCDC_REG+0),a
                           7442 ;./src/main.c:46: waitpad(J_START);
   1DBE 3E 80              7443 	ld	a, #0x80
   1DC0 F5                 7444 	push	af
   1DC1 33                 7445 	inc	sp
   1DC2 CDr00r00           7446 	call	_waitpad
   1DC5 33                 7447 	inc	sp
                           7448 ;./src/main.c:49: set_bkg_data(0, 12, BackgroundTiles);
   1DC6 21r30r00           7449 	ld	hl, #_BackgroundTiles
   1DC9 E5                 7450 	push	hl
   1DCA 3E 0C              7451 	ld	a, #0x0c
   1DCC F5                 7452 	push	af
   1DCD 33                 7453 	inc	sp
   1DCE AF                 7454 	xor	a, a
   1DCF F5                 7455 	push	af
   1DD0 33                 7456 	inc	sp
   1DD1 CDr00r00           7457 	call	_set_bkg_data
   1DD4 E8 04              7458 	add	sp, #4
                           7459 ;./src/main.c:51: MPlayer player = {{{70, 24}, 0, 3, 0, {0, 0}, {false, {0, 0}}}, false};
   1DD6 F8 00              7460 	ldhl	sp,	#0
   1DD8 7D                 7461 	ld	a, l
   1DD9 54                 7462 	ld	d, h
   1DDA F8 11              7463 	ldhl	sp,	#17
   1DDC 22                 7464 	ld	(hl+), a
   1DDD 72                 7465 	ld	(hl), d
   1DDE 2B                 7466 	dec	hl
   1DDF 2A                 7467 	ld	a, (hl+)
   1DE0 66                 7468 	ld	h, (hl)
   1DE1 6F                 7469 	ld	l, a
   1DE2 36 46              7470 	ld	(hl), #0x46
   1DE4 F8 11              7471 	ldhl	sp,#(18 - 1)
   1DE6 4E                 7472 	ld	c, (hl)
   1DE7 23                 7473 	inc	hl
   1DE8 46                 7474 	ld	b, (hl)
   1DE9 03                 7475 	inc	bc
   1DEA 3E 18              7476 	ld	a, #0x18
   1DEC 02                 7477 	ld	(bc), a
   1DED 2B                 7478 	dec	hl
   1DEE 4E                 7479 	ld	c, (hl)
   1DEF 23                 7480 	inc	hl
   1DF0 46                 7481 	ld	b, (hl)
   1DF1 03                 7482 	inc	bc
   1DF2 03                 7483 	inc	bc
   1DF3 AF                 7484 	xor	a, a
   1DF4 02                 7485 	ld	(bc), a
   1DF5 2B                 7486 	dec	hl
   1DF6 4E                 7487 	ld	c, (hl)
   1DF7 23                 7488 	inc	hl
   1DF8 46                 7489 	ld	b, (hl)
   1DF9 03                 7490 	inc	bc
   1DFA 03                 7491 	inc	bc
   1DFB 03                 7492 	inc	bc
   1DFC 3E 03              7493 	ld	a, #0x03
   1DFE 02                 7494 	ld	(bc), a
   1DFF 2B                 7495 	dec	hl
   1E00 5E                 7496 	ld	e, (hl)
   1E01 23                 7497 	inc	hl
   1E02 56                 7498 	ld	d, (hl)
   1E03 21 04 00           7499 	ld	hl, #0x0004
   1E06 19                 7500 	add	hl, de
   1E07 4D                 7501 	ld	c, l
   1E08 44                 7502 	ld	b, h
   1E09 AF                 7503 	xor	a, a
   1E0A 02                 7504 	ld	(bc), a
   1E0B F8 11              7505 	ldhl	sp,#(18 - 1)
   1E0D 5E                 7506 	ld	e, (hl)
   1E0E 23                 7507 	inc	hl
   1E0F 56                 7508 	ld	d, (hl)
   1E10 21 05 00           7509 	ld	hl, #0x0005
   1E13 19                 7510 	add	hl, de
   1E14 4D                 7511 	ld	c, l
   1E15 44                 7512 	ld	b, h
   1E16 AF                 7513 	xor	a, a
   1E17 02                 7514 	ld	(bc), a
   1E18 03                 7515 	inc	bc
   1E19 02                 7516 	ld	(bc), a
   1E1A F8 11              7517 	ldhl	sp,#(18 - 1)
   1E1C 5E                 7518 	ld	e, (hl)
   1E1D 23                 7519 	inc	hl
   1E1E 56                 7520 	ld	d, (hl)
   1E1F 21 07 00           7521 	ld	hl, #0x0007
   1E22 19                 7522 	add	hl, de
   1E23 4D                 7523 	ld	c, l
   1E24 44                 7524 	ld	b, h
   1E25 AF                 7525 	xor	a, a
   1E26 02                 7526 	ld	(bc), a
   1E27 03                 7527 	inc	bc
   1E28 02                 7528 	ld	(bc), a
   1E29 F8 11              7529 	ldhl	sp,#(18 - 1)
   1E2B 5E                 7530 	ld	e, (hl)
   1E2C 23                 7531 	inc	hl
   1E2D 56                 7532 	ld	d, (hl)
   1E2E 21 09 00           7533 	ld	hl, #0x0009
   1E31 19                 7534 	add	hl, de
   1E32 4D                 7535 	ld	c, l
   1E33 44                 7536 	ld	b, h
   1E34 AF                 7537 	xor	a, a
   1E35 02                 7538 	ld	(bc), a
   1E36 F8 11              7539 	ldhl	sp,#(18 - 1)
   1E38 5E                 7540 	ld	e, (hl)
   1E39 23                 7541 	inc	hl
   1E3A 56                 7542 	ld	d, (hl)
   1E3B 21 0A 00           7543 	ld	hl, #0x000a
   1E3E 19                 7544 	add	hl, de
   1E3F 4D                 7545 	ld	c, l
   1E40 44                 7546 	ld	b, h
   1E41 AF                 7547 	xor	a, a
   1E42 02                 7548 	ld	(bc), a
   1E43 03                 7549 	inc	bc
   1E44 02                 7550 	ld	(bc), a
   1E45 F8 11              7551 	ldhl	sp,#(18 - 1)
   1E47 5E                 7552 	ld	e, (hl)
   1E48 23                 7553 	inc	hl
   1E49 56                 7554 	ld	d, (hl)
   1E4A 21 0C 00           7555 	ld	hl, #0x000c
   1E4D 19                 7556 	add	hl, de
   1E4E 4D                 7557 	ld	c, l
   1E4F 44                 7558 	ld	b, h
   1E50 AF                 7559 	xor	a, a
   1E51 02                 7560 	ld	(bc), a
   1E52 03                 7561 	inc	bc
   1E53 02                 7562 	ld	(bc), a
   1E54 F8 00              7563 	ldhl	sp,	#0
   1E56 7D                 7564 	ld	a, l
   1E57 54                 7565 	ld	d, h
   1E58 F8 0F              7566 	ldhl	sp,	#15
   1E5A 22                 7567 	ld	(hl+), a
   1E5B 72                 7568 	ld	(hl), d
   1E5C 2B                 7569 	dec	hl
   1E5D 5E                 7570 	ld	e, (hl)
   1E5E 23                 7571 	inc	hl
   1E5F 56                 7572 	ld	d, (hl)
   1E60 21 0E 00           7573 	ld	hl, #0x000e
   1E63 19                 7574 	add	hl, de
   1E64 4D                 7575 	ld	c, l
   1E65 44                 7576 	ld	b, h
   1E66 AF                 7577 	xor	a, a
   1E67 02                 7578 	ld	(bc), a
                           7579 ;./src/main.c:53: set_sprite_data(player.sprite.sprite_number, player.sprite.max_animations, MainChar);
   1E68 F8 0F              7580 	ldhl	sp,#(16 - 1)
   1E6A 4E                 7581 	ld	c, (hl)
   1E6B 23                 7582 	inc	hl
   1E6C 46                 7583 	ld	b, (hl)
   1E6D 03                 7584 	inc	bc
   1E6E 03                 7585 	inc	bc
   1E6F 03                 7586 	inc	bc
   1E70 0A                 7587 	ld	a, (bc)
   1E71 47                 7588 	ld	b, a
   1E72 2B                 7589 	dec	hl
   1E73 5E                 7590 	ld	e, (hl)
   1E74 23                 7591 	inc	hl
   1E75 56                 7592 	ld	d, (hl)
   1E76 21 04 00           7593 	ld	hl, #0x0004
   1E79 19                 7594 	add	hl, de
   1E7A 7D                 7595 	ld	a, l
   1E7B 54                 7596 	ld	d, h
   1E7C F8 11              7597 	ldhl	sp,	#17
   1E7E 22                 7598 	ld	(hl+), a
   1E7F 72                 7599 	ld	(hl), d
   1E80 2B                 7600 	dec	hl
   1E81 5E                 7601 	ld	e, (hl)
   1E82 23                 7602 	inc	hl
   1E83 56                 7603 	ld	d, (hl)
   1E84 1A                 7604 	ld	a,(de)
   1E85 4F                 7605 	ld	c, a
   1E86 21r00r00           7606 	ld	hl, #_MainChar
   1E89 E5                 7607 	push	hl
   1E8A C5                 7608 	push	bc
   1E8B 33                 7609 	inc	sp
   1E8C 79                 7610 	ld	a, c
   1E8D F5                 7611 	push	af
   1E8E 33                 7612 	inc	sp
   1E8F CDr00r00           7613 	call	_set_sprite_data
   1E92 E8 04              7614 	add	sp, #4
                           7615 ;./src/main.c:54: set_sprite_tile(player.sprite.sprite_number, player.sprite.animation_index);
   1E94 F8 0F              7616 	ldhl	sp,#(16 - 1)
   1E96 4E                 7617 	ld	c, (hl)
   1E97 23                 7618 	inc	hl
   1E98 46                 7619 	ld	b, (hl)
   1E99 03                 7620 	inc	bc
   1E9A 03                 7621 	inc	bc
   1E9B 0A                 7622 	ld	a, (bc)
   1E9C 47                 7623 	ld	b, a
   1E9D 23                 7624 	inc	hl
   1E9E 5E                 7625 	ld	e, (hl)
   1E9F 23                 7626 	inc	hl
   1EA0 56                 7627 	ld	d, (hl)
   1EA1 1A                 7628 	ld	a,(de)
   1EA2 C5                 7629 	push	bc
   1EA3 33                 7630 	inc	sp
   1EA4 F5                 7631 	push	af
   1EA5 33                 7632 	inc	sp
   1EA6 CDr00r00           7633 	call	_set_sprite_tile
   1EA9 E8 02              7634 	add	sp, #2
                           7635 ;./src/main.c:55: move_sprite(player.sprite.sprite_number, player.sprite.position.x, player.sprite.position.y);
   1EAB F8 0F              7636 	ldhl	sp,#(16 - 1)
   1EAD 4E                 7637 	ld	c, (hl)
   1EAE 23                 7638 	inc	hl
   1EAF 46                 7639 	ld	b, (hl)
   1EB0 03                 7640 	inc	bc
   1EB1 0A                 7641 	ld	a, (bc)
   1EB2 47                 7642 	ld	b, a
   1EB3 2B                 7643 	dec	hl
   1EB4 5E                 7644 	ld	e, (hl)
   1EB5 23                 7645 	inc	hl
   1EB6 56                 7646 	ld	d, (hl)
   1EB7 1A                 7647 	ld	a,(de)
   1EB8 23                 7648 	inc	hl
   1EB9 5E                 7649 	ld	e, (hl)
   1EBA 23                 7650 	inc	hl
   1EBB 56                 7651 	ld	d, (hl)
   1EBC F5                 7652 	push	af
   1EBD 1A                 7653 	ld	a,(de)
   1EBE 4F                 7654 	ld	c, a
   1EBF F1                 7655 	pop	af
   1EC0 C5                 7656 	push	bc
   1EC1 33                 7657 	inc	sp
   1EC2 F5                 7658 	push	af
   1EC3 33                 7659 	inc	sp
   1EC4 79                 7660 	ld	a, c
   1EC5 F5                 7661 	push	af
   1EC6 33                 7662 	inc	sp
   1EC7 CDr00r00           7663 	call	_move_sprite
   1ECA E8 03              7664 	add	sp, #3
                           7665 ;./src/main.c:56: SHOW_SPRITES;
   1ECC F0r00              7666 	ldh	a, (_LCDC_REG+0)
   1ECE F6 02              7667 	or	a, #0x02
   1ED0 E0r00              7668 	ldh	(_LCDC_REG+0),a
                           7669 ;./src/main.c:58: set_map(&player);
   1ED2 F8 0F              7670 	ldhl	sp,#(16 - 1)
   1ED4 4E                 7671 	ld	c, (hl)
   1ED5 23                 7672 	inc	hl
   1ED6 46                 7673 	ld	b, (hl)
   1ED7 C5                 7674 	push	bc
   1ED8 CDrE5r0C           7675 	call	_set_map
   1EDB E8 02              7676 	add	sp, #2
                           7677 ;./src/main.c:62: while(1){
   1EDD                    7678 00105$:
                           7679 ;./src/main.c:63: UPDATE_JOYPAD_STATE;
   1EDD E5                 7680 	push	hl
   1EDE 21rF1r00           7681 	ld	hl, #_joypad_curr_state
   1EE1 7E                 7682 	ld	a, (hl)
   1EE2 21rF0r00           7683 	ld	hl, #_joypad_prev_state
   1EE5 77                 7684 	ld	(hl), a
   1EE6 E1                 7685 	pop	hl
   1EE7 CDr00r00           7686 	call	_joypad
   1EEA 21rF1r00           7687 	ld	hl, #_joypad_curr_state
   1EED 73                 7688 	ld	(hl), e
                           7689 ;./src/main.c:67: player_movement(&player);
   1EEE F8 0F              7690 	ldhl	sp,#(16 - 1)
   1EF0 4E                 7691 	ld	c, (hl)
   1EF1 23                 7692 	inc	hl
   1EF2 46                 7693 	ld	b, (hl)
   1EF3 C5                 7694 	push	bc
   1EF4 CDrA0r02           7695 	call	_player_movement
   1EF7 E8 02              7696 	add	sp, #2
                           7697 ;./src/main.c:68: jump(&player);
   1EF9 F8 0F              7698 	ldhl	sp,#(16 - 1)
   1EFB 4E                 7699 	ld	c, (hl)
   1EFC 23                 7700 	inc	hl
   1EFD 46                 7701 	ld	b, (hl)
   1EFE C5                 7702 	push	bc
   1EFF CDrDEr03           7703 	call	_jump
   1F02 E8 02              7704 	add	sp, #2
                           7705 ;./src/main.c:71: death_check(&player);
   1F04 F8 0F              7706 	ldhl	sp,#(16 - 1)
   1F06 4E                 7707 	ld	c, (hl)
   1F07 23                 7708 	inc	hl
   1F08 46                 7709 	ld	b, (hl)
   1F09 C5                 7710 	push	bc
   1F0A CDr39r13           7711 	call	_death_check
   1F0D E8 02              7712 	add	sp, #2
                           7713 ;./src/main.c:72: teleporter_check(&player);
   1F0F F8 0F              7714 	ldhl	sp,#(16 - 1)
   1F11 4E                 7715 	ld	c, (hl)
   1F12 23                 7716 	inc	hl
   1F13 46                 7717 	ld	b, (hl)
   1F14 C5                 7718 	push	bc
   1F15 CDrD3r13           7719 	call	_teleporter_check
   1F18 E8 02              7720 	add	sp, #2
                           7721 ;./src/main.c:73: collision_check(&(player.sprite));
   1F1A F8 0F              7722 	ldhl	sp,#(16 - 1)
   1F1C 4E                 7723 	ld	c, (hl)
   1F1D 23                 7724 	inc	hl
   1F1E 46                 7725 	ld	b, (hl)
   1F1F C5                 7726 	push	bc
   1F20 CDr6Dr10           7727 	call	_collision_check
   1F23 E8 02              7728 	add	sp, #2
                           7729 ;./src/main.c:76: gravity(&(player.sprite));
   1F25 F8 0F              7730 	ldhl	sp,#(16 - 1)
   1F27 4E                 7731 	ld	c, (hl)
   1F28 23                 7732 	inc	hl
   1F29 46                 7733 	ld	b, (hl)
   1F2A C5                 7734 	push	bc
   1F2B CDrC6r0E           7735 	call	_gravity
   1F2E E8 02              7736 	add	sp, #2
                           7737 ;./src/main.c:79: update_position(&(player.sprite));
   1F30 F8 0F              7738 	ldhl	sp,#(16 - 1)
   1F32 4E                 7739 	ld	c, (hl)
   1F33 23                 7740 	inc	hl
   1F34 46                 7741 	ld	b, (hl)
   1F35 C5                 7742 	push	bc
   1F36 CDr97r00           7743 	call	_update_position
   1F39 E8 02              7744 	add	sp, #2
                           7745 ;./src/main.c:80: draw(&(player.sprite));
   1F3B F8 0F              7746 	ldhl	sp,#(16 - 1)
   1F3D 4E                 7747 	ld	c, (hl)
   1F3E 23                 7748 	inc	hl
   1F3F 46                 7749 	ld	b, (hl)
   1F40 C5                 7750 	push	bc
   1F41 CDr68r00           7751 	call	_draw
   1F44 E8 02              7752 	add	sp, #2
                           7753 ;./src/main.c:82: win_condition(&player);
   1F46 F8 0F              7754 	ldhl	sp,#(16 - 1)
   1F48 4E                 7755 	ld	c, (hl)
   1F49 23                 7756 	inc	hl
   1F4A 46                 7757 	ld	b, (hl)
   1F4B C5                 7758 	push	bc
   1F4C CDrD1r0D           7759 	call	_win_condition
   1F4F E8 02              7760 	add	sp, #2
                           7761 ;./src/main.c:86: performantdelay(5);
   1F51 3E 05              7762 	ld	a, #0x05
   1F53 F5                 7763 	push	af
   1F54 33                 7764 	inc	sp
   1F55 CDr21r15           7765 	call	_performantdelay
   1F58 33                 7766 	inc	sp
   1F59 C3rDDr1E           7767 	jp	00105$
                           7768 ;./src/main.c:88: }
   1F5C E8 13              7769 	add	sp, #19
   1F5E C9                 7770 	ret
                           7771 	.area _CODE
                           7772 	.area _CABS (ABS)
